 AIServer

 Timestamp is 571bfc3c (Sat Apr 23 18:50:36 2016)

 Preferred load address is 00400000

 Start         Length     Name                   Class
 0001:00000000 0017a859H .textbss                DATA
 0002:00000000 000230b0H .text                   CODE
 0002:000230b0 00001c90H .text$di                CODE
 0002:00024d40 002e08c0H .text$mn                CODE
 0002:00305600 0001e7e0H .text$x                 CODE
 0002:00323de0 0000143dH .text$yd                CODE
 0003:00000000 00000104H .CRT$XCA                DATA
 0003:00000104 00000104H .CRT$XCAA               DATA
 0003:00000208 000001d0H .CRT$XCC                DATA
 0003:000003d8 00000124H .CRT$XCL                DATA
 0003:000004fc 00000158H .CRT$XCU                DATA
 0003:00000654 00000104H .CRT$XCZ                DATA
 0003:00000758 00000104H .CRT$XIA                DATA
 0003:0000085c 00000104H .CRT$XIAA               DATA
 0003:00000960 00000104H .CRT$XIAC               DATA
 0003:00000a64 0000011cH .CRT$XIC                DATA
 0003:00000b80 00000104H .CRT$XIZ                DATA
 0003:00000c84 00000004H .CRT$XLA                DATA
 0003:00000c88 00000004H .CRT$XLZ                DATA
 0003:00000c8c 00000104H .CRT$XPA                DATA
 0003:00000d90 00000104H .CRT$XPB                DATA
 0003:00000e94 0000010cH .CRT$XPX                DATA
 0003:00000fa0 00000104H .CRT$XPXA               DATA
 0003:000010a4 00000104H .CRT$XPZ                DATA
 0003:000011a8 00000104H .CRT$XTA                DATA
 0003:000012ac 00000104H .CRT$XTZ                DATA
 0003:000013b0 0005c9d0H .rdata                  DATA
 0003:0005dd80 0000011cH .rdata$T                DATA
 0003:0005de9c 00005b1cH .rdata$r                DATA
 0003:000639b8 00000113H .rdata$zETW0            DATA
 0003:00063acb 0000018eH .rdata$zETW1            DATA
 0003:00063c59 00000134H .rdata$zETW2            DATA
 0003:00063d8d 00000103H .rdata$zETW9            DATA
 0003:00063e90 000001acH .rdata$zzzdbg           DATA
 0003:0006403c 00000104H .rtc$IAA                DATA
 0003:00064140 000001bcH .rtc$IMZ                DATA
 0003:000642fc 00000104H .rtc$IZZ                DATA
 0003:00064400 00000104H .rtc$TAA                DATA
 0003:00064504 000001bcH .rtc$TMZ                DATA
 0003:000646c0 00000108H .rtc$TZZ                DATA
 0003:000647c8 0001e764H .xdata$x                DATA
 0003:00082f2c 00000000H .edata                  DATA
 0004:00000000 00001550H .data                   DATA
 0004:00001550 00003438H .data$r                 DATA
 0004:00004988 00003ca0H .bss                    DATA
 0005:00000000 00000400H .idata$5                DATA
 0005:00000400 00000050H .idata$2                DATA
 0005:00000450 00000014H .idata$3                DATA
 0005:00000464 00000400H .idata$4                DATA
 0005:00000864 00000db3H .idata$6                DATA
 0006:00000000 00000218H .gfids$x                DATA
 0006:00000218 00001bacH .gfids$y                DATA
 0007:00000000 00000104H .tls                    DATA
 0007:00000104 00000104H .tls$                   DATA
 0007:00000208 00000101H .tls$ZZZ                DATA
 0008:00000000 00000104H .00cfg                  DATA
 0009:00000000 00000400H .rsrc$01                DATA
 0009:00000400 0001bcecH .rsrc$02                DATA

  Address         Publics by Value              Rva+Base       Lib:Object

 0000:00000000       ___guard_fids_table        00000000     <absolute>
 0000:00000000       ___guard_longjmp_count     00000000     <absolute>
 0000:00000000       ___safe_se_handler_table   00000000     <absolute>
 0000:00000000       __except_list              00000000     <absolute>
 0000:00000000       ___dynamic_value_reloc_table 00000000     <absolute>
 0000:00000000       ___safe_se_handler_count   00000000     <absolute>
 0000:00000000       ___guard_fids_count        00000000     <absolute>
 0000:00000000       ___guard_iat_table         00000000     <absolute>
 0000:00000000       ___guard_iat_count         00000000     <absolute>
 0000:00000000       ___guard_longjmp_table     00000000     <absolute>
 0000:0000002c       __tls_array                0000002c     <absolute>
 0000:00000100       ___guard_flags             00000100     <absolute>
 0000:00000000       ___ImageBase               00400000     <linker-defined>
 0001:00000000       __enc$textbss$begin        00401000     <linker-defined>
 0001:0017a859       __enc$textbss$end          0057b859     <linker-defined>
 0002:00022ad0       ?TraceLoggingRegister@__vcrt_trace_logging_provider@@YAJPBU_TlgProvider_t@1@PBU_GUID@@P6GX1KE_K2PAU_EVENT_FILTER_DESCRIPTOR@@PAX@Z4@Z 0059ead0 f i libvcruntimed:telemetry.obj
 0002:00022bc0       ?TraceLoggingSetInformation@__vcrt_trace_logging_provider@@YAJPBU_TlgProvider_t@1@W4_EVENT_INFO_CLASS@@PAXK@Z 0059ebc0 f i libvcruntimed:telemetry.obj
 0002:00022c10       ?TraceLoggingUnregister@__vcrt_trace_logging_provider@@YAXPBU_TlgProvider_t@1@@Z 0059ec10 f i libvcruntimed:telemetry.obj
 0002:00022c50       ?_TlgCreateSz@__vcrt_trace_logging_provider@@YAXPAU_EVENT_DATA_DESCRIPTOR@@PBD@Z 0059ec50 f i libvcruntimed:telemetry.obj
 0002:00022cb0       ?_TlgCreateWsz@__vcrt_trace_logging_provider@@YAXPAU_EVENT_DATA_DESCRIPTOR@@PB_W@Z 0059ecb0 f i libvcruntimed:telemetry.obj
 0002:00022d10       ?_TlgEnableCallback@__vcrt_trace_logging_provider@@YGXPBU_GUID@@KE_K1PAU_EVENT_FILTER_DESCRIPTOR@@PAX@Z 0059ed10 f i libvcruntimed:telemetry.obj
 0002:00022e10       ?_TlgKeywordOn@__vcrt_trace_logging_provider@@YAEPBU_TlgProvider_t@1@_K@Z 0059ee10 f i libvcruntimed:telemetry.obj
 0002:00022ea0       ?_TlgWrite@__vcrt_trace_logging_provider@@YAJPBU_TlgProvider_t@1@PBXPBU_GUID@@2IPAU_EVENT_DATA_DESCRIPTOR@@@Z 0059eea0 f i libvcruntimed:telemetry.obj
 0002:00024d40       ??$?0$$V@?$_Compressed_pair@U?$_Wrap_alloc@V?$allocator@E@std@@@std@@V?$_Vector_val@U?$_Simple_types@E@std@@@2@$00@std@@QAE@U_Zero_then_variadic_args_t@1@@Z 005a0d40 f i MagicProcess.obj
 0002:00024da0       ??$?0AAU?$_Wrap_alloc@V?$allocator@E@std@@@std@@@?$_Wrap_alloc@V?$allocator@U_Container_proxy@std@@@std@@@std@@QAE@AAU?$_Wrap_alloc@V?$allocator@E@std@@@1@@Z 005a0da0 f i MagicProcess.obj
 0002:00024e10       ??$?0E@?$allocator@U_Container_proxy@std@@@std@@QAE@ABV?$allocator@E@1@@Z 005a0e10 f i MagicProcess.obj
 0002:00024e50       ??$_Addressof@E@std@@YAPAEAAEU?$integral_constant@_N$0A@@0@@Z 005a0e50 f i MagicProcess.obj
 0002:00024e90       ??$_Addressof@U?$pair@$$CBEU_BUFF_TYPE4_INFO@@@std@@@std@@YAPAU?$pair@$$CBEU_BUFF_TYPE4_INFO@@@0@AAU10@U?$integral_constant@_N$0A@@0@@Z 005a0e90 f i MagicProcess.obj
 0002:00024ed0       ??$_Addressof@U?$pair@$$CBIPAU_MAGIC_TABLE@@@std@@@std@@YAPAU?$pair@$$CBIPAU_MAGIC_TABLE@@@0@AAU10@U?$integral_constant@_N$0A@@0@@Z 005a0ed0 f i MagicProcess.obj
 0002:00024f10       ??$_Addressof@U?$pair@$$CBIPAU_MAGIC_TYPE4@@@std@@@std@@YAPAU?$pair@$$CBIPAU_MAGIC_TYPE4@@@0@AAU10@U?$integral_constant@_N$0A@@0@@Z 005a0f10 f i MagicProcess.obj
 0002:00024f50       ??$_Copy_memmove@PAEPAE@std@@YAPAEPAE00@Z 005a0f50 f i MagicProcess.obj
 0002:00024fd0       ??$_Debug_lt_pred@U?$less@E@std@@ABEABE@std@@YA_NU?$less@E@0@ABE1PB_WI@Z 005a0fd0 f i MagicProcess.obj
 0002:000250a0       ??$_Debug_lt_pred@U?$less@I@std@@ABIABI@std@@YA_NU?$less@I@0@ABI1PB_WI@Z 005a10a0 f i MagicProcess.obj
 0002:00025170       ??$_Destroy_range@U?$_Wrap_alloc@V?$allocator@E@std@@@std@@@std@@YAXPAE0AAU?$_Wrap_alloc@V?$allocator@E@std@@@0@@Z 005a1170 f i MagicProcess.obj
 0002:000251f0       ??$_Kfn@$$CBEU_BUFF_TYPE4_INFO@@@?$_Tmap_traits@EU_BUFF_TYPE4_INFO@@U?$less@E@std@@V?$allocator@U?$pair@$$CBEU_BUFF_TYPE4_INFO@@@std@@@3@$0A@@std@@SAABEABU?$pair@$$CBEU_BUFF_TYPE4_INFO@@@1@@Z 005a11f0 f i MagicProcess.obj
 0002:00025230       ??$_Kfn@$$CBIPAU_MAGIC_TABLE@@@?$_Tmap_traits@IPAU_MAGIC_TABLE@@U?$less@I@std@@V?$allocator@U?$pair@$$CBIPAU_MAGIC_TABLE@@@std@@@3@$0A@@std@@SAABIABU?$pair@$$CBIPAU_MAGIC_TABLE@@@1@@Z 005a1230 f i MagicProcess.obj
 0002:00025270       ??$_Kfn@$$CBIPAU_MAGIC_TYPE4@@@?$_Tmap_traits@IPAU_MAGIC_TYPE4@@U?$less@I@std@@V?$allocator@U?$pair@$$CBIPAU_MAGIC_TYPE4@@@std@@@3@$0A@@std@@SAABIABU?$pair@$$CBIPAU_MAGIC_TYPE4@@@1@@Z 005a1270 f i MagicProcess.obj
 0002:000252b0       ??$_Lbound@E@?$_Tree@V?$_Tmap_traits@EU_BUFF_TYPE4_INFO@@U?$less@E@std@@V?$allocator@U?$pair@$$CBEU_BUFF_TYPE4_INFO@@@std@@@3@$0A@@std@@@std@@IBEPAU?$_Tree_node@U?$pair@$$CBEU_BUFF_TYPE4_INFO@@@std@@PAX@1@ABE@Z 005a12b0 f i MagicProcess.obj
 0002:000253a0       ??$_Lbound@I@?$_Tree@V?$_Tmap_traits@IPAU_MAGIC_TABLE@@U?$less@I@std@@V?$allocator@U?$pair@$$CBIPAU_MAGIC_TABLE@@@std@@@3@$0A@@std@@@std@@IBEPAU?$_Tree_node@U?$pair@$$CBIPAU_MAGIC_TABLE@@@std@@PAX@1@ABI@Z 005a13a0 f i MagicProcess.obj
 0002:00025490       ??$_Lbound@I@?$_Tree@V?$_Tmap_traits@IPAU_MAGIC_TYPE4@@U?$less@I@std@@V?$allocator@U?$pair@$$CBIPAU_MAGIC_TYPE4@@@std@@@3@$0A@@std@@@std@@IBEPAU?$_Tree_node@U?$pair@$$CBIPAU_MAGIC_TYPE4@@@std@@PAX@1@ABI@Z 005a1490 f i MagicProcess.obj
 0002:00025580       ??$_Ptr_move_cat@EE@std@@YA?AU_Really_trivial_ptr_iterator_tag@0@ABQAE0@Z 005a1580 f i MagicProcess.obj
 0002:000255c0       ??$_Rechecked@PAEPAE@std@@YAAAPAEAAPAEPAE@Z 005a15c0 f i MagicProcess.obj
 0002:00025600       ??$_Umove@PAE@?$vector@EV?$allocator@E@std@@@std@@IAEPAEPAE00@Z 005a1600 f i MagicProcess.obj
 0002:00025670       ??$_Unchecked@PAE@std@@YAPAEPAE@Z 005a1670 f i MagicProcess.obj
 0002:000256b0       ??$_Uninitialized_default_fill_n1@PAEI@std@@YAXPAEIAAU?$_Wrap_alloc@V?$allocator@E@std@@@0@U?$integral_constant@_N$00@0@@Z 005a16b0 f i MagicProcess.obj
 0002:00025710       ??$_Uninitialized_default_fill_n@PAEIU?$_Wrap_alloc@V?$allocator@E@std@@@std@@@std@@YAXPAEIAAU?$_Wrap_alloc@V?$allocator@E@std@@@0@@Z 005a1710 f i MagicProcess.obj
 0002:00025780       ??$_Uninitialized_move@PAEPAEU?$_Wrap_alloc@V?$allocator@E@std@@@std@@@std@@YAPAEPAE00AAU?$_Wrap_alloc@V?$allocator@E@std@@@0@@Z 005a1780 f i MagicProcess.obj
 0002:00025820       ??$_Uninitialized_move_al_unchecked1@EE@std@@YAPAEPAE00AAU?$_Wrap_alloc@V?$allocator@E@std@@@0@U_Really_trivial_ptr_iterator_tag@0@@Z 005a1820 f i MagicProcess.obj
 0002:00025880       ??$_Uninitialized_move_al_unchecked@PAEPAEU?$_Wrap_alloc@V?$allocator@E@std@@@std@@@std@@YAPAEPAE00AAU?$_Wrap_alloc@V?$allocator@E@std@@@0@@Z 005a1880 f i MagicProcess.obj
 0002:00025900       ??$__vcrt_va_start_verify_argument_type@QBD@@YAXXZ 005a1900 f i MagicProcess.obj
 0002:00025930       ??$addressof@E@std@@YAPAEAAE@Z 005a1930 f i MagicProcess.obj
 0002:00025990       ??$addressof@U?$pair@$$CBEU_BUFF_TYPE4_INFO@@@std@@@std@@YAPAU?$pair@$$CBEU_BUFF_TYPE4_INFO@@@0@AAU10@@Z 005a1990 f i MagicProcess.obj
 0002:000259f0       ??$addressof@U?$pair@$$CBIPAU_MAGIC_TABLE@@@std@@@std@@YAPAU?$pair@$$CBIPAU_MAGIC_TABLE@@@0@AAU10@@Z 005a19f0 f i MagicProcess.obj
 0002:00025a50       ??$addressof@U?$pair@$$CBIPAU_MAGIC_TYPE4@@@std@@@std@@YAPAU?$pair@$$CBIPAU_MAGIC_TYPE4@@@0@AAU10@@Z 005a1a50 f i MagicProcess.obj
 0002:00025ab0       ??$append@E@ByteBuffer@@QAEXE@Z 005a1ab0 f i MagicProcess.obj
 0002:00025b10       ??$construct@U_Container_proxy@std@@U12@@?$_Wrap_alloc@V?$allocator@U_Container_proxy@std@@@std@@@std@@QAEXPAU_Container_proxy@1@$$QAU21@@Z 005a1b10 f i MagicProcess.obj
 0002:00025b80       ??$construct@U_Container_proxy@std@@U12@@?$allocator@U_Container_proxy@std@@@std@@QAEXPAU_Container_proxy@1@$$QAU21@@Z 005a1b80 f i MagicProcess.obj
 0002:00025c30       ??$construct@U_Container_proxy@std@@U12@@?$allocator_traits@V?$allocator@U_Container_proxy@std@@@std@@@std@@SAXAAV?$allocator@U_Container_proxy@std@@@1@PAU_Container_proxy@1@$$QAU31@@Z 005a1c30 f i MagicProcess.obj
 0002:00025c90       ??$destroy@E@?$_Wrap_alloc@V?$allocator@E@std@@@std@@QAEXPAE@Z 005a1c90 f i MagicProcess.obj
 0002:00025cf0       ??$destroy@E@?$allocator@E@std@@QAEXPAE@Z 005a1cf0 f i MagicProcess.obj
 0002:00025d30       ??$destroy@E@?$allocator_traits@V?$allocator@E@std@@@std@@SAXAAV?$allocator@E@1@PAE@Z 005a1d30 f i MagicProcess.obj
 0002:00025d80       ??$destroy@U?$pair@$$CBEU_BUFF_TYPE4_INFO@@@std@@@?$_Wrap_alloc@V?$allocator@U?$_Tree_node@U?$pair@$$CBEU_BUFF_TYPE4_INFO@@@std@@PAX@std@@@std@@@std@@QAEXPAU?$pair@$$CBEU_BUFF_TYPE4_INFO@@@1@@Z 005a1d80 f i MagicProcess.obj
 0002:00025de0       ??$destroy@U?$pair@$$CBEU_BUFF_TYPE4_INFO@@@std@@@?$allocator@U?$_Tree_node@U?$pair@$$CBEU_BUFF_TYPE4_INFO@@@std@@PAX@std@@@std@@QAEXPAU?$pair@$$CBEU_BUFF_TYPE4_INFO@@@1@@Z 005a1de0 f i MagicProcess.obj
 0002:00025e20       ??$destroy@U?$pair@$$CBEU_BUFF_TYPE4_INFO@@@std@@@?$allocator_traits@V?$allocator@U?$_Tree_node@U?$pair@$$CBEU_BUFF_TYPE4_INFO@@@std@@PAX@std@@@std@@@std@@SAXAAV?$allocator@U?$_Tree_node@U?$pair@$$CBEU_BUFF_TYPE4_INFO@@@std@@PAX@std@@@1@PAU?$pair@$$CBEU_BUFF_TYPE4_INFO@@@1@@Z 005a1e20 f i MagicProcess.obj
 0002:00025e70       ??$destroy@U_Container_proxy@std@@@?$_Wrap_alloc@V?$allocator@U_Container_proxy@std@@@std@@@std@@QAEXPAU_Container_proxy@1@@Z 005a1e70 f i MagicProcess.obj
 0002:00025ed0       ??$destroy@U_Container_proxy@std@@@?$allocator@U_Container_proxy@std@@@std@@QAEXPAU_Container_proxy@1@@Z 005a1ed0 f i MagicProcess.obj
 0002:00025f10       ??$destroy@U_Container_proxy@std@@@?$allocator_traits@V?$allocator@U_Container_proxy@std@@@std@@@std@@SAXAAV?$allocator@U_Container_proxy@std@@@1@PAU_Container_proxy@1@@Z 005a1f10 f i MagicProcess.obj
 0002:00025f60       ??$forward@AAU?$_Wrap_alloc@V?$allocator@E@std@@@std@@@std@@YAAAU?$_Wrap_alloc@V?$allocator@E@std@@@0@AAU10@@Z 005a1f60 f i MagicProcess.obj
 0002:00025fa0       ??$forward@U_Container_proxy@std@@@std@@YA$$QAU_Container_proxy@0@AAU10@@Z 005a1fa0 f i MagicProcess.obj
 0002:00025fe0       ??$move@AAD@std@@YA$$QADAAD@Z 005a1fe0 f i MagicProcess.obj
 0002:00026020       ??$read@D@ByteBuffer@@QAEDXZ 005a2020 f i MagicProcess.obj
 0002:000260a0       ??$read@D@ByteBuffer@@QBEDI@Z 005a20a0 f i MagicProcess.obj
 0002:00026120       ??$read@E@ByteBuffer@@QAEEXZ 005a2120 f i MagicProcess.obj
 0002:000261a0       ??$read@E@ByteBuffer@@QBEEI@Z 005a21a0 f i MagicProcess.obj
 0002:00026220       ??$read@G@ByteBuffer@@QAEGXZ 005a2220 f i MagicProcess.obj
 0002:000262a0       ??$read@G@ByteBuffer@@QBEGI@Z 005a22a0 f i MagicProcess.obj
 0002:00026320       ??$read@I@ByteBuffer@@QAEIXZ 005a2320 f i MagicProcess.obj
 0002:000263a0       ??$read@I@ByteBuffer@@QBEII@Z 005a23a0 f i MagicProcess.obj
 0002:00026420       ??$swap@D@std@@YAXAAD0@Z   005a2420 f i MagicProcess.obj
 0002:000264e0       ??0?$_Iterator012@Ubidirectional_iterator_tag@std@@U?$pair@$$CBEU_BUFF_TYPE4_INFO@@@2@HPBU32@ABU32@U_Iterator_base12@2@@std@@QAE@$$QAU01@@Z 005a24e0 f i MagicProcess.obj
 0002:00026540       ??0?$_Iterator012@Ubidirectional_iterator_tag@std@@U?$pair@$$CBEU_BUFF_TYPE4_INFO@@@2@HPBU32@ABU32@U_Iterator_base12@2@@std@@QAE@ABU01@@Z 005a2540 f i MagicProcess.obj
 0002:000265a0       ??0?$_Iterator012@Ubidirectional_iterator_tag@std@@U?$pair@$$CBEU_BUFF_TYPE4_INFO@@@2@HPBU32@ABU32@U_Iterator_base12@2@@std@@QAE@XZ 005a25a0 f i MagicProcess.obj
 0002:00026600       ??0?$_Iterator012@Ubidirectional_iterator_tag@std@@U?$pair@$$CBIPAU_MAGIC_TABLE@@@2@HPBU32@ABU32@U_Iterator_base12@2@@std@@QAE@$$QAU01@@Z 005a2600 f i MagicProcess.obj
 0002:00026660       ??0?$_Iterator012@Ubidirectional_iterator_tag@std@@U?$pair@$$CBIPAU_MAGIC_TABLE@@@2@HPBU32@ABU32@U_Iterator_base12@2@@std@@QAE@ABU01@@Z 005a2660 f i MagicProcess.obj
 0002:000266c0       ??0?$_Iterator012@Ubidirectional_iterator_tag@std@@U?$pair@$$CBIPAU_MAGIC_TABLE@@@2@HPBU32@ABU32@U_Iterator_base12@2@@std@@QAE@XZ 005a26c0 f i MagicProcess.obj
 0002:00026720       ??0?$_Iterator012@Ubidirectional_iterator_tag@std@@U?$pair@$$CBIPAU_MAGIC_TYPE4@@@2@HPBU32@ABU32@U_Iterator_base12@2@@std@@QAE@$$QAU01@@Z 005a2720 f i MagicProcess.obj
 0002:00026780       ??0?$_Iterator012@Ubidirectional_iterator_tag@std@@U?$pair@$$CBIPAU_MAGIC_TYPE4@@@2@HPBU32@ABU32@U_Iterator_base12@2@@std@@QAE@ABU01@@Z 005a2780 f i MagicProcess.obj
 0002:000267e0       ??0?$_Iterator012@Ubidirectional_iterator_tag@std@@U?$pair@$$CBIPAU_MAGIC_TYPE4@@@2@HPBU32@ABU32@U_Iterator_base12@2@@std@@QAE@XZ 005a27e0 f i MagicProcess.obj
 0002:00026840       ??0?$_Tree_const_iterator@V?$_Tree_val@U?$_Tree_simple_types@U?$pair@$$CBEU_BUFF_TYPE4_INFO@@@std@@@std@@@std@@@std@@QAE@$$QAV01@@Z 005a2840 f i MagicProcess.obj
 0002:000268a0       ??0?$_Tree_const_iterator@V?$_Tree_val@U?$_Tree_simple_types@U?$pair@$$CBEU_BUFF_TYPE4_INFO@@@std@@@std@@@std@@@std@@QAE@ABV01@@Z 005a28a0 f i MagicProcess.obj
 0002:00026900       ??0?$_Tree_const_iterator@V?$_Tree_val@U?$_Tree_simple_types@U?$pair@$$CBEU_BUFF_TYPE4_INFO@@@std@@@std@@@std@@@std@@QAE@PAU?$_Tree_node@U?$pair@$$CBEU_BUFF_TYPE4_INFO@@@std@@PAX@1@PBV?$_Tree_val@U?$_Tree_simple_types@U?$pair@$$CBEU_BUFF_TYPE4_INFO@@@std@@@std@@@1@@Z 005a2900 f i MagicProcess.obj
 0002:00026960       ??0?$_Tree_const_iterator@V?$_Tree_val@U?$_Tree_simple_types@U?$pair@$$CBIPAU_MAGIC_TABLE@@@std@@@std@@@std@@@std@@QAE@$$QAV01@@Z 005a2960 f i MagicProcess.obj
 0002:000269c0       ??0?$_Tree_const_iterator@V?$_Tree_val@U?$_Tree_simple_types@U?$pair@$$CBIPAU_MAGIC_TABLE@@@std@@@std@@@std@@@std@@QAE@ABV01@@Z 005a29c0 f i MagicProcess.obj
 0002:00026a20       ??0?$_Tree_const_iterator@V?$_Tree_val@U?$_Tree_simple_types@U?$pair@$$CBIPAU_MAGIC_TABLE@@@std@@@std@@@std@@@std@@QAE@PAU?$_Tree_node@U?$pair@$$CBIPAU_MAGIC_TABLE@@@std@@PAX@1@PBV?$_Tree_val@U?$_Tree_simple_types@U?$pair@$$CBIPAU_MAGIC_TABLE@@@std@@@std@@@1@@Z 005a2a20 f i MagicProcess.obj
 0002:00026a80       ??0?$_Tree_const_iterator@V?$_Tree_val@U?$_Tree_simple_types@U?$pair@$$CBIPAU_MAGIC_TYPE4@@@std@@@std@@@std@@@std@@QAE@$$QAV01@@Z 005a2a80 f i MagicProcess.obj
 0002:00026ae0       ??0?$_Tree_const_iterator@V?$_Tree_val@U?$_Tree_simple_types@U?$pair@$$CBIPAU_MAGIC_TYPE4@@@std@@@std@@@std@@@std@@QAE@ABV01@@Z 005a2ae0 f i MagicProcess.obj
 0002:00026b40       ??0?$_Tree_const_iterator@V?$_Tree_val@U?$_Tree_simple_types@U?$pair@$$CBIPAU_MAGIC_TYPE4@@@std@@@std@@@std@@@std@@QAE@PAU?$_Tree_node@U?$pair@$$CBIPAU_MAGIC_TYPE4@@@std@@PAX@1@PBV?$_Tree_val@U?$_Tree_simple_types@U?$pair@$$CBIPAU_MAGIC_TYPE4@@@std@@@std@@@1@@Z 005a2b40 f i MagicProcess.obj
 0002:00026ba0       ??0?$_Tree_iterator@V?$_Tree_val@U?$_Tree_simple_types@U?$pair@$$CBEU_BUFF_TYPE4_INFO@@@std@@@std@@@std@@@std@@QAE@$$QAV01@@Z 005a2ba0 f i MagicProcess.obj
 0002:00026c00       ??0?$_Tree_iterator@V?$_Tree_val@U?$_Tree_simple_types@U?$pair@$$CBEU_BUFF_TYPE4_INFO@@@std@@@std@@@std@@@std@@QAE@ABV01@@Z 005a2c00 f i MagicProcess.obj
 0002:00026c60       ??0?$_Tree_iterator@V?$_Tree_val@U?$_Tree_simple_types@U?$pair@$$CBEU_BUFF_TYPE4_INFO@@@std@@@std@@@std@@@std@@QAE@PAU?$_Tree_node@U?$pair@$$CBEU_BUFF_TYPE4_INFO@@@std@@PAX@1@PBV?$_Tree_val@U?$_Tree_simple_types@U?$pair@$$CBEU_BUFF_TYPE4_INFO@@@std@@@std@@@1@@Z 005a2c60 f i MagicProcess.obj
 0002:00026cc0       ??0?$_Tree_iterator@V?$_Tree_val@U?$_Tree_simple_types@U?$pair@$$CBIPAU_MAGIC_TABLE@@@std@@@std@@@std@@@std@@QAE@$$QAV01@@Z 005a2cc0 f i MagicProcess.obj
 0002:00026d20       ??0?$_Tree_iterator@V?$_Tree_val@U?$_Tree_simple_types@U?$pair@$$CBIPAU_MAGIC_TABLE@@@std@@@std@@@std@@@std@@QAE@ABV01@@Z 005a2d20 f i MagicProcess.obj
 0002:00026d80       ??0?$_Tree_iterator@V?$_Tree_val@U?$_Tree_simple_types@U?$pair@$$CBIPAU_MAGIC_TABLE@@@std@@@std@@@std@@@std@@QAE@PAU?$_Tree_node@U?$pair@$$CBIPAU_MAGIC_TABLE@@@std@@PAX@1@PBV?$_Tree_val@U?$_Tree_simple_types@U?$pair@$$CBIPAU_MAGIC_TABLE@@@std@@@std@@@1@@Z 005a2d80 f i MagicProcess.obj
 0002:00026de0       ??0?$_Tree_iterator@V?$_Tree_val@U?$_Tree_simple_types@U?$pair@$$CBIPAU_MAGIC_TYPE4@@@std@@@std@@@std@@@std@@QAE@$$QAV01@@Z 005a2de0 f i MagicProcess.obj
 0002:00026e40       ??0?$_Tree_iterator@V?$_Tree_val@U?$_Tree_simple_types@U?$pair@$$CBIPAU_MAGIC_TYPE4@@@std@@@std@@@std@@@std@@QAE@ABV01@@Z 005a2e40 f i MagicProcess.obj
 0002:00026ea0       ??0?$_Tree_iterator@V?$_Tree_val@U?$_Tree_simple_types@U?$pair@$$CBIPAU_MAGIC_TYPE4@@@std@@@std@@@std@@@std@@QAE@PAU?$_Tree_node@U?$pair@$$CBIPAU_MAGIC_TYPE4@@@std@@PAX@1@PBV?$_Tree_val@U?$_Tree_simple_types@U?$pair@$$CBIPAU_MAGIC_TYPE4@@@std@@@std@@@1@@Z 005a2ea0 f i MagicProcess.obj
 0002:00026f00       ??0?$_Tree_unchecked_const_iterator@V?$_Tree_val@U?$_Tree_simple_types@U?$pair@$$CBEU_BUFF_TYPE4_INFO@@@std@@@std@@@std@@U_Iterator_base12@2@@std@@QAE@$$QAV01@@Z 005a2f00 f i MagicProcess.obj
 0002:00026f70       ??0?$_Tree_unchecked_const_iterator@V?$_Tree_val@U?$_Tree_simple_types@U?$pair@$$CBEU_BUFF_TYPE4_INFO@@@std@@@std@@@std@@U_Iterator_base12@2@@std@@QAE@ABV01@@Z 005a2f70 f i MagicProcess.obj
 0002:00026fe0       ??0?$_Tree_unchecked_const_iterator@V?$_Tree_val@U?$_Tree_simple_types@U?$pair@$$CBEU_BUFF_TYPE4_INFO@@@std@@@std@@@std@@U_Iterator_base12@2@@std@@QAE@PAU?$_Tree_node@U?$pair@$$CBEU_BUFF_TYPE4_INFO@@@std@@PAX@1@PBV?$_Tree_val@U?$_Tree_simple_types@U?$pair@$$CBEU_BUFF_TYPE4_INFO@@@std@@@std@@@1@@Z 005a2fe0 f i MagicProcess.obj
 0002:000270a0       ??0?$_Tree_unchecked_const_iterator@V?$_Tree_val@U?$_Tree_simple_types@U?$pair@$$CBIPAU_MAGIC_TABLE@@@std@@@std@@@std@@U_Iterator_base12@2@@std@@QAE@$$QAV01@@Z 005a30a0 f i MagicProcess.obj
 0002:00027110       ??0?$_Tree_unchecked_const_iterator@V?$_Tree_val@U?$_Tree_simple_types@U?$pair@$$CBIPAU_MAGIC_TABLE@@@std@@@std@@@std@@U_Iterator_base12@2@@std@@QAE@ABV01@@Z 005a3110 f i MagicProcess.obj
 0002:00027180       ??0?$_Tree_unchecked_const_iterator@V?$_Tree_val@U?$_Tree_simple_types@U?$pair@$$CBIPAU_MAGIC_TABLE@@@std@@@std@@@std@@U_Iterator_base12@2@@std@@QAE@PAU?$_Tree_node@U?$pair@$$CBIPAU_MAGIC_TABLE@@@std@@PAX@1@PBV?$_Tree_val@U?$_Tree_simple_types@U?$pair@$$CBIPAU_MAGIC_TABLE@@@std@@@std@@@1@@Z 005a3180 f i MagicProcess.obj
 0002:00027240       ??0?$_Tree_unchecked_const_iterator@V?$_Tree_val@U?$_Tree_simple_types@U?$pair@$$CBIPAU_MAGIC_TYPE4@@@std@@@std@@@std@@U_Iterator_base12@2@@std@@QAE@$$QAV01@@Z 005a3240 f i MagicProcess.obj
 0002:000272b0       ??0?$_Tree_unchecked_const_iterator@V?$_Tree_val@U?$_Tree_simple_types@U?$pair@$$CBIPAU_MAGIC_TYPE4@@@std@@@std@@@std@@U_Iterator_base12@2@@std@@QAE@ABV01@@Z 005a32b0 f i MagicProcess.obj
 0002:00027320       ??0?$_Tree_unchecked_const_iterator@V?$_Tree_val@U?$_Tree_simple_types@U?$pair@$$CBIPAU_MAGIC_TYPE4@@@std@@@std@@@std@@U_Iterator_base12@2@@std@@QAE@PAU?$_Tree_node@U?$pair@$$CBIPAU_MAGIC_TYPE4@@@std@@PAX@1@PBV?$_Tree_val@U?$_Tree_simple_types@U?$pair@$$CBIPAU_MAGIC_TYPE4@@@std@@@std@@@1@@Z 005a3320 f i MagicProcess.obj
 0002:000273e0       ??0?$_Vector_alloc@U?$_Vec_base_types@EV?$allocator@E@std@@@std@@@std@@QAE@XZ 005a33e0 f i MagicProcess.obj
 0002:00027490       ??0?$_Vector_val@U?$_Simple_types@E@std@@@std@@QAE@XZ 005a3490 f i MagicProcess.obj
 0002:00027510       ??0?$_Wrap_alloc@V?$allocator@E@std@@@std@@QAE@XZ 005a3510 f i MagicProcess.obj
 0002:00027570       ??0?$allocator@E@std@@QAE@XZ 005a3570 f i MagicProcess.obj
 0002:000275b0       ??0?$vector@EV?$allocator@E@std@@@std@@QAE@XZ 005a35b0 f i MagicProcess.obj
 0002:00027640       ??0ByteBuffer@@QAE@XZ      005a3640 f i MagicProcess.obj
 0002:00027720       ??0Guard@@QAE@AAVrecursive_mutex@std@@@Z 005a3720 f i MagicProcess.obj
 0002:00027790       ??0Packet@@QAE@EE@Z        005a3790 f i MagicProcess.obj
 0002:00027860       ??0_BUFF_TYPE4_INFO@@QAE@XZ 005a3860 f i MagicProcess.obj
 0002:000278e0       ??0_Container_base12@std@@QAE@XZ 005a38e0 f i MagicProcess.obj
 0002:00027930       ??0_Container_proxy@std@@QAE@XZ 005a3930 f i MagicProcess.obj
 0002:00027980       ??0_Iterator_base12@std@@QAE@ABU01@@Z 005a3980 f i MagicProcess.obj
 0002:00027a00       ??0_Iterator_base12@std@@QAE@XZ 005a3a00 f i MagicProcess.obj
 0002:00027a50       ??1?$_Compressed_pair@U?$_Wrap_alloc@V?$allocator@E@std@@@std@@V?$_Vector_val@U?$_Simple_types@E@std@@@2@$00@std@@QAE@XZ 005a3a50 f i MagicProcess.obj
 0002:00027aa0       ??1?$_Iterator012@Ubidirectional_iterator_tag@std@@U?$pair@$$CBEU_BUFF_TYPE4_INFO@@@2@HPBU32@ABU32@U_Iterator_base12@2@@std@@QAE@XZ 005a3aa0 f i MagicProcess.obj
 0002:00027af0       ??1?$_Iterator012@Ubidirectional_iterator_tag@std@@U?$pair@$$CBIPAU_MAGIC_TABLE@@@2@HPBU32@ABU32@U_Iterator_base12@2@@std@@QAE@XZ 005a3af0 f i MagicProcess.obj
 0002:00027b40       ??1?$_Iterator012@Ubidirectional_iterator_tag@std@@U?$pair@$$CBIPAU_MAGIC_TYPE4@@@2@HPBU32@ABU32@U_Iterator_base12@2@@std@@QAE@XZ 005a3b40 f i MagicProcess.obj
 0002:00027b90       ??1?$_Tree_const_iterator@V?$_Tree_val@U?$_Tree_simple_types@U?$pair@$$CBEU_BUFF_TYPE4_INFO@@@std@@@std@@@std@@@std@@QAE@XZ 005a3b90 f i MagicProcess.obj
 0002:00027be0       ??1?$_Tree_const_iterator@V?$_Tree_val@U?$_Tree_simple_types@U?$pair@$$CBIPAU_MAGIC_TABLE@@@std@@@std@@@std@@@std@@QAE@XZ 005a3be0 f i MagicProcess.obj
 0002:00027c30       ??1?$_Tree_const_iterator@V?$_Tree_val@U?$_Tree_simple_types@U?$pair@$$CBIPAU_MAGIC_TYPE4@@@std@@@std@@@std@@@std@@QAE@XZ 005a3c30 f i MagicProcess.obj
 0002:00027c80       ??1?$_Tree_iterator@V?$_Tree_val@U?$_Tree_simple_types@U?$pair@$$CBEU_BUFF_TYPE4_INFO@@@std@@@std@@@std@@@std@@QAE@XZ 005a3c80 f i MagicProcess.obj
 0002:00027cd0       ??1?$_Tree_iterator@V?$_Tree_val@U?$_Tree_simple_types@U?$pair@$$CBIPAU_MAGIC_TABLE@@@std@@@std@@@std@@@std@@QAE@XZ 005a3cd0 f i MagicProcess.obj
 0002:00027d20       ??1?$_Tree_iterator@V?$_Tree_val@U?$_Tree_simple_types@U?$pair@$$CBIPAU_MAGIC_TYPE4@@@std@@@std@@@std@@@std@@QAE@XZ 005a3d20 f i MagicProcess.obj
 0002:00027d70       ??1?$_Tree_unchecked_const_iterator@V?$_Tree_val@U?$_Tree_simple_types@U?$pair@$$CBEU_BUFF_TYPE4_INFO@@@std@@@std@@@std@@U_Iterator_base12@2@@std@@QAE@XZ 005a3d70 f i MagicProcess.obj
 0002:00027dc0       ??1?$_Tree_unchecked_const_iterator@V?$_Tree_val@U?$_Tree_simple_types@U?$pair@$$CBIPAU_MAGIC_TABLE@@@std@@@std@@@std@@U_Iterator_base12@2@@std@@QAE@XZ 005a3dc0 f i MagicProcess.obj
 0002:00027e10       ??1?$_Tree_unchecked_const_iterator@V?$_Tree_val@U?$_Tree_simple_types@U?$pair@$$CBIPAU_MAGIC_TYPE4@@@std@@@std@@@std@@U_Iterator_base12@2@@std@@QAE@XZ 005a3e10 f i MagicProcess.obj
 0002:00027e60       ??1?$_Vector_alloc@U?$_Vec_base_types@EV?$allocator@E@std@@@std@@@std@@QAE@XZ 005a3e60 f i MagicProcess.obj
 0002:00027ef0       ??1?$_Vector_val@U?$_Simple_types@E@std@@@std@@QAE@XZ 005a3ef0 f i MagicProcess.obj
 0002:00027f40       ??1?$vector@EV?$allocator@E@std@@@std@@QAE@XZ 005a3f40 f i MagicProcess.obj
 0002:00027fd0       ??1ByteBuffer@@UAE@XZ      005a3fd0 f i MagicProcess.obj
 0002:00028030       ??1Guard@@QAE@XZ           005a4030 f i MagicProcess.obj
 0002:000280c0       ??1Packet@@UAE@XZ          005a40c0 f i MagicProcess.obj
 0002:00028110       ??1_Container_base12@std@@QAE@XZ 005a4110 f i MagicProcess.obj
 0002:000281a0       ??1_Iterator_base12@std@@QAE@XZ 005a41a0 f i MagicProcess.obj
 0002:00028270       ??2@YAPAXIPAX@Z            005a4270 f i MagicProcess.obj
 0002:000282b0       ??4_Iterator_base12@std@@QAEAAU01@ABU01@@Z 005a42b0 f i MagicProcess.obj
 0002:000283d0       ??5ByteBuffer@@QAEAAV0@AAE@Z 005a43d0 f i MagicProcess.obj
 0002:00028430       ??5ByteBuffer@@QAEAAV0@AAG@Z 005a4430 f i MagicProcess.obj
 0002:00028490       ??5ByteBuffer@@QAEAAV0@AAI@Z 005a4490 f i MagicProcess.obj
 0002:000284f0       ??5ByteBuffer@@QAEAAV0@AA_N@Z 005a44f0 f i MagicProcess.obj
 0002:00028570       ??6ByteBuffer@@QAEAAV0@E@Z 005a4570 f i MagicProcess.obj
 0002:000285d0       ??8?$_Tree_const_iterator@V?$_Tree_val@U?$_Tree_simple_types@U?$pair@$$CBEU_BUFF_TYPE4_INFO@@@std@@@std@@@std@@@std@@QBE_NABV01@@Z 005a45d0 f i MagicProcess.obj
 0002:000286f0       ??8?$_Tree_const_iterator@V?$_Tree_val@U?$_Tree_simple_types@U?$pair@$$CBIPAU_MAGIC_TABLE@@@std@@@std@@@std@@@std@@QBE_NABV01@@Z 005a46f0 f i MagicProcess.obj
 0002:00028810       ??8?$_Tree_const_iterator@V?$_Tree_val@U?$_Tree_simple_types@U?$pair@$$CBIPAU_MAGIC_TYPE4@@@std@@@std@@@std@@@std@@QBE_NABV01@@Z 005a4810 f i MagicProcess.obj
 0002:00028930       ??9?$_Tree_const_iterator@V?$_Tree_val@U?$_Tree_simple_types@U?$pair@$$CBEU_BUFF_TYPE4_INFO@@@std@@@std@@@std@@@std@@QBE_NABV01@@Z 005a4930 f i MagicProcess.obj
 0002:000289c0       ??9?$_Tree_const_iterator@V?$_Tree_val@U?$_Tree_simple_types@U?$pair@$$CBIPAU_MAGIC_TABLE@@@std@@@std@@@std@@@std@@QBE_NABV01@@Z 005a49c0 f i MagicProcess.obj
 0002:00028a50       ??9?$_Tree_const_iterator@V?$_Tree_val@U?$_Tree_simple_types@U?$pair@$$CBIPAU_MAGIC_TYPE4@@@std@@@std@@@std@@@std@@QBE_NABV01@@Z 005a4a50 f i MagicProcess.obj
 0002:00028ae0       ??A?$vector@EV?$allocator@E@std@@@std@@QAEAAEI@Z 005a4ae0 f i MagicProcess.obj
 0002:00028bd0       ??A?$vector@EV?$allocator@E@std@@@std@@QBEABEI@Z 005a4bd0 f i MagicProcess.obj
 0002:00028cc0       ??C?$_Tree_iterator@V?$_Tree_val@U?$_Tree_simple_types@U?$pair@$$CBEU_BUFF_TYPE4_INFO@@@std@@@std@@@std@@@std@@QBEPAU?$pair@$$CBEU_BUFF_TYPE4_INFO@@@1@XZ 005a4cc0 f i MagicProcess.obj
 0002:00028d20       ??C?$_Tree_iterator@V?$_Tree_val@U?$_Tree_simple_types@U?$pair@$$CBIPAU_MAGIC_TABLE@@@std@@@std@@@std@@@std@@QBEPAU?$pair@$$CBIPAU_MAGIC_TABLE@@@1@XZ 005a4d20 f i MagicProcess.obj
 0002:00028d80       ??C?$_Tree_iterator@V?$_Tree_val@U?$_Tree_simple_types@U?$pair@$$CBIPAU_MAGIC_TYPE4@@@std@@@std@@@std@@@std@@QBEPAU?$pair@$$CBIPAU_MAGIC_TYPE4@@@1@XZ 005a4d80 f i MagicProcess.obj
 0002:00028de0       ??D?$_Tree_const_iterator@V?$_Tree_val@U?$_Tree_simple_types@U?$pair@$$CBEU_BUFF_TYPE4_INFO@@@std@@@std@@@std@@@std@@QBEABU?$pair@$$CBEU_BUFF_TYPE4_INFO@@@1@XZ 005a4de0 f i MagicProcess.obj
 0002:00028ef0       ??D?$_Tree_const_iterator@V?$_Tree_val@U?$_Tree_simple_types@U?$pair@$$CBIPAU_MAGIC_TABLE@@@std@@@std@@@std@@@std@@QBEABU?$pair@$$CBIPAU_MAGIC_TABLE@@@1@XZ 005a4ef0 f i MagicProcess.obj
 0002:00029000       ??D?$_Tree_const_iterator@V?$_Tree_val@U?$_Tree_simple_types@U?$pair@$$CBIPAU_MAGIC_TYPE4@@@std@@@std@@@std@@@std@@QBEABU?$pair@$$CBIPAU_MAGIC_TYPE4@@@1@XZ 005a5000 f i MagicProcess.obj
 0002:00029110       ??D?$_Tree_iterator@V?$_Tree_val@U?$_Tree_simple_types@U?$pair@$$CBEU_BUFF_TYPE4_INFO@@@std@@@std@@@std@@@std@@QBEAAU?$pair@$$CBEU_BUFF_TYPE4_INFO@@@1@XZ 005a5110 f i MagicProcess.obj
 0002:00029160       ??D?$_Tree_iterator@V?$_Tree_val@U?$_Tree_simple_types@U?$pair@$$CBIPAU_MAGIC_TABLE@@@std@@@std@@@std@@@std@@QBEAAU?$pair@$$CBIPAU_MAGIC_TABLE@@@1@XZ 005a5160 f i MagicProcess.obj
 0002:000291b0       ??D?$_Tree_iterator@V?$_Tree_val@U?$_Tree_simple_types@U?$pair@$$CBIPAU_MAGIC_TYPE4@@@std@@@std@@@std@@@std@@QBEAAU?$pair@$$CBIPAU_MAGIC_TYPE4@@@1@XZ 005a51b0 f i MagicProcess.obj
 0002:00029200       ??E?$_Tree_const_iterator@V?$_Tree_val@U?$_Tree_simple_types@U?$pair@$$CBEU_BUFF_TYPE4_INFO@@@std@@@std@@@std@@@std@@QAEAAV01@XZ 005a5200 f i MagicProcess.obj
 0002:00029310       ??E?$_Tree_unchecked_const_iterator@V?$_Tree_val@U?$_Tree_simple_types@U?$pair@$$CBEU_BUFF_TYPE4_INFO@@@std@@@std@@@std@@U_Iterator_base12@2@@std@@QAEAAV01@XZ 005a5310 f i MagicProcess.obj
 0002:00029440       ??R?$less@E@std@@QBE_NABE0@Z 005a5440 f i MagicProcess.obj
 0002:000294b0       ??R?$less@I@std@@QBE_NABI0@Z 005a54b0 f i MagicProcess.obj
 0002:00029520       ??_EByteBuffer@@UAEPAXI@Z  005a5520 f i MagicProcess.obj
 0002:00029520       ??_GByteBuffer@@UAEPAXI@Z  005a5520 f i MagicProcess.obj
 0002:00029590       ??_EPacket@@UAEPAXI@Z      005a5590 f i MagicProcess.obj
 0002:00029590       ??_GPacket@@UAEPAXI@Z      005a5590 f i MagicProcess.obj
 0002:00029600       ?GetClanID@CUser@@QAEGXZ   005a5600 f i MagicProcess.obj
 0002:00029640       ?GetData@?$CSTLMap@U_MAGIC_TABLE@@@@QAEPAU_MAGIC_TABLE@@I@Z 005a5640 f i MagicProcess.obj
 0002:00029800       ?GetData@?$CSTLMap@U_MAGIC_TYPE4@@@@QAEPAU_MAGIC_TYPE4@@I@Z 005a5800 f i MagicProcess.obj
 0002:000299c0       ?GetMap@Unit@@QAEPAVMAP@@XZ 005a59c0 f i MagicProcess.obj
 0002:00029a00       ?GetPartyID@CUser@@QAEGXZ  005a5a00 f i MagicProcess.obj
 0002:00029a50       ?GetStat@CUser@@QAEEW4StatType@@@Z 005a5a50 f i MagicProcess.obj
 0002:00029a90       ?GetUnitType@Unit@@QAE?AW4UnitType@@XZ 005a5a90 f i MagicProcess.obj
 0002:00029ad0       ?GetZoneID@Unit@@QAEEXZ    005a5ad0 f i MagicProcess.obj
 0002:00029b10       ?GrantType4Buff@CMagicProcess@@SA_NPAU_MAGIC_TABLE@@PAU_MAGIC_TYPE4@@PAVUnit@@2_N@Z 005a5b10 f   MagicProcess.obj
 0002:0002aaa0       ?IsBuff@CMagicProcess@@SA_NPAU_MAGIC_TYPE4@@@Z 005a6aa0 f   MagicProcess.obj
 0002:0002b0b0       ?MagicPacket@CMagicProcess@@SAXAAVPacket@@PAVUnit@@@Z 005a70b0 f   MagicProcess.obj
 0002:0002b380       ?RemoveSavedMagic@CUser@@QAEXI@Z 005a7380 f i MagicProcess.obj
 0002:0002b3c0       ?RemoveType4Buff@CMagicProcess@@SA_NEPAVUnit@@_N1@Z 005a73c0 f   MagicProcess.obj
 0002:0002c270       ?Send@CUser@@QAEXPAVPacket@@@Z 005a8270 f i MagicProcess.obj
 0002:0002c2b0       ?SendUserStatusUpdate@CUser@@QAEXW4UserStatus@@W4UserStatusBehaviour@@@Z 005a82b0 f i MagicProcess.obj
 0002:0002c2f0       ?SetStatBuff@CUser@@QAEXW4StatType@@E@Z 005a82f0 f i MagicProcess.obj
 0002:0002c330       ?SetUserAbility@CUser@@QAEX_N@Z 005a8330 f i MagicProcess.obj
 0002:0002c370       ?UserRegionCheck@CMagicProcess@@SA_NPAVUnit@@0PAU_MAGIC_TABLE@@HFF@Z 005a8370 f   MagicProcess.obj
 0002:0002c920       ?_Adopt@_Iterator_base12@std@@QAEXPBU_Container_base12@2@@Z 005a8920 f i MagicProcess.obj
 0002:0002caa0       ?_Alloc_proxy@?$_Vector_alloc@U?$_Vec_base_types@EV?$allocator@E@std@@@std@@@std@@QAEXXZ 005a8aa0 f i MagicProcess.obj
 0002:0002cba0       ?_Allocate@std@@YAPAXII_N@Z 005a8ba0 f i MagicProcess.obj
 0002:0002cdb0       ?_Check_C_return@std@@YAHH@Z 005a8db0 f i MagicProcess.obj
 0002:0002ce10       ?_Clrcont@_Iterator_base12@std@@QAEXXZ 005a8e10 f i MagicProcess.obj
 0002:0002ce50       ?_Color@?$_Tree_comp_alloc@V?$_Tmap_traits@EU_BUFF_TYPE4_INFO@@U?$less@E@std@@V?$allocator@U?$pair@$$CBEU_BUFF_TYPE4_INFO@@@std@@@3@$0A@@std@@@std@@SAAADPAU?$_Tree_node@U?$pair@$$CBEU_BUFF_TYPE4_INFO@@@std@@PAX@2@@Z 005a8e50 f i MagicProcess.obj
 0002:0002cea0       ?_Color@?$_Tree_val@U?$_Tree_simple_types@U?$pair@$$CBEU_BUFF_TYPE4_INFO@@@std@@@std@@@std@@SAAADPAU?$_Tree_node@U?$pair@$$CBEU_BUFF_TYPE4_INFO@@@std@@PAX@2@@Z 005a8ea0 f i MagicProcess.obj
 0002:0002cee0       ?_Compare@?$_Tree@V?$_Tmap_traits@EU_BUFF_TYPE4_INFO@@U?$less@E@std@@V?$allocator@U?$pair@$$CBEU_BUFF_TYPE4_INFO@@@std@@@3@$0A@@std@@@std@@IBE_NABE0@Z 005a8ee0 f i MagicProcess.obj
 0002:0002cf60       ?_Compare@?$_Tree@V?$_Tmap_traits@IPAU_MAGIC_TABLE@@U?$less@I@std@@V?$allocator@U?$pair@$$CBIPAU_MAGIC_TABLE@@@std@@@3@$0A@@std@@@std@@IBE_NABI0@Z 005a8f60 f i MagicProcess.obj
 0002:0002cfe0       ?_Compare@?$_Tree@V?$_Tmap_traits@IPAU_MAGIC_TYPE4@@U?$less@I@std@@V?$allocator@U?$pair@$$CBIPAU_MAGIC_TYPE4@@@std@@@3@$0A@@std@@@std@@IBE_NABI0@Z 005a8fe0 f i MagicProcess.obj
 0002:0002d060       ?_Deallocate@std@@YAXPAXII@Z 005a9060 f i MagicProcess.obj
 0002:0002d3f0       ?_Destroy@?$vector@EV?$allocator@E@std@@@std@@IAEXPAE0@Z 005a93f0 f i MagicProcess.obj
 0002:0002d460       ?_Free_proxy@?$_Vector_alloc@U?$_Vec_base_types@EV?$allocator@E@std@@@std@@@std@@QAEXXZ 005a9460 f i MagicProcess.obj
 0002:0002d550       ?_Get_data@?$_Tree_comp_alloc@V?$_Tmap_traits@EU_BUFF_TYPE4_INFO@@U?$less@E@std@@V?$allocator@U?$pair@$$CBEU_BUFF_TYPE4_INFO@@@std@@@3@$0A@@std@@@std@@QAEAAV?$_Tree_val@U?$_Tree_simple_types@U?$pair@$$CBEU_BUFF_TYPE4_INFO@@@std@@@std@@@2@XZ 005a9550 f i MagicProcess.obj
 0002:0002d5b0       ?_Get_data@?$_Tree_comp_alloc@V?$_Tmap_traits@EU_BUFF_TYPE4_INFO@@U?$less@E@std@@V?$allocator@U?$pair@$$CBEU_BUFF_TYPE4_INFO@@@std@@@3@$0A@@std@@@std@@QBEABV?$_Tree_val@U?$_Tree_simple_types@U?$pair@$$CBEU_BUFF_TYPE4_INFO@@@std@@@std@@@2@XZ 005a95b0 f i MagicProcess.obj
 0002:0002d610       ?_Get_data@?$_Tree_comp_alloc@V?$_Tmap_traits@IPAU_MAGIC_TABLE@@U?$less@I@std@@V?$allocator@U?$pair@$$CBIPAU_MAGIC_TABLE@@@std@@@3@$0A@@std@@@std@@QAEAAV?$_Tree_val@U?$_Tree_simple_types@U?$pair@$$CBIPAU_MAGIC_TABLE@@@std@@@std@@@2@XZ 005a9610 f i MagicProcess.obj
 0002:0002d670       ?_Get_data@?$_Tree_comp_alloc@V?$_Tmap_traits@IPAU_MAGIC_TABLE@@U?$less@I@std@@V?$allocator@U?$pair@$$CBIPAU_MAGIC_TABLE@@@std@@@3@$0A@@std@@@std@@QBEABV?$_Tree_val@U?$_Tree_simple_types@U?$pair@$$CBIPAU_MAGIC_TABLE@@@std@@@std@@@2@XZ 005a9670 f i MagicProcess.obj
 0002:0002d6d0       ?_Get_data@?$_Tree_comp_alloc@V?$_Tmap_traits@IPAU_MAGIC_TYPE4@@U?$less@I@std@@V?$allocator@U?$pair@$$CBIPAU_MAGIC_TYPE4@@@std@@@3@$0A@@std@@@std@@QAEAAV?$_Tree_val@U?$_Tree_simple_types@U?$pair@$$CBIPAU_MAGIC_TYPE4@@@std@@@std@@@2@XZ 005a96d0 f i MagicProcess.obj
 0002:0002d730       ?_Get_data@?$_Tree_comp_alloc@V?$_Tmap_traits@IPAU_MAGIC_TYPE4@@U?$less@I@std@@V?$allocator@U?$pair@$$CBIPAU_MAGIC_TYPE4@@@std@@@3@$0A@@std@@@std@@QBEABV?$_Tree_val@U?$_Tree_simple_types@U?$pair@$$CBIPAU_MAGIC_TYPE4@@@std@@@std@@@2@XZ 005a9730 f i MagicProcess.obj
 0002:0002d790       ?_Get_data@?$_Vector_alloc@U?$_Vec_base_types@EV?$allocator@E@std@@@std@@@std@@QAEAAV?$_Vector_val@U?$_Simple_types@E@std@@@2@XZ 005a9790 f i MagicProcess.obj
 0002:0002d7e0       ?_Get_data@?$_Vector_alloc@U?$_Vec_base_types@EV?$allocator@E@std@@@std@@@std@@QBEABV?$_Vector_val@U?$_Simple_types@E@std@@@2@XZ 005a97e0 f i MagicProcess.obj
 0002:0002d830       ?_Get_first@?$_Compressed_pair@U?$_Wrap_alloc@V?$allocator@E@std@@@std@@V?$_Vector_val@U?$_Simple_types@E@std@@@2@$00@std@@QAEAAU?$_Wrap_alloc@V?$allocator@E@std@@@2@XZ 005a9830 f i MagicProcess.obj
 0002:0002d870       ?_Get_first@?$_Compressed_pair@U?$_Wrap_alloc@V?$allocator@E@std@@@std@@V?$_Vector_val@U?$_Simple_types@E@std@@@2@$00@std@@QBEABU?$_Wrap_alloc@V?$allocator@E@std@@@2@XZ 005a9870 f i MagicProcess.obj
 0002:0002d8b0       ?_Get_first@?$_Compressed_pair@U?$_Wrap_alloc@V?$allocator@U?$_Tree_node@U?$pair@$$CBEU_BUFF_TYPE4_INFO@@@std@@PAX@std@@@std@@@std@@V?$_Tree_val@U?$_Tree_simple_types@U?$pair@$$CBEU_BUFF_TYPE4_INFO@@@std@@@std@@@2@$00@std@@QAEAAU?$_Wrap_alloc@V?$allocator@U?$_Tree_node@U?$pair@$$CBEU_BUFF_TYPE4_INFO@@@std@@PAX@std@@@std@@@2@XZ 005a98b0 f i MagicProcess.obj
 0002:0002d8f0       ?_Get_first@?$_Compressed_pair@U?$less@E@std@@V?$_Compressed_pair@U?$_Wrap_alloc@V?$allocator@U?$_Tree_node@U?$pair@$$CBEU_BUFF_TYPE4_INFO@@@std@@PAX@std@@@std@@@std@@V?$_Tree_val@U?$_Tree_simple_types@U?$pair@$$CBEU_BUFF_TYPE4_INFO@@@std@@@std@@@2@$00@2@$00@std@@QAEAAU?$less@E@2@XZ 005a98f0 f i MagicProcess.obj
 0002:0002d930       ?_Get_first@?$_Compressed_pair@U?$less@E@std@@V?$_Compressed_pair@U?$_Wrap_alloc@V?$allocator@U?$_Tree_node@U?$pair@$$CBEU_BUFF_TYPE4_INFO@@@std@@PAX@std@@@std@@@std@@V?$_Tree_val@U?$_Tree_simple_types@U?$pair@$$CBEU_BUFF_TYPE4_INFO@@@std@@@std@@@2@$00@2@$00@std@@QBEABU?$less@E@2@XZ 005a9930 f i MagicProcess.obj
 0002:0002d970       ?_Get_first@?$_Compressed_pair@U?$less@I@std@@V?$_Compressed_pair@U?$_Wrap_alloc@V?$allocator@U?$_Tree_node@U?$pair@$$CBIPAU_MAGIC_TABLE@@@std@@PAX@std@@@std@@@std@@V?$_Tree_val@U?$_Tree_simple_types@U?$pair@$$CBIPAU_MAGIC_TABLE@@@std@@@std@@@2@$00@2@$00@std@@QAEAAU?$less@I@2@XZ 005a9970 f i MagicProcess.obj
 0002:0002d9b0       ?_Get_first@?$_Compressed_pair@U?$less@I@std@@V?$_Compressed_pair@U?$_Wrap_alloc@V?$allocator@U?$_Tree_node@U?$pair@$$CBIPAU_MAGIC_TABLE@@@std@@PAX@std@@@std@@@std@@V?$_Tree_val@U?$_Tree_simple_types@U?$pair@$$CBIPAU_MAGIC_TABLE@@@std@@@std@@@2@$00@2@$00@std@@QBEABU?$less@I@2@XZ 005a99b0 f i MagicProcess.obj
 0002:0002d9f0       ?_Get_first@?$_Compressed_pair@U?$less@I@std@@V?$_Compressed_pair@U?$_Wrap_alloc@V?$allocator@U?$_Tree_node@U?$pair@$$CBIPAU_MAGIC_TYPE4@@@std@@PAX@std@@@std@@@std@@V?$_Tree_val@U?$_Tree_simple_types@U?$pair@$$CBIPAU_MAGIC_TYPE4@@@std@@@std@@@2@$00@2@$00@std@@QAEAAU?$less@I@2@XZ 005a99f0 f i MagicProcess.obj
 0002:0002da30       ?_Get_first@?$_Compressed_pair@U?$less@I@std@@V?$_Compressed_pair@U?$_Wrap_alloc@V?$allocator@U?$_Tree_node@U?$pair@$$CBIPAU_MAGIC_TYPE4@@@std@@PAX@std@@@std@@@std@@V?$_Tree_val@U?$_Tree_simple_types@U?$pair@$$CBIPAU_MAGIC_TYPE4@@@std@@@std@@@2@$00@2@$00@std@@QBEABU?$less@I@2@XZ 005a9a30 f i MagicProcess.obj
 0002:0002da70       ?_Get_second@?$_Compressed_pair@U?$_Wrap_alloc@V?$allocator@E@std@@@std@@V?$_Vector_val@U?$_Simple_types@E@std@@@2@$00@std@@QAEAAV?$_Vector_val@U?$_Simple_types@E@std@@@2@XZ 005a9a70 f i MagicProcess.obj
 0002:0002dab0       ?_Get_second@?$_Compressed_pair@U?$_Wrap_alloc@V?$allocator@E@std@@@std@@V?$_Vector_val@U?$_Simple_types@E@std@@@2@$00@std@@QBEABV?$_Vector_val@U?$_Simple_types@E@std@@@2@XZ 005a9ab0 f i MagicProcess.obj
 0002:0002daf0       ?_Get_second@?$_Compressed_pair@U?$_Wrap_alloc@V?$allocator@U?$_Tree_node@U?$pair@$$CBEU_BUFF_TYPE4_INFO@@@std@@PAX@std@@@std@@@std@@V?$_Tree_val@U?$_Tree_simple_types@U?$pair@$$CBEU_BUFF_TYPE4_INFO@@@std@@@std@@@2@$00@std@@QAEAAV?$_Tree_val@U?$_Tree_simple_types@U?$pair@$$CBEU_BUFF_TYPE4_INFO@@@std@@@std@@@2@XZ 005a9af0 f i MagicProcess.obj
 0002:0002db30       ?_Get_second@?$_Compressed_pair@U?$_Wrap_alloc@V?$allocator@U?$_Tree_node@U?$pair@$$CBEU_BUFF_TYPE4_INFO@@@std@@PAX@std@@@std@@@std@@V?$_Tree_val@U?$_Tree_simple_types@U?$pair@$$CBEU_BUFF_TYPE4_INFO@@@std@@@std@@@2@$00@std@@QBEABV?$_Tree_val@U?$_Tree_simple_types@U?$pair@$$CBEU_BUFF_TYPE4_INFO@@@std@@@std@@@2@XZ 005a9b30 f i MagicProcess.obj
 0002:0002db70       ?_Get_second@?$_Compressed_pair@U?$_Wrap_alloc@V?$allocator@U?$_Tree_node@U?$pair@$$CBIPAU_MAGIC_TABLE@@@std@@PAX@std@@@std@@@std@@V?$_Tree_val@U?$_Tree_simple_types@U?$pair@$$CBIPAU_MAGIC_TABLE@@@std@@@std@@@2@$00@std@@QAEAAV?$_Tree_val@U?$_Tree_simple_types@U?$pair@$$CBIPAU_MAGIC_TABLE@@@std@@@std@@@2@XZ 005a9b70 f i MagicProcess.obj
 0002:0002dbb0       ?_Get_second@?$_Compressed_pair@U?$_Wrap_alloc@V?$allocator@U?$_Tree_node@U?$pair@$$CBIPAU_MAGIC_TABLE@@@std@@PAX@std@@@std@@@std@@V?$_Tree_val@U?$_Tree_simple_types@U?$pair@$$CBIPAU_MAGIC_TABLE@@@std@@@std@@@2@$00@std@@QBEABV?$_Tree_val@U?$_Tree_simple_types@U?$pair@$$CBIPAU_MAGIC_TABLE@@@std@@@std@@@2@XZ 005a9bb0 f i MagicProcess.obj
 0002:0002dbf0       ?_Get_second@?$_Compressed_pair@U?$_Wrap_alloc@V?$allocator@U?$_Tree_node@U?$pair@$$CBIPAU_MAGIC_TYPE4@@@std@@PAX@std@@@std@@@std@@V?$_Tree_val@U?$_Tree_simple_types@U?$pair@$$CBIPAU_MAGIC_TYPE4@@@std@@@std@@@2@$00@std@@QAEAAV?$_Tree_val@U?$_Tree_simple_types@U?$pair@$$CBIPAU_MAGIC_TYPE4@@@std@@@std@@@2@XZ 005a9bf0 f i MagicProcess.obj
 0002:0002dc30       ?_Get_second@?$_Compressed_pair@U?$_Wrap_alloc@V?$allocator@U?$_Tree_node@U?$pair@$$CBIPAU_MAGIC_TYPE4@@@std@@PAX@std@@@std@@@std@@V?$_Tree_val@U?$_Tree_simple_types@U?$pair@$$CBIPAU_MAGIC_TYPE4@@@std@@@std@@@2@$00@std@@QBEABV?$_Tree_val@U?$_Tree_simple_types@U?$pair@$$CBIPAU_MAGIC_TYPE4@@@std@@@std@@@2@XZ 005a9c30 f i MagicProcess.obj
 0002:0002dc70       ?_Get_second@?$_Compressed_pair@U?$less@E@std@@V?$_Compressed_pair@U?$_Wrap_alloc@V?$allocator@U?$_Tree_node@U?$pair@$$CBEU_BUFF_TYPE4_INFO@@@std@@PAX@std@@@std@@@std@@V?$_Tree_val@U?$_Tree_simple_types@U?$pair@$$CBEU_BUFF_TYPE4_INFO@@@std@@@std@@@2@$00@2@$00@std@@QAEAAV?$_Compressed_pair@U?$_Wrap_alloc@V?$allocator@U?$_Tree_node@U?$pair@$$CBEU_BUFF_TYPE4_INFO@@@std@@PAX@std@@@std@@@std@@V?$_Tree_val@U?$_Tree_simple_types@U?$pair@$$CBEU_BUFF_TYPE4_INFO@@@std@@@std@@@2@$00@2@XZ 005a9c70 f i MagicProcess.obj
 0002:0002dcb0       ?_Get_second@?$_Compressed_pair@U?$less@E@std@@V?$_Compressed_pair@U?$_Wrap_alloc@V?$allocator@U?$_Tree_node@U?$pair@$$CBEU_BUFF_TYPE4_INFO@@@std@@PAX@std@@@std@@@std@@V?$_Tree_val@U?$_Tree_simple_types@U?$pair@$$CBEU_BUFF_TYPE4_INFO@@@std@@@std@@@2@$00@2@$00@std@@QBEABV?$_Compressed_pair@U?$_Wrap_alloc@V?$allocator@U?$_Tree_node@U?$pair@$$CBEU_BUFF_TYPE4_INFO@@@std@@PAX@std@@@std@@@std@@V?$_Tree_val@U?$_Tree_simple_types@U?$pair@$$CBEU_BUFF_TYPE4_INFO@@@std@@@std@@@2@$00@2@XZ 005a9cb0 f i MagicProcess.obj
 0002:0002dcf0       ?_Get_second@?$_Compressed_pair@U?$less@I@std@@V?$_Compressed_pair@U?$_Wrap_alloc@V?$allocator@U?$_Tree_node@U?$pair@$$CBIPAU_MAGIC_TABLE@@@std@@PAX@std@@@std@@@std@@V?$_Tree_val@U?$_Tree_simple_types@U?$pair@$$CBIPAU_MAGIC_TABLE@@@std@@@std@@@2@$00@2@$00@std@@QAEAAV?$_Compressed_pair@U?$_Wrap_alloc@V?$allocator@U?$_Tree_node@U?$pair@$$CBIPAU_MAGIC_TABLE@@@std@@PAX@std@@@std@@@std@@V?$_Tree_val@U?$_Tree_simple_types@U?$pair@$$CBIPAU_MAGIC_TABLE@@@std@@@std@@@2@$00@2@XZ 005a9cf0 f i MagicProcess.obj
 0002:0002dd30       ?_Get_second@?$_Compressed_pair@U?$less@I@std@@V?$_Compressed_pair@U?$_Wrap_alloc@V?$allocator@U?$_Tree_node@U?$pair@$$CBIPAU_MAGIC_TABLE@@@std@@PAX@std@@@std@@@std@@V?$_Tree_val@U?$_Tree_simple_types@U?$pair@$$CBIPAU_MAGIC_TABLE@@@std@@@std@@@2@$00@2@$00@std@@QBEABV?$_Compressed_pair@U?$_Wrap_alloc@V?$allocator@U?$_Tree_node@U?$pair@$$CBIPAU_MAGIC_TABLE@@@std@@PAX@std@@@std@@@std@@V?$_Tree_val@U?$_Tree_simple_types@U?$pair@$$CBIPAU_MAGIC_TABLE@@@std@@@std@@@2@$00@2@XZ 005a9d30 f i MagicProcess.obj
 0002:0002dd70       ?_Get_second@?$_Compressed_pair@U?$less@I@std@@V?$_Compressed_pair@U?$_Wrap_alloc@V?$allocator@U?$_Tree_node@U?$pair@$$CBIPAU_MAGIC_TYPE4@@@std@@PAX@std@@@std@@@std@@V?$_Tree_val@U?$_Tree_simple_types@U?$pair@$$CBIPAU_MAGIC_TYPE4@@@std@@@std@@@2@$00@2@$00@std@@QAEAAV?$_Compressed_pair@U?$_Wrap_alloc@V?$allocator@U?$_Tree_node@U?$pair@$$CBIPAU_MAGIC_TYPE4@@@std@@PAX@std@@@std@@@std@@V?$_Tree_val@U?$_Tree_simple_types@U?$pair@$$CBIPAU_MAGIC_TYPE4@@@std@@@std@@@2@$00@2@XZ 005a9d70 f i MagicProcess.obj
 0002:0002ddb0       ?_Get_second@?$_Compressed_pair@U?$less@I@std@@V?$_Compressed_pair@U?$_Wrap_alloc@V?$allocator@U?$_Tree_node@U?$pair@$$CBIPAU_MAGIC_TYPE4@@@std@@PAX@std@@@std@@@std@@V?$_Tree_val@U?$_Tree_simple_types@U?$pair@$$CBIPAU_MAGIC_TYPE4@@@std@@@std@@@2@$00@2@$00@std@@QBEABV?$_Compressed_pair@U?$_Wrap_alloc@V?$allocator@U?$_Tree_node@U?$pair@$$CBIPAU_MAGIC_TYPE4@@@std@@PAX@std@@@std@@@std@@V?$_Tree_val@U?$_Tree_simple_types@U?$pair@$$CBIPAU_MAGIC_TYPE4@@@std@@@std@@@2@$00@2@XZ 005a9db0 f i MagicProcess.obj
 0002:0002ddf0       ?_Getal@?$_Tree_comp_alloc@V?$_Tmap_traits@EU_BUFF_TYPE4_INFO@@U?$less@E@std@@V?$allocator@U?$pair@$$CBEU_BUFF_TYPE4_INFO@@@std@@@3@$0A@@std@@@std@@QAEAAU?$_Wrap_alloc@V?$allocator@U?$_Tree_node@U?$pair@$$CBEU_BUFF_TYPE4_INFO@@@std@@PAX@std@@@std@@@2@XZ 005a9df0 f i MagicProcess.obj
 0002:0002de50       ?_Getal@?$_Vector_alloc@U?$_Vec_base_types@EV?$allocator@E@std@@@std@@@std@@QAEAAU?$_Wrap_alloc@V?$allocator@E@std@@@2@XZ 005a9e50 f i MagicProcess.obj
 0002:0002dea0       ?_Getal@?$_Vector_alloc@U?$_Vec_base_types@EV?$allocator@E@std@@@std@@@std@@QBEABU?$_Wrap_alloc@V?$allocator@E@std@@@2@XZ 005a9ea0 f i MagicProcess.obj
 0002:0002def0       ?_Getcomp@?$_Tree_comp_alloc@V?$_Tmap_traits@EU_BUFF_TYPE4_INFO@@U?$less@E@std@@V?$allocator@U?$pair@$$CBEU_BUFF_TYPE4_INFO@@@std@@@3@$0A@@std@@@std@@QAEAAU?$less@E@2@XZ 005a9ef0 f i MagicProcess.obj
 0002:0002df40       ?_Getcomp@?$_Tree_comp_alloc@V?$_Tmap_traits@EU_BUFF_TYPE4_INFO@@U?$less@E@std@@V?$allocator@U?$pair@$$CBEU_BUFF_TYPE4_INFO@@@std@@@3@$0A@@std@@@std@@QBEABU?$less@E@2@XZ 005a9f40 f i MagicProcess.obj
 0002:0002df90       ?_Getcomp@?$_Tree_comp_alloc@V?$_Tmap_traits@IPAU_MAGIC_TABLE@@U?$less@I@std@@V?$allocator@U?$pair@$$CBIPAU_MAGIC_TABLE@@@std@@@3@$0A@@std@@@std@@QAEAAU?$less@I@2@XZ 005a9f90 f i MagicProcess.obj
 0002:0002dfe0       ?_Getcomp@?$_Tree_comp_alloc@V?$_Tmap_traits@IPAU_MAGIC_TABLE@@U?$less@I@std@@V?$allocator@U?$pair@$$CBIPAU_MAGIC_TABLE@@@std@@@3@$0A@@std@@@std@@QBEABU?$less@I@2@XZ 005a9fe0 f i MagicProcess.obj
 0002:0002e030       ?_Getcomp@?$_Tree_comp_alloc@V?$_Tmap_traits@IPAU_MAGIC_TYPE4@@U?$less@I@std@@V?$allocator@U?$pair@$$CBIPAU_MAGIC_TYPE4@@@std@@@3@$0A@@std@@@std@@QAEAAU?$less@I@2@XZ 005aa030 f i MagicProcess.obj
 0002:0002e080       ?_Getcomp@?$_Tree_comp_alloc@V?$_Tmap_traits@IPAU_MAGIC_TYPE4@@U?$less@I@std@@V?$allocator@U?$pair@$$CBIPAU_MAGIC_TYPE4@@@std@@@3@$0A@@std@@@std@@QBEABU?$less@I@2@XZ 005aa080 f i MagicProcess.obj
 0002:0002e0d0       ?_Getcont@_Iterator_base12@std@@QBEPBU_Container_base12@2@XZ 005aa0d0 f i MagicProcess.obj
 0002:0002e140       ?_Getpfirst@?$_Tree_comp_alloc@V?$_Tmap_traits@EU_BUFF_TYPE4_INFO@@U?$less@E@std@@V?$allocator@U?$pair@$$CBEU_BUFF_TYPE4_INFO@@@std@@@3@$0A@@std@@@std@@QBEPAPAU_Iterator_base12@2@XZ 005aa140 f i MagicProcess.obj
 0002:0002e1a0       ?_Getpfirst@?$_Vector_alloc@U?$_Vec_base_types@EV?$allocator@E@std@@@std@@@std@@QBEPAPAU_Iterator_base12@2@XZ 005aa1a0 f i MagicProcess.obj
 0002:0002e200       ?_Getpfirst@_Container_base12@std@@QBEPAPAU_Iterator_base12@2@XZ 005aa200 f i MagicProcess.obj
 0002:0002e270       ?_Getpnext@_Iterator_base12@std@@QAEPAPAU12@XZ 005aa270 f i MagicProcess.obj
 0002:0002e2b0       ?_Grow_to@?$vector@EV?$allocator@E@std@@@std@@IBEII@Z 005aa2b0 f i MagicProcess.obj
 0002:0002e360       ?_Isnil@?$_Tree_comp_alloc@V?$_Tmap_traits@EU_BUFF_TYPE4_INFO@@U?$less@E@std@@V?$allocator@U?$pair@$$CBEU_BUFF_TYPE4_INFO@@@std@@@3@$0A@@std@@@std@@SAAADPAU?$_Tree_node@U?$pair@$$CBEU_BUFF_TYPE4_INFO@@@std@@PAX@2@@Z 005aa360 f i MagicProcess.obj
 0002:0002e3b0       ?_Isnil@?$_Tree_comp_alloc@V?$_Tmap_traits@IPAU_MAGIC_TABLE@@U?$less@I@std@@V?$allocator@U?$pair@$$CBIPAU_MAGIC_TABLE@@@std@@@3@$0A@@std@@@std@@SAAADPAU?$_Tree_node@U?$pair@$$CBIPAU_MAGIC_TABLE@@@std@@PAX@2@@Z 005aa3b0 f i MagicProcess.obj
 0002:0002e400       ?_Isnil@?$_Tree_comp_alloc@V?$_Tmap_traits@IPAU_MAGIC_TYPE4@@U?$less@I@std@@V?$allocator@U?$pair@$$CBIPAU_MAGIC_TYPE4@@@std@@@3@$0A@@std@@@std@@SAAADPAU?$_Tree_node@U?$pair@$$CBIPAU_MAGIC_TYPE4@@@std@@PAX@2@@Z 005aa400 f i MagicProcess.obj
 0002:0002e450       ?_Isnil@?$_Tree_val@U?$_Tree_simple_types@U?$pair@$$CBEU_BUFF_TYPE4_INFO@@@std@@@std@@@std@@SAAADPAU?$_Tree_node@U?$pair@$$CBEU_BUFF_TYPE4_INFO@@@std@@PAX@2@@Z 005aa450 f i MagicProcess.obj
 0002:0002e490       ?_Isnil@?$_Tree_val@U?$_Tree_simple_types@U?$pair@$$CBIPAU_MAGIC_TABLE@@@std@@@std@@@std@@SAAADPAU?$_Tree_node@U?$pair@$$CBIPAU_MAGIC_TABLE@@@std@@PAX@2@@Z 005aa490 f i MagicProcess.obj
 0002:0002e4d0       ?_Isnil@?$_Tree_val@U?$_Tree_simple_types@U?$pair@$$CBIPAU_MAGIC_TYPE4@@@std@@@std@@@std@@SAAADPAU?$_Tree_node@U?$pair@$$CBIPAU_MAGIC_TYPE4@@@std@@PAX@2@@Z 005aa4d0 f i MagicProcess.obj
 0002:0002e510       ?_Key@?$_Tree@V?$_Tmap_traits@EU_BUFF_TYPE4_INFO@@U?$less@E@std@@V?$allocator@U?$pair@$$CBEU_BUFF_TYPE4_INFO@@@std@@@3@$0A@@std@@@std@@IBEABEPAU?$_Tree_node@U?$pair@$$CBEU_BUFF_TYPE4_INFO@@@std@@PAX@2@@Z 005aa510 f i MagicProcess.obj
 0002:0002e580       ?_Key@?$_Tree@V?$_Tmap_traits@IPAU_MAGIC_TABLE@@U?$less@I@std@@V?$allocator@U?$pair@$$CBIPAU_MAGIC_TABLE@@@std@@@3@$0A@@std@@@std@@IBEABIPAU?$_Tree_node@U?$pair@$$CBIPAU_MAGIC_TABLE@@@std@@PAX@2@@Z 005aa580 f i MagicProcess.obj
 0002:0002e5f0       ?_Key@?$_Tree@V?$_Tmap_traits@IPAU_MAGIC_TYPE4@@U?$less@I@std@@V?$allocator@U?$pair@$$CBIPAU_MAGIC_TYPE4@@@std@@@3@$0A@@std@@@std@@IBEABIPAU?$_Tree_node@U?$pair@$$CBIPAU_MAGIC_TYPE4@@@std@@PAX@2@@Z 005aa5f0 f i MagicProcess.obj
 0002:0002e660       ?_Kfn@?$_Tree@V?$_Tmap_traits@EU_BUFF_TYPE4_INFO@@U?$less@E@std@@V?$allocator@U?$pair@$$CBEU_BUFF_TYPE4_INFO@@@std@@@3@$0A@@std@@@std@@IBEABEABU?$pair@$$CBEU_BUFF_TYPE4_INFO@@@2@@Z 005aa660 f i MagicProcess.obj
 0002:0002e6c0       ?_Kfn@?$_Tree@V?$_Tmap_traits@IPAU_MAGIC_TABLE@@U?$less@I@std@@V?$allocator@U?$pair@$$CBIPAU_MAGIC_TABLE@@@std@@@3@$0A@@std@@@std@@IBEABIABU?$pair@$$CBIPAU_MAGIC_TABLE@@@2@@Z 005aa6c0 f i MagicProcess.obj
 0002:0002e720       ?_Kfn@?$_Tree@V?$_Tmap_traits@IPAU_MAGIC_TYPE4@@U?$less@I@std@@V?$allocator@U?$pair@$$CBIPAU_MAGIC_TYPE4@@@std@@@3@$0A@@std@@@std@@IBEABIABU?$pair@$$CBIPAU_MAGIC_TYPE4@@@2@@Z 005aa720 f i MagicProcess.obj
 0002:0002e780       ?_Left@?$_Tree_comp_alloc@V?$_Tmap_traits@EU_BUFF_TYPE4_INFO@@U?$less@E@std@@V?$allocator@U?$pair@$$CBEU_BUFF_TYPE4_INFO@@@std@@@3@$0A@@std@@@std@@SAAAPAU?$_Tree_node@U?$pair@$$CBEU_BUFF_TYPE4_INFO@@@std@@PAX@2@PAU32@@Z 005aa780 f i MagicProcess.obj
 0002:0002e7d0       ?_Left@?$_Tree_comp_alloc@V?$_Tmap_traits@IPAU_MAGIC_TABLE@@U?$less@I@std@@V?$allocator@U?$pair@$$CBIPAU_MAGIC_TABLE@@@std@@@3@$0A@@std@@@std@@SAAAPAU?$_Tree_node@U?$pair@$$CBIPAU_MAGIC_TABLE@@@std@@PAX@2@PAU32@@Z 005aa7d0 f i MagicProcess.obj
 0002:0002e820       ?_Left@?$_Tree_comp_alloc@V?$_Tmap_traits@IPAU_MAGIC_TYPE4@@U?$less@I@std@@V?$allocator@U?$pair@$$CBIPAU_MAGIC_TYPE4@@@std@@@3@$0A@@std@@@std@@SAAAPAU?$_Tree_node@U?$pair@$$CBIPAU_MAGIC_TYPE4@@@std@@PAX@2@PAU32@@Z 005aa820 f i MagicProcess.obj
 0002:0002e870       ?_Left@?$_Tree_val@U?$_Tree_simple_types@U?$pair@$$CBEU_BUFF_TYPE4_INFO@@@std@@@std@@@std@@SAAAPAU?$_Tree_node@U?$pair@$$CBEU_BUFF_TYPE4_INFO@@@std@@PAX@2@PAU32@@Z 005aa870 f i MagicProcess.obj
 0002:0002e8b0       ?_Left@?$_Tree_val@U?$_Tree_simple_types@U?$pair@$$CBIPAU_MAGIC_TABLE@@@std@@@std@@@std@@SAAAPAU?$_Tree_node@U?$pair@$$CBIPAU_MAGIC_TABLE@@@std@@PAX@2@PAU32@@Z 005aa8b0 f i MagicProcess.obj
 0002:0002e8f0       ?_Left@?$_Tree_val@U?$_Tree_simple_types@U?$pair@$$CBIPAU_MAGIC_TYPE4@@@std@@@std@@@std@@SAAAPAU?$_Tree_node@U?$pair@$$CBIPAU_MAGIC_TYPE4@@@std@@PAX@2@PAU32@@Z 005aa8f0 f i MagicProcess.obj
 0002:0002e930       ?_Lmost@?$_Tree@V?$_Tmap_traits@EU_BUFF_TYPE4_INFO@@U?$less@E@std@@V?$allocator@U?$pair@$$CBEU_BUFF_TYPE4_INFO@@@std@@@3@$0A@@std@@@std@@IBEAAPAU?$_Tree_node@U?$pair@$$CBEU_BUFF_TYPE4_INFO@@@std@@PAX@2@XZ 005aa930 f i MagicProcess.obj
 0002:0002e990       ?_Lrotate@?$_Tree@V?$_Tmap_traits@EU_BUFF_TYPE4_INFO@@U?$less@E@std@@V?$allocator@U?$pair@$$CBEU_BUFF_TYPE4_INFO@@@std@@@3@$0A@@std@@@std@@IAEXPAU?$_Tree_node@U?$pair@$$CBEU_BUFF_TYPE4_INFO@@@std@@PAX@2@@Z 005aa990 f i MagicProcess.obj
 0002:0002eb40       ?_Max@?$_Tree_comp_alloc@V?$_Tmap_traits@EU_BUFF_TYPE4_INFO@@U?$less@E@std@@V?$allocator@U?$pair@$$CBEU_BUFF_TYPE4_INFO@@@std@@@3@$0A@@std@@@std@@SAPAU?$_Tree_node@U?$pair@$$CBEU_BUFF_TYPE4_INFO@@@std@@PAX@2@PAU32@@Z 005aab40 f i MagicProcess.obj
 0002:0002eb90       ?_Max@?$_Tree_val@U?$_Tree_simple_types@U?$pair@$$CBEU_BUFF_TYPE4_INFO@@@std@@@std@@@std@@SAPAU?$_Tree_node@U?$pair@$$CBEU_BUFF_TYPE4_INFO@@@std@@PAX@2@PAU32@@Z 005aab90 f i MagicProcess.obj
 0002:0002ec10       ?_Min@?$_Tree_comp_alloc@V?$_Tmap_traits@EU_BUFF_TYPE4_INFO@@U?$less@E@std@@V?$allocator@U?$pair@$$CBEU_BUFF_TYPE4_INFO@@@std@@@3@$0A@@std@@@std@@SAPAU?$_Tree_node@U?$pair@$$CBEU_BUFF_TYPE4_INFO@@@std@@PAX@2@PAU32@@Z 005aac10 f i MagicProcess.obj
 0002:0002ec60       ?_Min@?$_Tree_val@U?$_Tree_simple_types@U?$pair@$$CBEU_BUFF_TYPE4_INFO@@@std@@@std@@@std@@SAPAU?$_Tree_node@U?$pair@$$CBEU_BUFF_TYPE4_INFO@@@std@@PAX@2@PAU32@@Z 005aac60 f i MagicProcess.obj
 0002:0002ece0       ?_Mtx_lockX@std@@YAHPAU_Mtx_internal_imp_t@@@Z 005aace0 f i MagicProcess.obj
 0002:0002ed40       ?_Mtx_unlockX@std@@YAHPAU_Mtx_internal_imp_t@@@Z 005aad40 f i MagicProcess.obj
 0002:0002eda0       ?_Myend@?$_Vector_alloc@U?$_Vec_base_types@EV?$allocator@E@std@@@std@@@std@@QAEAAPAEXZ 005aada0 f i MagicProcess.obj
 0002:0002ee00       ?_Myend@?$_Vector_alloc@U?$_Vec_base_types@EV?$allocator@E@std@@@std@@@std@@QBEABQAEXZ 005aae00 f i MagicProcess.obj
 0002:0002ee60       ?_Myfirst@?$_Vector_alloc@U?$_Vec_base_types@EV?$allocator@E@std@@@std@@@std@@QAEAAPAEXZ 005aae60 f i MagicProcess.obj
 0002:0002eec0       ?_Myfirst@?$_Vector_alloc@U?$_Vec_base_types@EV?$allocator@E@std@@@std@@@std@@QBEABQAEXZ 005aaec0 f i MagicProcess.obj
 0002:0002ef20       ?_Myhead@?$_Tree_comp_alloc@V?$_Tmap_traits@EU_BUFF_TYPE4_INFO@@U?$less@E@std@@V?$allocator@U?$pair@$$CBEU_BUFF_TYPE4_INFO@@@std@@@3@$0A@@std@@@std@@QAEAAPAU?$_Tree_node@U?$pair@$$CBEU_BUFF_TYPE4_INFO@@@std@@PAX@2@XZ 005aaf20 f i MagicProcess.obj
 0002:0002ef80       ?_Myhead@?$_Tree_comp_alloc@V?$_Tmap_traits@EU_BUFF_TYPE4_INFO@@U?$less@E@std@@V?$allocator@U?$pair@$$CBEU_BUFF_TYPE4_INFO@@@std@@@3@$0A@@std@@@std@@QBEABQAU?$_Tree_node@U?$pair@$$CBEU_BUFF_TYPE4_INFO@@@std@@PAX@2@XZ 005aaf80 f i MagicProcess.obj
 0002:0002efe0       ?_Myhead@?$_Tree_comp_alloc@V?$_Tmap_traits@IPAU_MAGIC_TABLE@@U?$less@I@std@@V?$allocator@U?$pair@$$CBIPAU_MAGIC_TABLE@@@std@@@3@$0A@@std@@@std@@QAEAAPAU?$_Tree_node@U?$pair@$$CBIPAU_MAGIC_TABLE@@@std@@PAX@2@XZ 005aafe0 f i MagicProcess.obj
 0002:0002f040       ?_Myhead@?$_Tree_comp_alloc@V?$_Tmap_traits@IPAU_MAGIC_TABLE@@U?$less@I@std@@V?$allocator@U?$pair@$$CBIPAU_MAGIC_TABLE@@@std@@@3@$0A@@std@@@std@@QBEABQAU?$_Tree_node@U?$pair@$$CBIPAU_MAGIC_TABLE@@@std@@PAX@2@XZ 005ab040 f i MagicProcess.obj
 0002:0002f0a0       ?_Myhead@?$_Tree_comp_alloc@V?$_Tmap_traits@IPAU_MAGIC_TYPE4@@U?$less@I@std@@V?$allocator@U?$pair@$$CBIPAU_MAGIC_TYPE4@@@std@@@3@$0A@@std@@@std@@QAEAAPAU?$_Tree_node@U?$pair@$$CBIPAU_MAGIC_TYPE4@@@std@@PAX@2@XZ 005ab0a0 f i MagicProcess.obj
 0002:0002f100       ?_Myhead@?$_Tree_comp_alloc@V?$_Tmap_traits@IPAU_MAGIC_TYPE4@@U?$less@I@std@@V?$allocator@U?$pair@$$CBIPAU_MAGIC_TYPE4@@@std@@@3@$0A@@std@@@std@@QBEABQAU?$_Tree_node@U?$pair@$$CBIPAU_MAGIC_TYPE4@@@std@@PAX@2@XZ 005ab100 f i MagicProcess.obj
 0002:0002f160       ?_Mylast@?$_Vector_alloc@U?$_Vec_base_types@EV?$allocator@E@std@@@std@@@std@@QAEAAPAEXZ 005ab160 f i MagicProcess.obj
 0002:0002f1c0       ?_Mylast@?$_Vector_alloc@U?$_Vec_base_types@EV?$allocator@E@std@@@std@@@std@@QBEABQAEXZ 005ab1c0 f i MagicProcess.obj
 0002:0002f220       ?_Mymtx@_Mutex_base@std@@AAEPAU_Mtx_internal_imp_t@@XZ 005ab220 f i MagicProcess.obj
 0002:0002f260       ?_Mynode@?$_Tree_unchecked_const_iterator@V?$_Tree_val@U?$_Tree_simple_types@U?$pair@$$CBEU_BUFF_TYPE4_INFO@@@std@@@std@@@std@@U_Iterator_base12@2@@std@@QBEPAU?$_Tree_node@U?$pair@$$CBEU_BUFF_TYPE4_INFO@@@std@@PAX@2@XZ 005ab260 f i MagicProcess.obj
 0002:0002f2a0       ?_Mynode@?$_Tree_unchecked_const_iterator@V?$_Tree_val@U?$_Tree_simple_types@U?$pair@$$CBIPAU_MAGIC_TABLE@@@std@@@std@@@std@@U_Iterator_base12@2@@std@@QBEPAU?$_Tree_node@U?$pair@$$CBIPAU_MAGIC_TABLE@@@std@@PAX@2@XZ 005ab2a0 f i MagicProcess.obj
 0002:0002f2e0       ?_Mynode@?$_Tree_unchecked_const_iterator@V?$_Tree_val@U?$_Tree_simple_types@U?$pair@$$CBIPAU_MAGIC_TYPE4@@@std@@@std@@@std@@U_Iterator_base12@2@@std@@QBEPAU?$_Tree_node@U?$pair@$$CBIPAU_MAGIC_TYPE4@@@std@@PAX@2@XZ 005ab2e0 f i MagicProcess.obj
 0002:0002f320       ?_Myproxy@?$_Vector_alloc@U?$_Vec_base_types@EV?$allocator@E@std@@@std@@@std@@QAEAAPAU_Container_proxy@2@XZ 005ab320 f i MagicProcess.obj
 0002:0002f370       ?_Mysize@?$_Tree_comp_alloc@V?$_Tmap_traits@EU_BUFF_TYPE4_INFO@@U?$less@E@std@@V?$allocator@U?$pair@$$CBEU_BUFF_TYPE4_INFO@@@std@@@3@$0A@@std@@@std@@QAEAAIXZ 005ab370 f i MagicProcess.obj
 0002:0002f3d0       ?_Myval@?$_Tree_comp_alloc@V?$_Tmap_traits@EU_BUFF_TYPE4_INFO@@U?$less@E@std@@V?$allocator@U?$pair@$$CBEU_BUFF_TYPE4_INFO@@@std@@@3@$0A@@std@@@std@@SAAAU?$pair@$$CBEU_BUFF_TYPE4_INFO@@@2@PAU?$_Tree_node@U?$pair@$$CBEU_BUFF_TYPE4_INFO@@@std@@PAX@2@@Z 005ab3d0 f i MagicProcess.obj
 0002:0002f420       ?_Myval@?$_Tree_comp_alloc@V?$_Tmap_traits@IPAU_MAGIC_TABLE@@U?$less@I@std@@V?$allocator@U?$pair@$$CBIPAU_MAGIC_TABLE@@@std@@@3@$0A@@std@@@std@@SAAAU?$pair@$$CBIPAU_MAGIC_TABLE@@@2@PAU?$_Tree_node@U?$pair@$$CBIPAU_MAGIC_TABLE@@@std@@PAX@2@@Z 005ab420 f i MagicProcess.obj
 0002:0002f470       ?_Myval@?$_Tree_comp_alloc@V?$_Tmap_traits@IPAU_MAGIC_TYPE4@@U?$less@I@std@@V?$allocator@U?$pair@$$CBIPAU_MAGIC_TYPE4@@@std@@@3@$0A@@std@@@std@@SAAAU?$pair@$$CBIPAU_MAGIC_TYPE4@@@2@PAU?$_Tree_node@U?$pair@$$CBIPAU_MAGIC_TYPE4@@@std@@PAX@2@@Z 005ab470 f i MagicProcess.obj
 0002:0002f4c0       ?_Myval@?$_Tree_val@U?$_Tree_simple_types@U?$pair@$$CBEU_BUFF_TYPE4_INFO@@@std@@@std@@@std@@SAAAU?$pair@$$CBEU_BUFF_TYPE4_INFO@@@2@PAU?$_Tree_node@U?$pair@$$CBEU_BUFF_TYPE4_INFO@@@std@@PAX@2@@Z 005ab4c0 f i MagicProcess.obj
 0002:0002f500       ?_Myval@?$_Tree_val@U?$_Tree_simple_types@U?$pair@$$CBIPAU_MAGIC_TABLE@@@std@@@std@@@std@@SAAAU?$pair@$$CBIPAU_MAGIC_TABLE@@@2@PAU?$_Tree_node@U?$pair@$$CBIPAU_MAGIC_TABLE@@@std@@PAX@2@@Z 005ab500 f i MagicProcess.obj
 0002:0002f540       ?_Myval@?$_Tree_val@U?$_Tree_simple_types@U?$pair@$$CBIPAU_MAGIC_TYPE4@@@std@@@std@@@std@@SAAAU?$pair@$$CBIPAU_MAGIC_TYPE4@@@2@PAU?$_Tree_node@U?$pair@$$CBIPAU_MAGIC_TYPE4@@@std@@PAX@2@@Z 005ab540 f i MagicProcess.obj
 0002:0002f580       ?_Orphan_all@?$_Vector_alloc@U?$_Vec_base_types@EV?$allocator@E@std@@@std@@@std@@QAEXXZ 005ab580 f i MagicProcess.obj
 0002:0002f5e0       ?_Orphan_all@_Container_base12@std@@QAEXXZ 005ab5e0 f i MagicProcess.obj
 0002:0002f6d0       ?_Orphan_me@_Iterator_base12@std@@QAEXXZ 005ab6d0 f i MagicProcess.obj
 0002:0002f7a0       ?_Orphan_ptr@?$_Tree@V?$_Tmap_traits@EU_BUFF_TYPE4_INFO@@U?$less@E@std@@V?$allocator@U?$pair@$$CBEU_BUFF_TYPE4_INFO@@@std@@@3@$0A@@std@@@std@@IAEXPAU?$_Tree_node@U?$pair@$$CBEU_BUFF_TYPE4_INFO@@@std@@PAX@2@@Z 005ab7a0 f i MagicProcess.obj
 0002:0002f900       ?_Orphan_range@?$vector@EV?$allocator@E@std@@@std@@IBEXPAE0@Z 005ab900 f i MagicProcess.obj
 0002:0002fa60       ?_Parent@?$_Tree_comp_alloc@V?$_Tmap_traits@EU_BUFF_TYPE4_INFO@@U?$less@E@std@@V?$allocator@U?$pair@$$CBEU_BUFF_TYPE4_INFO@@@std@@@3@$0A@@std@@@std@@SAAAPAU?$_Tree_node@U?$pair@$$CBEU_BUFF_TYPE4_INFO@@@std@@PAX@2@PAU32@@Z 005aba60 f i MagicProcess.obj
 0002:0002fab0       ?_Parent@?$_Tree_comp_alloc@V?$_Tmap_traits@IPAU_MAGIC_TABLE@@U?$less@I@std@@V?$allocator@U?$pair@$$CBIPAU_MAGIC_TABLE@@@std@@@3@$0A@@std@@@std@@SAAAPAU?$_Tree_node@U?$pair@$$CBIPAU_MAGIC_TABLE@@@std@@PAX@2@PAU32@@Z 005abab0 f i MagicProcess.obj
 0002:0002fb00       ?_Parent@?$_Tree_comp_alloc@V?$_Tmap_traits@IPAU_MAGIC_TYPE4@@U?$less@I@std@@V?$allocator@U?$pair@$$CBIPAU_MAGIC_TYPE4@@@std@@@3@$0A@@std@@@std@@SAAAPAU?$_Tree_node@U?$pair@$$CBIPAU_MAGIC_TYPE4@@@std@@PAX@2@PAU32@@Z 005abb00 f i MagicProcess.obj
 0002:0002fb50       ?_Parent@?$_Tree_val@U?$_Tree_simple_types@U?$pair@$$CBEU_BUFF_TYPE4_INFO@@@std@@@std@@@std@@SAAAPAU?$_Tree_node@U?$pair@$$CBEU_BUFF_TYPE4_INFO@@@std@@PAX@2@PAU32@@Z 005abb50 f i MagicProcess.obj
 0002:0002fb90       ?_Parent@?$_Tree_val@U?$_Tree_simple_types@U?$pair@$$CBIPAU_MAGIC_TABLE@@@std@@@std@@@std@@SAAAPAU?$_Tree_node@U?$pair@$$CBIPAU_MAGIC_TABLE@@@std@@PAX@2@PAU32@@Z 005abb90 f i MagicProcess.obj
 0002:0002fbd0       ?_Parent@?$_Tree_val@U?$_Tree_simple_types@U?$pair@$$CBIPAU_MAGIC_TYPE4@@@std@@@std@@@std@@SAAAPAU?$_Tree_node@U?$pair@$$CBIPAU_MAGIC_TYPE4@@@std@@PAX@2@PAU32@@Z 005abbd0 f i MagicProcess.obj
 0002:0002fc10       ?_Pop_back_n@?$vector@EV?$allocator@E@std@@@std@@QAEXI@Z 005abc10 f i MagicProcess.obj
 0002:0002fcc0       ?_Reallocate@?$vector@EV?$allocator@E@std@@@std@@IAEXI@Z 005abcc0 f i MagicProcess.obj
 0002:0002fea0       ?_Reserve@?$vector@EV?$allocator@E@std@@@std@@IAEXI@Z 005abea0 f i MagicProcess.obj
 0002:0002ff50       ?_Right@?$_Tree_comp_alloc@V?$_Tmap_traits@EU_BUFF_TYPE4_INFO@@U?$less@E@std@@V?$allocator@U?$pair@$$CBEU_BUFF_TYPE4_INFO@@@std@@@3@$0A@@std@@@std@@SAAAPAU?$_Tree_node@U?$pair@$$CBEU_BUFF_TYPE4_INFO@@@std@@PAX@2@PAU32@@Z 005abf50 f i MagicProcess.obj
 0002:0002ffa0       ?_Right@?$_Tree_comp_alloc@V?$_Tmap_traits@IPAU_MAGIC_TABLE@@U?$less@I@std@@V?$allocator@U?$pair@$$CBIPAU_MAGIC_TABLE@@@std@@@3@$0A@@std@@@std@@SAAAPAU?$_Tree_node@U?$pair@$$CBIPAU_MAGIC_TABLE@@@std@@PAX@2@PAU32@@Z 005abfa0 f i MagicProcess.obj
 0002:0002fff0       ?_Right@?$_Tree_comp_alloc@V?$_Tmap_traits@IPAU_MAGIC_TYPE4@@U?$less@I@std@@V?$allocator@U?$pair@$$CBIPAU_MAGIC_TYPE4@@@std@@@3@$0A@@std@@@std@@SAAAPAU?$_Tree_node@U?$pair@$$CBIPAU_MAGIC_TYPE4@@@std@@PAX@2@PAU32@@Z 005abff0 f i MagicProcess.obj
 0002:00030040       ?_Right@?$_Tree_val@U?$_Tree_simple_types@U?$pair@$$CBEU_BUFF_TYPE4_INFO@@@std@@@std@@@std@@SAAAPAU?$_Tree_node@U?$pair@$$CBEU_BUFF_TYPE4_INFO@@@std@@PAX@2@PAU32@@Z 005ac040 f i MagicProcess.obj
 0002:00030080       ?_Right@?$_Tree_val@U?$_Tree_simple_types@U?$pair@$$CBIPAU_MAGIC_TABLE@@@std@@@std@@@std@@SAAAPAU?$_Tree_node@U?$pair@$$CBIPAU_MAGIC_TABLE@@@std@@PAX@2@PAU32@@Z 005ac080 f i MagicProcess.obj
 0002:000300c0       ?_Right@?$_Tree_val@U?$_Tree_simple_types@U?$pair@$$CBIPAU_MAGIC_TYPE4@@@std@@@std@@@std@@SAAAPAU?$_Tree_node@U?$pair@$$CBIPAU_MAGIC_TYPE4@@@std@@PAX@2@PAU32@@Z 005ac0c0 f i MagicProcess.obj
 0002:00030100       ?_Rmost@?$_Tree@V?$_Tmap_traits@EU_BUFF_TYPE4_INFO@@U?$less@E@std@@V?$allocator@U?$pair@$$CBEU_BUFF_TYPE4_INFO@@@std@@@3@$0A@@std@@@std@@IBEAAPAU?$_Tree_node@U?$pair@$$CBEU_BUFF_TYPE4_INFO@@@std@@PAX@2@XZ 005ac100 f i MagicProcess.obj
 0002:00030160       ?_Root@?$_Tree@V?$_Tmap_traits@EU_BUFF_TYPE4_INFO@@U?$less@E@std@@V?$allocator@U?$pair@$$CBEU_BUFF_TYPE4_INFO@@@std@@@3@$0A@@std@@@std@@IBEAAPAU?$_Tree_node@U?$pair@$$CBEU_BUFF_TYPE4_INFO@@@std@@PAX@2@XZ 005ac160 f i MagicProcess.obj
 0002:000301c0       ?_Root@?$_Tree@V?$_Tmap_traits@IPAU_MAGIC_TABLE@@U?$less@I@std@@V?$allocator@U?$pair@$$CBIPAU_MAGIC_TABLE@@@std@@@3@$0A@@std@@@std@@IBEAAPAU?$_Tree_node@U?$pair@$$CBIPAU_MAGIC_TABLE@@@std@@PAX@2@XZ 005ac1c0 f i MagicProcess.obj
 0002:00030220       ?_Root@?$_Tree@V?$_Tmap_traits@IPAU_MAGIC_TYPE4@@U?$less@I@std@@V?$allocator@U?$pair@$$CBIPAU_MAGIC_TYPE4@@@std@@@3@$0A@@std@@@std@@IBEAAPAU?$_Tree_node@U?$pair@$$CBIPAU_MAGIC_TYPE4@@@std@@PAX@2@XZ 005ac220 f i MagicProcess.obj
 0002:00030280       ?_Rrotate@?$_Tree@V?$_Tmap_traits@EU_BUFF_TYPE4_INFO@@U?$less@E@std@@V?$allocator@U?$pair@$$CBEU_BUFF_TYPE4_INFO@@@std@@@3@$0A@@std@@@std@@IAEXPAU?$_Tree_node@U?$pair@$$CBEU_BUFF_TYPE4_INFO@@@std@@PAX@2@@Z 005ac280 f i MagicProcess.obj
 0002:00030430       ?_Tidy@?$vector@EV?$allocator@E@std@@@std@@IAEXXZ 005ac430 f i MagicProcess.obj
 0002:00030530       ?_Unused_capacity@?$vector@EV?$allocator@E@std@@@std@@QBEIXZ 005ac530 f i MagicProcess.obj
 0002:000305a0       ?_Xlen@?$vector@EV?$allocator@E@std@@@std@@IBEXXZ 005ac5a0 f i MagicProcess.obj
 0002:00030600       ?__empty_global_delete@@YAXPAX@Z 005ac600 f i MagicProcess.obj
 0002:00030630       ?__empty_global_delete@@YAXPAXI@Z 005ac630 f i MagicProcess.obj
 0002:00030630       ?__global_delete@@YAXPAXI@Z 005ac630 f i MagicProcess.obj
 0002:00030660       ?allocate@?$_Wrap_alloc@V?$allocator@E@std@@@std@@QAEPAEI@Z 005ac660 f i MagicProcess.obj
 0002:000306c0       ?allocate@?$_Wrap_alloc@V?$allocator@U_Container_proxy@std@@@std@@@std@@QAEPAU_Container_proxy@2@I@Z 005ac6c0 f i MagicProcess.obj
 0002:00030720       ?allocate@?$allocator@E@std@@QAEPAEI@Z 005ac720 f i MagicProcess.obj
 0002:00030780       ?allocate@?$allocator@U_Container_proxy@std@@@std@@QAEPAU_Container_proxy@2@I@Z 005ac780 f i MagicProcess.obj
 0002:000307e0       ?append@ByteBuffer@@QAEXPBXI@Z 005ac7e0 f i MagicProcess.obj
 0002:000308e0       ?capacity@?$vector@EV?$allocator@E@std@@@std@@QBEIXZ 005ac8e0 f i MagicProcess.obj
 0002:00030950       ?deallocate@?$_Wrap_alloc@V?$allocator@E@std@@@std@@QAEXPAEI@Z 005ac950 f i MagicProcess.obj
 0002:000309b0       ?deallocate@?$_Wrap_alloc@V?$allocator@U?$_Tree_node@U?$pair@$$CBEU_BUFF_TYPE4_INFO@@@std@@PAX@std@@@std@@@std@@QAEXPAU?$_Tree_node@U?$pair@$$CBEU_BUFF_TYPE4_INFO@@@std@@PAX@2@I@Z 005ac9b0 f i MagicProcess.obj
 0002:00030a10       ?deallocate@?$_Wrap_alloc@V?$allocator@U_Container_proxy@std@@@std@@@std@@QAEXPAU_Container_proxy@2@I@Z 005aca10 f i MagicProcess.obj
 0002:00030a70       ?deallocate@?$allocator@E@std@@QAEXPAEI@Z 005aca70 f i MagicProcess.obj
 0002:00030ad0       ?deallocate@?$allocator@U?$_Tree_node@U?$pair@$$CBEU_BUFF_TYPE4_INFO@@@std@@PAX@std@@@std@@QAEXPAU?$_Tree_node@U?$pair@$$CBEU_BUFF_TYPE4_INFO@@@std@@PAX@2@I@Z 005acad0 f i MagicProcess.obj
 0002:00030b30       ?deallocate@?$allocator@U_Container_proxy@std@@@std@@QAEXPAU_Container_proxy@2@I@Z 005acb30 f i MagicProcess.obj
 0002:00030b90       ?end@?$_Tree@V?$_Tmap_traits@EU_BUFF_TYPE4_INFO@@U?$less@E@std@@V?$allocator@U?$pair@$$CBEU_BUFF_TYPE4_INFO@@@std@@@3@$0A@@std@@@std@@QAE?AV?$_Tree_iterator@V?$_Tree_val@U?$_Tree_simple_types@U?$pair@$$CBEU_BUFF_TYPE4_INFO@@@std@@@std@@@std@@@2@XZ 005acb90 f i MagicProcess.obj
 0002:00030c40       ?end@?$_Tree@V?$_Tmap_traits@IPAU_MAGIC_TABLE@@U?$less@I@std@@V?$allocator@U?$pair@$$CBIPAU_MAGIC_TABLE@@@std@@@3@$0A@@std@@@std@@QAE?AV?$_Tree_iterator@V?$_Tree_val@U?$_Tree_simple_types@U?$pair@$$CBIPAU_MAGIC_TABLE@@@std@@@std@@@std@@@2@XZ 005acc40 f i MagicProcess.obj
 0002:00030cf0       ?end@?$_Tree@V?$_Tmap_traits@IPAU_MAGIC_TYPE4@@U?$less@I@std@@V?$allocator@U?$pair@$$CBIPAU_MAGIC_TYPE4@@@std@@@3@$0A@@std@@@std@@QAE?AV?$_Tree_iterator@V?$_Tree_val@U?$_Tree_simple_types@U?$pair@$$CBIPAU_MAGIC_TYPE4@@@std@@@std@@@std@@@2@XZ 005accf0 f i MagicProcess.obj
 0002:00030da0       ?erase@?$_Tree@V?$_Tmap_traits@EU_BUFF_TYPE4_INFO@@U?$less@E@std@@V?$allocator@U?$pair@$$CBEU_BUFF_TYPE4_INFO@@@std@@@3@$0A@@std@@@std@@QAE?AV?$_Tree_iterator@V?$_Tree_val@U?$_Tree_simple_types@U?$pair@$$CBEU_BUFF_TYPE4_INFO@@@std@@@std@@@std@@@2@V?$_Tree_const_iterator@V?$_Tree_val@U?$_Tree_simple_types@U?$pair@$$CBEU_BUFF_TYPE4_INFO@@@std@@@std@@@std@@@2@@Z 005acda0 f i MagicProcess.obj
 0002:00031830       ?find@?$_Tree@V?$_Tmap_traits@EU_BUFF_TYPE4_INFO@@U?$less@E@std@@V?$allocator@U?$pair@$$CBEU_BUFF_TYPE4_INFO@@@std@@@3@$0A@@std@@@std@@QAE?AV?$_Tree_iterator@V?$_Tree_val@U?$_Tree_simple_types@U?$pair@$$CBEU_BUFF_TYPE4_INFO@@@std@@@std@@@std@@@2@ABE@Z 005ad830 f i MagicProcess.obj
 0002:00031b40       ?find@?$_Tree@V?$_Tmap_traits@IPAU_MAGIC_TABLE@@U?$less@I@std@@V?$allocator@U?$pair@$$CBIPAU_MAGIC_TABLE@@@std@@@3@$0A@@std@@@std@@QAE?AV?$_Tree_iterator@V?$_Tree_val@U?$_Tree_simple_types@U?$pair@$$CBIPAU_MAGIC_TABLE@@@std@@@std@@@std@@@2@ABI@Z 005adb40 f i MagicProcess.obj
 0002:00031e50       ?find@?$_Tree@V?$_Tmap_traits@IPAU_MAGIC_TYPE4@@U?$less@I@std@@V?$allocator@U?$pair@$$CBIPAU_MAGIC_TYPE4@@@std@@@3@$0A@@std@@@std@@QAE?AV?$_Tree_iterator@V?$_Tree_val@U?$_Tree_simple_types@U?$pair@$$CBIPAU_MAGIC_TYPE4@@@std@@@std@@@std@@@2@ABI@Z 005ade50 f i MagicProcess.obj
 0002:00032160       ?isBuff@_BUFF_TYPE4_INFO@@QAE_NXZ 005ae160 f i MagicProcess.obj
 0002:000321a0       ?isInClan@CUser@@QAE_NXZ   005ae1a0 f i MagicProcess.obj
 0002:000321e0       ?isInParty@CUser@@QAE_NXZ  005ae1e0 f i MagicProcess.obj
 0002:00032250       ?isInTempleEventZone@Unit@@QAE_NE@Z 005ae250 f i MagicProcess.obj
 0002:00032300       ?isNPC@Unit@@QAE_NXZ       005ae300 f i MagicProcess.obj
 0002:00032380       ?isPlayer@Unit@@QAE_NXZ    005ae380 f i MagicProcess.obj
 0002:00032400       ?isWarZone@MAP@@QAE_NXZ    005ae400 f i MagicProcess.obj
 0002:00032470       ?lock@_Mutex_base@std@@QAEXXZ 005ae470 f i MagicProcess.obj
 0002:000324d0       ?lower_bound@?$_Tree@V?$_Tmap_traits@EU_BUFF_TYPE4_INFO@@U?$less@E@std@@V?$allocator@U?$pair@$$CBEU_BUFF_TYPE4_INFO@@@std@@@3@$0A@@std@@@std@@QAE?AV?$_Tree_iterator@V?$_Tree_val@U?$_Tree_simple_types@U?$pair@$$CBEU_BUFF_TYPE4_INFO@@@std@@@std@@@std@@@2@ABE@Z 005ae4d0 f i MagicProcess.obj
 0002:00032560       ?lower_bound@?$_Tree@V?$_Tmap_traits@IPAU_MAGIC_TABLE@@U?$less@I@std@@V?$allocator@U?$pair@$$CBIPAU_MAGIC_TABLE@@@std@@@3@$0A@@std@@@std@@QAE?AV?$_Tree_iterator@V?$_Tree_val@U?$_Tree_simple_types@U?$pair@$$CBIPAU_MAGIC_TABLE@@@std@@@std@@@std@@@2@ABI@Z 005ae560 f i MagicProcess.obj
 0002:000325f0       ?lower_bound@?$_Tree@V?$_Tmap_traits@IPAU_MAGIC_TYPE4@@U?$less@I@std@@V?$allocator@U?$pair@$$CBIPAU_MAGIC_TYPE4@@@std@@@3@$0A@@std@@@std@@QAE?AV?$_Tree_iterator@V?$_Tree_val@U?$_Tree_simple_types@U?$pair@$$CBIPAU_MAGIC_TYPE4@@@std@@@std@@@std@@@2@ABI@Z 005ae5f0 f i MagicProcess.obj
 0002:00032680       ?max_size@?$_Wrap_alloc@V?$allocator@E@std@@@std@@QBEIU_Nil@2@@Z 005ae680 f i MagicProcess.obj
 0002:000326e0       ?max_size@?$allocator@E@std@@QBEIXZ 005ae6e0 f i MagicProcess.obj
 0002:00032720       ?max_size@?$allocator_traits@V?$allocator@E@std@@@std@@SAIABV?$allocator@E@2@@Z 005ae720 f i MagicProcess.obj
 0002:00032770       ?max_size@?$vector@EV?$allocator@E@std@@@std@@QBEIXZ 005ae770 f i MagicProcess.obj
 0002:000327e0       ?pointer_to@?$pointer_traits@PAU?$pair@$$CBEU_BUFF_TYPE4_INFO@@@std@@@std@@SAPAU?$pair@$$CBEU_BUFF_TYPE4_INFO@@@2@AAU32@@Z 005ae7e0 f i MagicProcess.obj
 0002:00032830       ?pointer_to@?$pointer_traits@PAU?$pair@$$CBIPAU_MAGIC_TABLE@@@std@@@std@@SAPAU?$pair@$$CBIPAU_MAGIC_TABLE@@@2@AAU32@@Z 005ae830 f i MagicProcess.obj
 0002:00032880       ?pointer_to@?$pointer_traits@PAU?$pair@$$CBIPAU_MAGIC_TYPE4@@@std@@@std@@SAPAU?$pair@$$CBIPAU_MAGIC_TYPE4@@@2@AAU32@@Z 005ae880 f i MagicProcess.obj
 0002:000328d0       ?reserve@?$vector@EV?$allocator@E@std@@@std@@QAEXI@Z 005ae8d0 f i MagicProcess.obj
 0002:00032950       ?resize@?$vector@EV?$allocator@E@std@@@std@@QAEXI@Z 005ae950 f i MagicProcess.obj
 0002:00032ae0       ?size@?$vector@EV?$allocator@E@std@@@std@@QBEIXZ 005aeae0 f i MagicProcess.obj
 0002:00032b50       ?size@ByteBuffer@@QBEIXZ   005aeb50 f i MagicProcess.obj
 0002:00032bb0       ?unlock@_Mutex_base@std@@QAEXXZ 005aebb0 f i MagicProcess.obj
 0002:00032c10       ___local_stdio_printf_options 005aec10 f i MagicProcess.obj
 0002:00032c50       __vfprintf_l               005aec50 f i MagicProcess.obj
 0002:00032cc0       _printf                    005aecc0 f i MagicProcess.obj
 0002:00032d40       ??$?0$$V@?$_Compressed_pair@U?$_Wrap_alloc@V?$allocator@U?$_Tree_node@U?$pair@$$CBEU_BUFF_TYPE4_INFO@@@std@@PAX@std@@@std@@@std@@V?$_Tree_val@U?$_Tree_simple_types@U?$pair@$$CBEU_BUFF_TYPE4_INFO@@@std@@@std@@@2@$00@std@@QAE@U_Zero_then_variadic_args_t@1@@Z 005aed40 f i Unit.obj
 0002:00032da0       ??$?0$$V@?$_Compressed_pair@U?$_Wrap_alloc@V?$allocator@U?$_Tree_node@U?$pair@$$CBEU_BUFF_TYPE9_INFO@@@std@@PAX@std@@@std@@@std@@V?$_Tree_val@U?$_Tree_simple_types@U?$pair@$$CBEU_BUFF_TYPE9_INFO@@@std@@@std@@@2@$00@std@@QAE@U_Zero_then_variadic_args_t@1@@Z 005aeda0 f i Unit.obj
 0002:00032e00       ??$?0$$V@?$_Compressed_pair@U?$_Wrap_alloc@V?$allocator@U?$_Tree_node@U?$pair@$$CBEV?$map@EFU?$less@E@std@@V?$allocator@U?$pair@$$CBEF@std@@@2@@std@@@std@@PAX@std@@@std@@@std@@V?$_Tree_val@U?$_Tree_simple_types@U?$pair@$$CBEV?$map@EFU?$less@E@std@@V?$allocator@U?$pair@$$CBEF@std@@@2@@std@@@std@@@std@@@2@$00@std@@QAE@U_Zero_then_variadic_args_t@1@@Z 005aee00 f i Unit.obj
 0002:00032e60       ??$?0AAEAAU_BUFF_TYPE4_INFO@@X$0A@@?$pair@EU_BUFF_TYPE4_INFO@@@std@@QAE@AAEAAU_BUFF_TYPE4_INFO@@@Z 005aee60 f i Unit.obj
 0002:00032f00       ??$?0AAU?$_Wrap_alloc@V?$allocator@U?$_Tree_node@U?$pair@$$CBEF@std@@PAX@std@@@std@@@std@@@?$_Wrap_alloc@V?$allocator@U_Container_proxy@std@@@std@@@std@@QAE@AAU?$_Wrap_alloc@V?$allocator@U?$_Tree_node@U?$pair@$$CBEF@std@@PAX@std@@@std@@@1@@Z 005aef00 f i Unit.obj
 0002:00032f70       ??$?0AAU?$_Wrap_alloc@V?$allocator@U?$_Tree_node@U?$pair@$$CBEU_BUFF_TYPE4_INFO@@@std@@PAX@std@@@std@@@std@@@?$_Wrap_alloc@V?$allocator@U_Container_proxy@std@@@std@@@std@@QAE@AAU?$_Wrap_alloc@V?$allocator@U?$_Tree_node@U?$pair@$$CBEU_BUFF_TYPE4_INFO@@@std@@PAX@std@@@std@@@1@@Z 005aef70 f i Unit.obj
 0002:00032fe0       ??$?0AAU?$_Wrap_alloc@V?$allocator@U?$_Tree_node@U?$pair@$$CBEU_BUFF_TYPE9_INFO@@@std@@PAX@std@@@std@@@std@@@?$_Wrap_alloc@V?$allocator@U_Container_proxy@std@@@std@@@std@@QAE@AAU?$_Wrap_alloc@V?$allocator@U?$_Tree_node@U?$pair@$$CBEU_BUFF_TYPE9_INFO@@@std@@PAX@std@@@std@@@1@@Z 005aefe0 f i Unit.obj
 0002:00033050       ??$?0AAU?$_Wrap_alloc@V?$allocator@U?$_Tree_node@U?$pair@$$CBEV?$map@EFU?$less@E@std@@V?$allocator@U?$pair@$$CBEF@std@@@2@@std@@@std@@PAX@std@@@std@@@std@@@?$_Wrap_alloc@V?$allocator@U_Container_proxy@std@@@std@@@std@@QAE@AAU?$_Wrap_alloc@V?$allocator@U?$_Tree_node@U?$pair@$$CBEV?$map@EFU?$less@E@std@@V?$allocator@U?$pair@$$CBEF@std@@@2@@std@@@std@@PAX@std@@@std@@@1@@Z 005af050 f i Unit.obj
 0002:000330c0       ??$?0AAV?$_Tree_iterator@V?$_Tree_val@U?$_Tree_simple_types@U?$pair@$$CBEU_BUFF_TYPE4_INFO@@@std@@@std@@@std@@@std@@_NX$0A@@?$pair@V?$_Tree_iterator@V?$_Tree_val@U?$_Tree_simple_types@U?$pair@$$CBEU_BUFF_TYPE4_INFO@@@std@@@std@@@std@@@std@@_N@std@@QAE@AAV?$_Tree_iterator@V?$_Tree_val@U?$_Tree_simple_types@U?$pair@$$CBEU_BUFF_TYPE4_INFO@@@std@@@std@@@std@@@1@$$QA_N@Z 005af0c0 f i Unit.obj
 0002:00033140       ??$?0ABU?$less@E@std@@U_One_then_variadic_args_t@1@ABV?$allocator@U?$pair@$$CBEU_BUFF_TYPE4_INFO@@@std@@@1@@?$_Compressed_pair@U?$less@E@std@@V?$_Compressed_pair@U?$_Wrap_alloc@V?$allocator@U?$_Tree_node@U?$pair@$$CBEU_BUFF_TYPE4_INFO@@@std@@PAX@std@@@std@@@std@@V?$_Tree_val@U?$_Tree_simple_types@U?$pair@$$CBEU_BUFF_TYPE4_INFO@@@std@@@std@@@2@$00@2@$00@std@@QAE@U_One_then_variadic_args_t@1@ABU?$less@E@1@$$QAU21@ABV?$allocator@U?$pair@$$CBEU_BUFF_TYPE4_INFO@@@std@@@1@@Z 005af140 f i Unit.obj
 0002:000331d0       ??$?0ABU?$less@E@std@@U_Zero_then_variadic_args_t@1@@?$_Compressed_pair@U?$less@E@std@@V?$_Compressed_pair@U?$_Wrap_alloc@V?$allocator@U?$_Tree_node@U?$pair@$$CBEU_BUFF_TYPE4_INFO@@@std@@PAX@std@@@std@@@std@@V?$_Tree_val@U?$_Tree_simple_types@U?$pair@$$CBEU_BUFF_TYPE4_INFO@@@std@@@std@@@2@$00@2@$00@std@@QAE@U_One_then_variadic_args_t@1@ABU?$less@E@1@$$QAU_Zero_then_variadic_args_t@1@@Z 005af1d0 f i Unit.obj
 0002:00033250       ??$?0ABU?$less@E@std@@U_Zero_then_variadic_args_t@1@@?$_Compressed_pair@U?$less@E@std@@V?$_Compressed_pair@U?$_Wrap_alloc@V?$allocator@U?$_Tree_node@U?$pair@$$CBEU_BUFF_TYPE9_INFO@@@std@@PAX@std@@@std@@@std@@V?$_Tree_val@U?$_Tree_simple_types@U?$pair@$$CBEU_BUFF_TYPE9_INFO@@@std@@@std@@@2@$00@2@$00@std@@QAE@U_One_then_variadic_args_t@1@ABU?$less@E@1@$$QAU_Zero_then_variadic_args_t@1@@Z 005af250 f i Unit.obj
 0002:000332d0       ??$?0ABU?$less@E@std@@U_Zero_then_variadic_args_t@1@@?$_Compressed_pair@U?$less@E@std@@V?$_Compressed_pair@U?$_Wrap_alloc@V?$allocator@U?$_Tree_node@U?$pair@$$CBEV?$map@EFU?$less@E@std@@V?$allocator@U?$pair@$$CBEF@std@@@2@@std@@@std@@PAX@std@@@std@@@std@@V?$_Tree_val@U?$_Tree_simple_types@U?$pair@$$CBEV?$map@EFU?$less@E@std@@V?$allocator@U?$pair@$$CBEF@std@@@2@@std@@@std@@@std@@@2@$00@2@$00@std@@QAE@U_One_then_variadic_args_t@1@ABU?$less@E@1@$$QAU_Zero_then_variadic_args_t@1@@Z 005af2d0 f i Unit.obj
 0002:00033350       ??$?0ABV?$allocator@U?$pair@$$CBEU_BUFF_TYPE4_INFO@@@std@@@std@@$$V@?$_Compressed_pair@U?$_Wrap_alloc@V?$allocator@U?$_Tree_node@U?$pair@$$CBEU_BUFF_TYPE4_INFO@@@std@@PAX@std@@@std@@@std@@V?$_Tree_val@U?$_Tree_simple_types@U?$pair@$$CBEU_BUFF_TYPE4_INFO@@@std@@@std@@@2@$00@std@@QAE@U_One_then_variadic_args_t@1@ABV?$allocator@U?$pair@$$CBEU_BUFF_TYPE4_INFO@@@std@@@1@@Z 005af350 f i Unit.obj
 0002:000333c0       ??$?0ABV?$allocator@U?$pair@$$CBEU_BUFF_TYPE4_INFO@@@std@@@std@@@?$_Tree_comp_alloc@V?$_Tmap_traits@EU_BUFF_TYPE4_INFO@@U?$less@E@std@@V?$allocator@U?$pair@$$CBEU_BUFF_TYPE4_INFO@@@std@@@3@$0A@@std@@@std@@QAE@ABU?$less@E@1@ABV?$allocator@U?$pair@$$CBEU_BUFF_TYPE4_INFO@@@std@@@1@@Z 005af3c0 f i Unit.obj
 0002:00033490       ??$?0ABV?$allocator@U?$pair@$$CBEU_BUFF_TYPE4_INFO@@@std@@@std@@@?$_Wrap_alloc@V?$allocator@U?$_Tree_node@U?$pair@$$CBEU_BUFF_TYPE4_INFO@@@std@@PAX@std@@@std@@@std@@QAE@ABV?$allocator@U?$pair@$$CBEU_BUFF_TYPE4_INFO@@@std@@@1@@Z 005af490 f i Unit.obj
 0002:00033500       ??$?0EU_BUFF_TYPE4_INFO@@X$0A@@?$pair@$$CBEU_BUFF_TYPE4_INFO@@@std@@QAE@$$QAU?$pair@EU_BUFF_TYPE4_INFO@@@1@@Z 005af500 f i Unit.obj
 0002:000335a0       ??$?0U?$_Tree_node@U?$pair@$$CBEF@std@@PAX@std@@@?$allocator@U_Container_proxy@std@@@std@@QAE@ABV?$allocator@U?$_Tree_node@U?$pair@$$CBEF@std@@PAX@std@@@1@@Z 005af5a0 f i Unit.obj
 0002:000335e0       ??$?0U?$_Tree_node@U?$pair@$$CBEU_BUFF_TYPE4_INFO@@@std@@PAX@std@@@?$allocator@U?$pair@$$CBEU_BUFF_TYPE4_INFO@@@std@@@std@@QAE@ABV?$allocator@U?$_Tree_node@U?$pair@$$CBEU_BUFF_TYPE4_INFO@@@std@@PAX@std@@@1@@Z 005af5e0 f i Unit.obj
 0002:00033620       ??$?0U?$_Tree_node@U?$pair@$$CBEU_BUFF_TYPE4_INFO@@@std@@PAX@std@@@?$allocator@U_Container_proxy@std@@@std@@QAE@ABV?$allocator@U?$_Tree_node@U?$pair@$$CBEU_BUFF_TYPE4_INFO@@@std@@PAX@std@@@1@@Z 005af620 f i Unit.obj
 0002:00033660       ??$?0U?$_Tree_node@U?$pair@$$CBEU_BUFF_TYPE9_INFO@@@std@@PAX@std@@@?$allocator@U_Container_proxy@std@@@std@@QAE@ABV?$allocator@U?$_Tree_node@U?$pair@$$CBEU_BUFF_TYPE9_INFO@@@std@@PAX@std@@@1@@Z 005af660 f i Unit.obj
 0002:000336a0       ??$?0U?$_Tree_node@U?$pair@$$CBEV?$map@EFU?$less@E@std@@V?$allocator@U?$pair@$$CBEF@std@@@2@@std@@@std@@PAX@std@@@?$allocator@U_Container_proxy@std@@@std@@QAE@ABV?$allocator@U?$_Tree_node@U?$pair@$$CBEV?$map@EFU?$less@E@std@@V?$allocator@U?$pair@$$CBEF@std@@@2@@std@@@std@@PAX@std@@@1@@Z 005af6a0 f i Unit.obj
 0002:000336e0       ??$?0U?$pair@$$CBEU_BUFF_TYPE4_INFO@@@std@@@?$allocator@U?$_Tree_node@U?$pair@$$CBEU_BUFF_TYPE4_INFO@@@std@@PAX@std@@@std@@QAE@ABV?$allocator@U?$pair@$$CBEU_BUFF_TYPE4_INFO@@@std@@@1@@Z 005af6e0 f i Unit.obj
 0002:00033720       ??$?0V?$_Tree_iterator@V?$_Tree_val@U?$_Tree_simple_types@U?$pair@$$CBEU_BUFF_TYPE4_INFO@@@std@@@std@@@std@@@std@@_NX$0A@@?$pair@V?$_Tree_iterator@V?$_Tree_val@U?$_Tree_simple_types@U?$pair@$$CBEU_BUFF_TYPE4_INFO@@@std@@@std@@@std@@@std@@_N@std@@QAE@$$QAV?$_Tree_iterator@V?$_Tree_val@U?$_Tree_simple_types@U?$pair@$$CBEU_BUFF_TYPE4_INFO@@@std@@@std@@@std@@@1@$$QA_N@Z 005af720 f i Unit.obj
 0002:000337a0       ??$?0V?$allocator@U?$_Tree_node@U?$pair@$$CBEU_BUFF_TYPE4_INFO@@@std@@PAX@std@@@std@@@?$_Wrap_alloc@V?$allocator@U?$_Tree_node@U?$pair@$$CBEU_BUFF_TYPE4_INFO@@@std@@PAX@std@@@std@@@std@@QAE@$$QAV?$allocator@U?$_Tree_node@U?$pair@$$CBEU_BUFF_TYPE4_INFO@@@std@@PAX@std@@@1@@Z 005af7a0 f i Unit.obj
 0002:00033810       ??$_Addressof@PAU?$_Tree_node@U?$pair@$$CBEF@std@@PAX@std@@@std@@YAPAPAU?$_Tree_node@U?$pair@$$CBEF@std@@PAX@0@AAPAU10@U?$integral_constant@_N$0A@@0@@Z 005af810 f i Unit.obj
 0002:00033850       ??$_Addressof@PAU?$_Tree_node@U?$pair@$$CBEU_BUFF_TYPE4_INFO@@@std@@PAX@std@@@std@@YAPAPAU?$_Tree_node@U?$pair@$$CBEU_BUFF_TYPE4_INFO@@@std@@PAX@0@AAPAU10@U?$integral_constant@_N$0A@@0@@Z 005af850 f i Unit.obj
 0002:00033890       ??$_Addressof@PAU?$_Tree_node@U?$pair@$$CBEU_BUFF_TYPE9_INFO@@@std@@PAX@std@@@std@@YAPAPAU?$_Tree_node@U?$pair@$$CBEU_BUFF_TYPE9_INFO@@@std@@PAX@0@AAPAU10@U?$integral_constant@_N$0A@@0@@Z 005af890 f i Unit.obj
 0002:000338d0       ??$_Addressof@PAU?$_Tree_node@U?$pair@$$CBEV?$map@EFU?$less@E@std@@V?$allocator@U?$pair@$$CBEF@std@@@2@@std@@@std@@PAX@std@@@std@@YAPAPAU?$_Tree_node@U?$pair@$$CBEV?$map@EFU?$less@E@std@@V?$allocator@U?$pair@$$CBEF@std@@@2@@std@@@std@@PAX@0@AAPAU10@U?$integral_constant@_N$0A@@0@@Z 005af8d0 f i Unit.obj
 0002:00033910       ??$_Addressof@U?$pair@$$CBEF@std@@@std@@YAPAU?$pair@$$CBEF@0@AAU10@U?$integral_constant@_N$0A@@0@@Z 005af910 f i Unit.obj
 0002:00033950       ??$_Addressof@U?$pair@$$CBEU_BUFF_TYPE9_INFO@@@std@@@std@@YAPAU?$pair@$$CBEU_BUFF_TYPE9_INFO@@@0@AAU10@U?$integral_constant@_N$0A@@0@@Z 005af950 f i Unit.obj
 0002:00033990       ??$_Addressof@U?$pair@$$CBEV?$map@EFU?$less@E@std@@V?$allocator@U?$pair@$$CBEF@std@@@2@@std@@@std@@@std@@YAPAU?$pair@$$CBEV?$map@EFU?$less@E@std@@V?$allocator@U?$pair@$$CBEF@std@@@2@@std@@@0@AAU10@U?$integral_constant@_N$0A@@0@@Z 005af990 f i Unit.obj
 0002:000339d0       ??$_Addressof@U?$pair@$$CBIPAU_MAGIC_TYPE1@@@std@@@std@@YAPAU?$pair@$$CBIPAU_MAGIC_TYPE1@@@0@AAU10@U?$integral_constant@_N$0A@@0@@Z 005af9d0 f i Unit.obj
 0002:00033a10       ??$_Addressof@U?$pair@$$CBIPAU_MAGIC_TYPE2@@@std@@@std@@YAPAU?$pair@$$CBIPAU_MAGIC_TYPE2@@@0@AAU10@U?$integral_constant@_N$0A@@0@@Z 005afa10 f i Unit.obj
 0002:00033a50       ??$_Buynode@AAU?$pair@$$CBEU_BUFF_TYPE4_INFO@@@std@@@?$_Tree_comp_alloc@V?$_Tmap_traits@EU_BUFF_TYPE4_INFO@@U?$less@E@std@@V?$allocator@U?$pair@$$CBEU_BUFF_TYPE4_INFO@@@std@@@3@$0A@@std@@@std@@QAEPAU?$_Tree_node@U?$pair@$$CBEU_BUFF_TYPE4_INFO@@@std@@PAX@1@AAU?$pair@$$CBEU_BUFF_TYPE4_INFO@@@1@@Z 005afa50 f i Unit.obj
 0002:00033ba0       ??$_Buynode@U?$pair@EU_BUFF_TYPE4_INFO@@@std@@@?$_Tree_comp_alloc@V?$_Tmap_traits@EU_BUFF_TYPE4_INFO@@U?$less@E@std@@V?$allocator@U?$pair@$$CBEU_BUFF_TYPE4_INFO@@@std@@@3@$0A@@std@@@std@@QAEPAU?$_Tree_node@U?$pair@$$CBEU_BUFF_TYPE4_INFO@@@std@@PAX@1@$$QAU?$pair@EU_BUFF_TYPE4_INFO@@@1@@Z 005afba0 f i Unit.obj
 0002:00033cf0       ??$_Buynode_if_nil@AAU?$pair@$$CBEU_BUFF_TYPE4_INFO@@@std@@@?$_Tree@V?$_Tmap_traits@EU_BUFF_TYPE4_INFO@@U?$less@E@std@@V?$allocator@U?$pair@$$CBEU_BUFF_TYPE4_INFO@@@std@@@3@$0A@@std@@@std@@IAEPAU?$_Tree_node@U?$pair@$$CBEU_BUFF_TYPE4_INFO@@@std@@PAX@1@PAU21@AAU?$pair@$$CBEU_BUFF_TYPE4_INFO@@@1@@Z 005afcf0 f i Unit.obj
 0002:00033d30       ??$_Copy@U_Copy_tag@?$_Tree@V?$_Tmap_traits@EU_BUFF_TYPE4_INFO@@U?$less@E@std@@V?$allocator@U?$pair@$$CBEU_BUFF_TYPE4_INFO@@@std@@@3@$0A@@std@@@std@@@?$_Tree@V?$_Tmap_traits@EU_BUFF_TYPE4_INFO@@U?$less@E@std@@V?$allocator@U?$pair@$$CBEU_BUFF_TYPE4_INFO@@@std@@@3@$0A@@std@@@std@@IAEXABV01@U_Copy_tag@01@@Z 005afd30 f i Unit.obj
 0002:00033e80       ??$_Copy_nodes@U_Copy_tag@?$_Tree@V?$_Tmap_traits@EU_BUFF_TYPE4_INFO@@U?$less@E@std@@V?$allocator@U?$pair@$$CBEU_BUFF_TYPE4_INFO@@@std@@@3@$0A@@std@@@std@@@?$_Tree@V?$_Tmap_traits@EU_BUFF_TYPE4_INFO@@U?$less@E@std@@V?$allocator@U?$pair@$$CBEU_BUFF_TYPE4_INFO@@@std@@@3@$0A@@std@@@std@@IAEPAU?$_Tree_node@U?$pair@$$CBEU_BUFF_TYPE4_INFO@@@std@@PAX@1@PAU21@0U_Copy_tag@01@@Z 005afe80 f i Unit.obj
 0002:000340f0       ??$_Copy_or_move@U?$pair@$$CBEU_BUFF_TYPE4_INFO@@@std@@U?$integral_constant@_N$0A@@2@@?$_Tree@V?$_Tmap_traits@EU_BUFF_TYPE4_INFO@@U?$less@E@std@@V?$allocator@U?$pair@$$CBEU_BUFF_TYPE4_INFO@@@std@@@3@$0A@@std@@@std@@IAEPAU?$_Tree_node@U?$pair@$$CBEU_BUFF_TYPE4_INFO@@@std@@PAX@1@AAU?$pair@$$CBEU_BUFF_TYPE4_INFO@@@1@U_Copy_tag@01@U?$integral_constant@_N$0A@@1@@Z 005b00f0 f i Unit.obj
 0002:00034150       ??$_Insert_at@AAU?$pair@$$CBEU_BUFF_TYPE4_INFO@@@std@@PAU?$_Tree_node@U?$pair@$$CBEU_BUFF_TYPE4_INFO@@@std@@PAX@2@@?$_Tree@V?$_Tmap_traits@EU_BUFF_TYPE4_INFO@@U?$less@E@std@@V?$allocator@U?$pair@$$CBEU_BUFF_TYPE4_INFO@@@std@@@3@$0A@@std@@@std@@IAE?AV?$_Tree_iterator@V?$_Tree_val@U?$_Tree_simple_types@U?$pair@$$CBEU_BUFF_TYPE4_INFO@@@std@@@std@@@std@@@1@_NPAU?$_Tree_node@U?$pair@$$CBEU_BUFF_TYPE4_INFO@@@std@@PAX@1@AAU?$pair@$$CBEU_BUFF_TYPE4_INFO@@@1@1@Z 005b0150 f i Unit.obj
 0002:00034700       ??$_Insert_nohint@AAU?$pair@$$CBEU_BUFF_TYPE4_INFO@@@std@@PAU?$_Tree_node@U?$pair@$$CBEU_BUFF_TYPE4_INFO@@@std@@PAX@2@@?$_Tree@V?$_Tmap_traits@EU_BUFF_TYPE4_INFO@@U?$less@E@std@@V?$allocator@U?$pair@$$CBEU_BUFF_TYPE4_INFO@@@std@@@3@$0A@@std@@@std@@IAE?AU?$pair@V?$_Tree_iterator@V?$_Tree_val@U?$_Tree_simple_types@U?$pair@$$CBEU_BUFF_TYPE4_INFO@@@std@@@std@@@std@@@std@@_N@1@_NAAU?$pair@$$CBEU_BUFF_TYPE4_INFO@@@1@PAU?$_Tree_node@U?$pair@$$CBEU_BUFF_TYPE4_INFO@@@std@@PAX@1@@Z 005b0700 f i Unit.obj
 0002:00034de0       ??$_Kfn@$$CBIPAU_MAGIC_TYPE1@@@?$_Tmap_traits@IPAU_MAGIC_TYPE1@@U?$less@I@std@@V?$allocator@U?$pair@$$CBIPAU_MAGIC_TYPE1@@@std@@@3@$0A@@std@@SAABIABU?$pair@$$CBIPAU_MAGIC_TYPE1@@@1@@Z 005b0de0 f i Unit.obj
 0002:00034e20       ??$_Kfn@$$CBIPAU_MAGIC_TYPE2@@@?$_Tmap_traits@IPAU_MAGIC_TYPE2@@U?$less@I@std@@V?$allocator@U?$pair@$$CBIPAU_MAGIC_TYPE2@@@std@@@3@$0A@@std@@SAABIABU?$pair@$$CBIPAU_MAGIC_TYPE2@@@1@@Z 005b0e20 f i Unit.obj
 0002:00034e60       ??$_Lbound@I@?$_Tree@V?$_Tmap_traits@IPAU_MAGIC_TYPE1@@U?$less@I@std@@V?$allocator@U?$pair@$$CBIPAU_MAGIC_TYPE1@@@std@@@3@$0A@@std@@@std@@IBEPAU?$_Tree_node@U?$pair@$$CBIPAU_MAGIC_TYPE1@@@std@@PAX@1@ABI@Z 005b0e60 f i Unit.obj
 0002:00034f50       ??$_Lbound@I@?$_Tree@V?$_Tmap_traits@IPAU_MAGIC_TYPE2@@U?$less@I@std@@V?$allocator@U?$pair@$$CBIPAU_MAGIC_TYPE2@@@std@@@3@$0A@@std@@@std@@IBEPAU?$_Tree_node@U?$pair@$$CBIPAU_MAGIC_TYPE2@@@std@@PAX@1@ABI@Z 005b0f50 f i Unit.obj
 0002:00035040       ??$addressof@PAU?$_Tree_node@U?$pair@$$CBEF@std@@PAX@std@@@std@@YAPAPAU?$_Tree_node@U?$pair@$$CBEF@std@@PAX@0@AAPAU10@@Z 005b1040 f i Unit.obj
 0002:000350a0       ??$addressof@PAU?$_Tree_node@U?$pair@$$CBEU_BUFF_TYPE4_INFO@@@std@@PAX@std@@@std@@YAPAPAU?$_Tree_node@U?$pair@$$CBEU_BUFF_TYPE4_INFO@@@std@@PAX@0@AAPAU10@@Z 005b10a0 f i Unit.obj
 0002:00035100       ??$addressof@PAU?$_Tree_node@U?$pair@$$CBEU_BUFF_TYPE9_INFO@@@std@@PAX@std@@@std@@YAPAPAU?$_Tree_node@U?$pair@$$CBEU_BUFF_TYPE9_INFO@@@std@@PAX@0@AAPAU10@@Z 005b1100 f i Unit.obj
 0002:00035160       ??$addressof@PAU?$_Tree_node@U?$pair@$$CBEV?$map@EFU?$less@E@std@@V?$allocator@U?$pair@$$CBEF@std@@@2@@std@@@std@@PAX@std@@@std@@YAPAPAU?$_Tree_node@U?$pair@$$CBEV?$map@EFU?$less@E@std@@V?$allocator@U?$pair@$$CBEF@std@@@2@@std@@@std@@PAX@0@AAPAU10@@Z 005b1160 f i Unit.obj
 0002:000351c0       ??$addressof@U?$pair@$$CBEF@std@@@std@@YAPAU?$pair@$$CBEF@0@AAU10@@Z 005b11c0 f i Unit.obj
 0002:00035220       ??$addressof@U?$pair@$$CBEU_BUFF_TYPE9_INFO@@@std@@@std@@YAPAU?$pair@$$CBEU_BUFF_TYPE9_INFO@@@0@AAU10@@Z 005b1220 f i Unit.obj
 0002:00035280       ??$addressof@U?$pair@$$CBEV?$map@EFU?$less@E@std@@V?$allocator@U?$pair@$$CBEF@std@@@2@@std@@@std@@@std@@YAPAU?$pair@$$CBEV?$map@EFU?$less@E@std@@V?$allocator@U?$pair@$$CBEF@std@@@2@@std@@@0@AAU10@@Z 005b1280 f i Unit.obj
 0002:000352e0       ??$addressof@U?$pair@$$CBIPAU_MAGIC_TYPE1@@@std@@@std@@YAPAU?$pair@$$CBIPAU_MAGIC_TYPE1@@@0@AAU10@@Z 005b12e0 f i Unit.obj
 0002:00035340       ??$addressof@U?$pair@$$CBIPAU_MAGIC_TYPE2@@@std@@@std@@YAPAU?$pair@$$CBIPAU_MAGIC_TYPE2@@@0@AAU10@@Z 005b1340 f i Unit.obj
 0002:000353a0       ??$append@F@ByteBuffer@@QAEXF@Z 005b13a0 f i Unit.obj
 0002:00035400       ??$append@G@ByteBuffer@@QAEXG@Z 005b1400 f i Unit.obj
 0002:00035460       ??$construct@PAU?$_Tree_node@U?$pair@$$CBEU_BUFF_TYPE4_INFO@@@std@@PAX@std@@AAPAU12@@?$_Wrap_alloc@V?$allocator@U?$_Tree_node@U?$pair@$$CBEU_BUFF_TYPE4_INFO@@@std@@PAX@std@@@std@@@std@@QAEXPAPAU?$_Tree_node@U?$pair@$$CBEU_BUFF_TYPE4_INFO@@@std@@PAX@1@AAPAU21@@Z 005b1460 f i Unit.obj
 0002:000354d0       ??$construct@PAU?$_Tree_node@U?$pair@$$CBEU_BUFF_TYPE4_INFO@@@std@@PAX@std@@AAPAU12@@?$allocator@U?$_Tree_node@U?$pair@$$CBEU_BUFF_TYPE4_INFO@@@std@@PAX@std@@@std@@QAEXPAPAU?$_Tree_node@U?$pair@$$CBEU_BUFF_TYPE4_INFO@@@std@@PAX@1@AAPAU21@@Z 005b14d0 f i Unit.obj
 0002:00035580       ??$construct@PAU?$_Tree_node@U?$pair@$$CBEU_BUFF_TYPE4_INFO@@@std@@PAX@std@@AAPAU12@@?$allocator_traits@V?$allocator@U?$_Tree_node@U?$pair@$$CBEU_BUFF_TYPE4_INFO@@@std@@PAX@std@@@std@@@std@@SAXAAV?$allocator@U?$_Tree_node@U?$pair@$$CBEU_BUFF_TYPE4_INFO@@@std@@PAX@std@@@1@PAPAU?$_Tree_node@U?$pair@$$CBEU_BUFF_TYPE4_INFO@@@std@@PAX@1@AAPAU31@@Z 005b1580 f i Unit.obj
 0002:000355e0       ??$construct@PAU?$_Tree_node@U?$pair@$$CBEU_BUFF_TYPE9_INFO@@@std@@PAX@std@@AAPAU12@@?$_Wrap_alloc@V?$allocator@U?$_Tree_node@U?$pair@$$CBEU_BUFF_TYPE9_INFO@@@std@@PAX@std@@@std@@@std@@QAEXPAPAU?$_Tree_node@U?$pair@$$CBEU_BUFF_TYPE9_INFO@@@std@@PAX@1@AAPAU21@@Z 005b15e0 f i Unit.obj
 0002:00035650       ??$construct@PAU?$_Tree_node@U?$pair@$$CBEU_BUFF_TYPE9_INFO@@@std@@PAX@std@@AAPAU12@@?$allocator@U?$_Tree_node@U?$pair@$$CBEU_BUFF_TYPE9_INFO@@@std@@PAX@std@@@std@@QAEXPAPAU?$_Tree_node@U?$pair@$$CBEU_BUFF_TYPE9_INFO@@@std@@PAX@1@AAPAU21@@Z 005b1650 f i Unit.obj
 0002:00035700       ??$construct@PAU?$_Tree_node@U?$pair@$$CBEU_BUFF_TYPE9_INFO@@@std@@PAX@std@@AAPAU12@@?$allocator_traits@V?$allocator@U?$_Tree_node@U?$pair@$$CBEU_BUFF_TYPE9_INFO@@@std@@PAX@std@@@std@@@std@@SAXAAV?$allocator@U?$_Tree_node@U?$pair@$$CBEU_BUFF_TYPE9_INFO@@@std@@PAX@std@@@1@PAPAU?$_Tree_node@U?$pair@$$CBEU_BUFF_TYPE9_INFO@@@std@@PAX@1@AAPAU31@@Z 005b1700 f i Unit.obj
 0002:00035760       ??$construct@PAU?$_Tree_node@U?$pair@$$CBEV?$map@EFU?$less@E@std@@V?$allocator@U?$pair@$$CBEF@std@@@2@@std@@@std@@PAX@std@@AAPAU12@@?$_Wrap_alloc@V?$allocator@U?$_Tree_node@U?$pair@$$CBEV?$map@EFU?$less@E@std@@V?$allocator@U?$pair@$$CBEF@std@@@2@@std@@@std@@PAX@std@@@std@@@std@@QAEXPAPAU?$_Tree_node@U?$pair@$$CBEV?$map@EFU?$less@E@std@@V?$allocator@U?$pair@$$CBEF@std@@@2@@std@@@std@@PAX@1@AAPAU21@@Z 005b1760 f i Unit.obj
 0002:000357d0       ??$construct@PAU?$_Tree_node@U?$pair@$$CBEV?$map@EFU?$less@E@std@@V?$allocator@U?$pair@$$CBEF@std@@@2@@std@@@std@@PAX@std@@AAPAU12@@?$allocator@U?$_Tree_node@U?$pair@$$CBEV?$map@EFU?$less@E@std@@V?$allocator@U?$pair@$$CBEF@std@@@2@@std@@@std@@PAX@std@@@std@@QAEXPAPAU?$_Tree_node@U?$pair@$$CBEV?$map@EFU?$less@E@std@@V?$allocator@U?$pair@$$CBEF@std@@@2@@std@@@std@@PAX@1@AAPAU21@@Z 005b17d0 f i Unit.obj
 0002:00035880       ??$construct@PAU?$_Tree_node@U?$pair@$$CBEV?$map@EFU?$less@E@std@@V?$allocator@U?$pair@$$CBEF@std@@@2@@std@@@std@@PAX@std@@AAPAU12@@?$allocator_traits@V?$allocator@U?$_Tree_node@U?$pair@$$CBEV?$map@EFU?$less@E@std@@V?$allocator@U?$pair@$$CBEF@std@@@2@@std@@@std@@PAX@std@@@std@@@std@@SAXAAV?$allocator@U?$_Tree_node@U?$pair@$$CBEV?$map@EFU?$less@E@std@@V?$allocator@U?$pair@$$CBEF@std@@@2@@std@@@std@@PAX@std@@@1@PAPAU?$_Tree_node@U?$pair@$$CBEV?$map@EFU?$less@E@std@@V?$allocator@U?$pair@$$CBEF@std@@@2@@std@@@std@@PAX@1@AAPAU31@@Z 005b1880 f i Unit.obj
 0002:000358e0       ??$construct@U?$pair@$$CBEU_BUFF_TYPE4_INFO@@@std@@AAU12@@?$_Wrap_alloc@V?$allocator@U?$_Tree_node@U?$pair@$$CBEU_BUFF_TYPE4_INFO@@@std@@PAX@std@@@std@@@std@@QAEXPAU?$pair@$$CBEU_BUFF_TYPE4_INFO@@@1@AAU21@@Z 005b18e0 f i Unit.obj
 0002:00035950       ??$construct@U?$pair@$$CBEU_BUFF_TYPE4_INFO@@@std@@AAU12@@?$allocator@U?$_Tree_node@U?$pair@$$CBEU_BUFF_TYPE4_INFO@@@std@@PAX@std@@@std@@QAEXPAU?$pair@$$CBEU_BUFF_TYPE4_INFO@@@1@AAU21@@Z 005b1950 f i Unit.obj
 0002:00035a20       ??$construct@U?$pair@$$CBEU_BUFF_TYPE4_INFO@@@std@@AAU12@@?$allocator_traits@V?$allocator@U?$_Tree_node@U?$pair@$$CBEU_BUFF_TYPE4_INFO@@@std@@PAX@std@@@std@@@std@@SAXAAV?$allocator@U?$_Tree_node@U?$pair@$$CBEU_BUFF_TYPE4_INFO@@@std@@PAX@std@@@1@PAU?$pair@$$CBEU_BUFF_TYPE4_INFO@@@1@AAU31@@Z 005b1a20 f i Unit.obj
 0002:00035a80       ??$construct@U?$pair@$$CBEU_BUFF_TYPE4_INFO@@@std@@U?$pair@EU_BUFF_TYPE4_INFO@@@2@@?$_Wrap_alloc@V?$allocator@U?$_Tree_node@U?$pair@$$CBEU_BUFF_TYPE4_INFO@@@std@@PAX@std@@@std@@@std@@QAEXPAU?$pair@$$CBEU_BUFF_TYPE4_INFO@@@1@$$QAU?$pair@EU_BUFF_TYPE4_INFO@@@1@@Z 005b1a80 f i Unit.obj
 0002:00035af0       ??$construct@U?$pair@$$CBEU_BUFF_TYPE4_INFO@@@std@@U?$pair@EU_BUFF_TYPE4_INFO@@@2@@?$allocator@U?$_Tree_node@U?$pair@$$CBEU_BUFF_TYPE4_INFO@@@std@@PAX@std@@@std@@QAEXPAU?$pair@$$CBEU_BUFF_TYPE4_INFO@@@1@$$QAU?$pair@EU_BUFF_TYPE4_INFO@@@1@@Z 005b1af0 f i Unit.obj
 0002:00035b90       ??$construct@U?$pair@$$CBEU_BUFF_TYPE4_INFO@@@std@@U?$pair@EU_BUFF_TYPE4_INFO@@@2@@?$allocator_traits@V?$allocator@U?$_Tree_node@U?$pair@$$CBEU_BUFF_TYPE4_INFO@@@std@@PAX@std@@@std@@@std@@SAXAAV?$allocator@U?$_Tree_node@U?$pair@$$CBEU_BUFF_TYPE4_INFO@@@std@@PAX@std@@@1@PAU?$pair@$$CBEU_BUFF_TYPE4_INFO@@@1@$$QAU?$pair@EU_BUFF_TYPE4_INFO@@@1@@Z 005b1b90 f i Unit.obj
 0002:00035bf0       ??$destroy@PAU?$_Tree_node@U?$pair@$$CBEF@std@@PAX@std@@@?$_Wrap_alloc@V?$allocator@U?$_Tree_node@U?$pair@$$CBEF@std@@PAX@std@@@std@@@std@@QAEXPAPAU?$_Tree_node@U?$pair@$$CBEF@std@@PAX@1@@Z 005b1bf0 f i Unit.obj
 0002:00035c50       ??$destroy@PAU?$_Tree_node@U?$pair@$$CBEF@std@@PAX@std@@@?$allocator@U?$_Tree_node@U?$pair@$$CBEF@std@@PAX@std@@@std@@QAEXPAPAU?$_Tree_node@U?$pair@$$CBEF@std@@PAX@1@@Z 005b1c50 f i Unit.obj
 0002:00035c90       ??$destroy@PAU?$_Tree_node@U?$pair@$$CBEF@std@@PAX@std@@@?$allocator_traits@V?$allocator@U?$_Tree_node@U?$pair@$$CBEF@std@@PAX@std@@@std@@@std@@SAXAAV?$allocator@U?$_Tree_node@U?$pair@$$CBEF@std@@PAX@std@@@1@PAPAU?$_Tree_node@U?$pair@$$CBEF@std@@PAX@1@@Z 005b1c90 f i Unit.obj
 0002:00035ce0       ??$destroy@PAU?$_Tree_node@U?$pair@$$CBEU_BUFF_TYPE4_INFO@@@std@@PAX@std@@@?$_Wrap_alloc@V?$allocator@U?$_Tree_node@U?$pair@$$CBEU_BUFF_TYPE4_INFO@@@std@@PAX@std@@@std@@@std@@QAEXPAPAU?$_Tree_node@U?$pair@$$CBEU_BUFF_TYPE4_INFO@@@std@@PAX@1@@Z 005b1ce0 f i Unit.obj
 0002:00035d40       ??$destroy@PAU?$_Tree_node@U?$pair@$$CBEU_BUFF_TYPE4_INFO@@@std@@PAX@std@@@?$allocator@U?$_Tree_node@U?$pair@$$CBEU_BUFF_TYPE4_INFO@@@std@@PAX@std@@@std@@QAEXPAPAU?$_Tree_node@U?$pair@$$CBEU_BUFF_TYPE4_INFO@@@std@@PAX@1@@Z 005b1d40 f i Unit.obj
 0002:00035d80       ??$destroy@PAU?$_Tree_node@U?$pair@$$CBEU_BUFF_TYPE4_INFO@@@std@@PAX@std@@@?$allocator_traits@V?$allocator@U?$_Tree_node@U?$pair@$$CBEU_BUFF_TYPE4_INFO@@@std@@PAX@std@@@std@@@std@@SAXAAV?$allocator@U?$_Tree_node@U?$pair@$$CBEU_BUFF_TYPE4_INFO@@@std@@PAX@std@@@1@PAPAU?$_Tree_node@U?$pair@$$CBEU_BUFF_TYPE4_INFO@@@std@@PAX@1@@Z 005b1d80 f i Unit.obj
 0002:00035dd0       ??$destroy@PAU?$_Tree_node@U?$pair@$$CBEU_BUFF_TYPE9_INFO@@@std@@PAX@std@@@?$_Wrap_alloc@V?$allocator@U?$_Tree_node@U?$pair@$$CBEU_BUFF_TYPE9_INFO@@@std@@PAX@std@@@std@@@std@@QAEXPAPAU?$_Tree_node@U?$pair@$$CBEU_BUFF_TYPE9_INFO@@@std@@PAX@1@@Z 005b1dd0 f i Unit.obj
 0002:00035e30       ??$destroy@PAU?$_Tree_node@U?$pair@$$CBEU_BUFF_TYPE9_INFO@@@std@@PAX@std@@@?$allocator@U?$_Tree_node@U?$pair@$$CBEU_BUFF_TYPE9_INFO@@@std@@PAX@std@@@std@@QAEXPAPAU?$_Tree_node@U?$pair@$$CBEU_BUFF_TYPE9_INFO@@@std@@PAX@1@@Z 005b1e30 f i Unit.obj
 0002:00035e70       ??$destroy@PAU?$_Tree_node@U?$pair@$$CBEU_BUFF_TYPE9_INFO@@@std@@PAX@std@@@?$allocator_traits@V?$allocator@U?$_Tree_node@U?$pair@$$CBEU_BUFF_TYPE9_INFO@@@std@@PAX@std@@@std@@@std@@SAXAAV?$allocator@U?$_Tree_node@U?$pair@$$CBEU_BUFF_TYPE9_INFO@@@std@@PAX@std@@@1@PAPAU?$_Tree_node@U?$pair@$$CBEU_BUFF_TYPE9_INFO@@@std@@PAX@1@@Z 005b1e70 f i Unit.obj
 0002:00035ec0       ??$destroy@PAU?$_Tree_node@U?$pair@$$CBEV?$map@EFU?$less@E@std@@V?$allocator@U?$pair@$$CBEF@std@@@2@@std@@@std@@PAX@std@@@?$_Wrap_alloc@V?$allocator@U?$_Tree_node@U?$pair@$$CBEV?$map@EFU?$less@E@std@@V?$allocator@U?$pair@$$CBEF@std@@@2@@std@@@std@@PAX@std@@@std@@@std@@QAEXPAPAU?$_Tree_node@U?$pair@$$CBEV?$map@EFU?$less@E@std@@V?$allocator@U?$pair@$$CBEF@std@@@2@@std@@@std@@PAX@1@@Z 005b1ec0 f i Unit.obj
 0002:00035f20       ??$destroy@PAU?$_Tree_node@U?$pair@$$CBEV?$map@EFU?$less@E@std@@V?$allocator@U?$pair@$$CBEF@std@@@2@@std@@@std@@PAX@std@@@?$allocator@U?$_Tree_node@U?$pair@$$CBEV?$map@EFU?$less@E@std@@V?$allocator@U?$pair@$$CBEF@std@@@2@@std@@@std@@PAX@std@@@std@@QAEXPAPAU?$_Tree_node@U?$pair@$$CBEV?$map@EFU?$less@E@std@@V?$allocator@U?$pair@$$CBEF@std@@@2@@std@@@std@@PAX@1@@Z 005b1f20 f i Unit.obj
 0002:00035f60       ??$destroy@PAU?$_Tree_node@U?$pair@$$CBEV?$map@EFU?$less@E@std@@V?$allocator@U?$pair@$$CBEF@std@@@2@@std@@@std@@PAX@std@@@?$allocator_traits@V?$allocator@U?$_Tree_node@U?$pair@$$CBEV?$map@EFU?$less@E@std@@V?$allocator@U?$pair@$$CBEF@std@@@2@@std@@@std@@PAX@std@@@std@@@std@@SAXAAV?$allocator@U?$_Tree_node@U?$pair@$$CBEV?$map@EFU?$less@E@std@@V?$allocator@U?$pair@$$CBEF@std@@@2@@std@@@std@@PAX@std@@@1@PAPAU?$_Tree_node@U?$pair@$$CBEV?$map@EFU?$less@E@std@@V?$allocator@U?$pair@$$CBEF@std@@@2@@std@@@std@@PAX@1@@Z 005b1f60 f i Unit.obj
 0002:00035fb0       ??$destroy@U?$pair@$$CBEF@std@@@?$_Wrap_alloc@V?$allocator@U?$_Tree_node@U?$pair@$$CBEF@std@@PAX@std@@@std@@@std@@QAEXPAU?$pair@$$CBEF@1@@Z 005b1fb0 f i Unit.obj
 0002:00036010       ??$destroy@U?$pair@$$CBEF@std@@@?$allocator@U?$_Tree_node@U?$pair@$$CBEF@std@@PAX@std@@@std@@QAEXPAU?$pair@$$CBEF@1@@Z 005b2010 f i Unit.obj
 0002:00036050       ??$destroy@U?$pair@$$CBEF@std@@@?$allocator_traits@V?$allocator@U?$_Tree_node@U?$pair@$$CBEF@std@@PAX@std@@@std@@@std@@SAXAAV?$allocator@U?$_Tree_node@U?$pair@$$CBEF@std@@PAX@std@@@1@PAU?$pair@$$CBEF@1@@Z 005b2050 f i Unit.obj
 0002:000360a0       ??$destroy@U?$pair@$$CBEU_BUFF_TYPE9_INFO@@@std@@@?$_Wrap_alloc@V?$allocator@U?$_Tree_node@U?$pair@$$CBEU_BUFF_TYPE9_INFO@@@std@@PAX@std@@@std@@@std@@QAEXPAU?$pair@$$CBEU_BUFF_TYPE9_INFO@@@1@@Z 005b20a0 f i Unit.obj
 0002:00036100       ??$destroy@U?$pair@$$CBEU_BUFF_TYPE9_INFO@@@std@@@?$allocator@U?$_Tree_node@U?$pair@$$CBEU_BUFF_TYPE9_INFO@@@std@@PAX@std@@@std@@QAEXPAU?$pair@$$CBEU_BUFF_TYPE9_INFO@@@1@@Z 005b2100 f i Unit.obj
 0002:00036140       ??$destroy@U?$pair@$$CBEU_BUFF_TYPE9_INFO@@@std@@@?$allocator_traits@V?$allocator@U?$_Tree_node@U?$pair@$$CBEU_BUFF_TYPE9_INFO@@@std@@PAX@std@@@std@@@std@@SAXAAV?$allocator@U?$_Tree_node@U?$pair@$$CBEU_BUFF_TYPE9_INFO@@@std@@PAX@std@@@1@PAU?$pair@$$CBEU_BUFF_TYPE9_INFO@@@1@@Z 005b2140 f i Unit.obj
 0002:00036190       ??$destroy@U?$pair@$$CBEV?$map@EFU?$less@E@std@@V?$allocator@U?$pair@$$CBEF@std@@@2@@std@@@std@@@?$_Wrap_alloc@V?$allocator@U?$_Tree_node@U?$pair@$$CBEV?$map@EFU?$less@E@std@@V?$allocator@U?$pair@$$CBEF@std@@@2@@std@@@std@@PAX@std@@@std@@@std@@QAEXPAU?$pair@$$CBEV?$map@EFU?$less@E@std@@V?$allocator@U?$pair@$$CBEF@std@@@2@@std@@@1@@Z 005b2190 f i Unit.obj
 0002:000361f0       ??$destroy@U?$pair@$$CBEV?$map@EFU?$less@E@std@@V?$allocator@U?$pair@$$CBEF@std@@@2@@std@@@std@@@?$allocator@U?$_Tree_node@U?$pair@$$CBEV?$map@EFU?$less@E@std@@V?$allocator@U?$pair@$$CBEF@std@@@2@@std@@@std@@PAX@std@@@std@@QAEXPAU?$pair@$$CBEV?$map@EFU?$less@E@std@@V?$allocator@U?$pair@$$CBEF@std@@@2@@std@@@1@@Z 005b21f0 f i Unit.obj
 0002:00036250       ??$destroy@U?$pair@$$CBEV?$map@EFU?$less@E@std@@V?$allocator@U?$pair@$$CBEF@std@@@2@@std@@@std@@@?$allocator_traits@V?$allocator@U?$_Tree_node@U?$pair@$$CBEV?$map@EFU?$less@E@std@@V?$allocator@U?$pair@$$CBEF@std@@@2@@std@@@std@@PAX@std@@@std@@@std@@SAXAAV?$allocator@U?$_Tree_node@U?$pair@$$CBEV?$map@EFU?$less@E@std@@V?$allocator@U?$pair@$$CBEF@std@@@2@@std@@@std@@PAX@std@@@1@PAU?$pair@$$CBEV?$map@EFU?$less@E@std@@V?$allocator@U?$pair@$$CBEF@std@@@2@@std@@@1@@Z 005b2250 f i Unit.obj
 0002:000362a0       ??$emplace@U?$pair@EU_BUFF_TYPE4_INFO@@@std@@@?$_Tree@V?$_Tmap_traits@EU_BUFF_TYPE4_INFO@@U?$less@E@std@@V?$allocator@U?$pair@$$CBEU_BUFF_TYPE4_INFO@@@std@@@3@$0A@@std@@@std@@QAE?AU?$pair@V?$_Tree_iterator@V?$_Tree_val@U?$_Tree_simple_types@U?$pair@$$CBEU_BUFF_TYPE4_INFO@@@std@@@std@@@std@@@std@@_N@1@$$QAU?$pair@EU_BUFF_TYPE4_INFO@@@1@@Z 005b22a0 f i Unit.obj
 0002:00036350       ??$forward@AAE@std@@YAAAEAAE@Z 005b2350 f i Unit.obj
 0002:00036390       ??$forward@AAPAU?$_Tree_node@U?$pair@$$CBEU_BUFF_TYPE4_INFO@@@std@@PAX@std@@@std@@YAAAPAU?$_Tree_node@U?$pair@$$CBEU_BUFF_TYPE4_INFO@@@std@@PAX@0@AAPAU10@@Z 005b2390 f i Unit.obj
 0002:000363d0       ??$forward@AAPAU?$_Tree_node@U?$pair@$$CBEU_BUFF_TYPE9_INFO@@@std@@PAX@std@@@std@@YAAAPAU?$_Tree_node@U?$pair@$$CBEU_BUFF_TYPE9_INFO@@@std@@PAX@0@AAPAU10@@Z 005b23d0 f i Unit.obj
 0002:00036410       ??$forward@AAPAU?$_Tree_node@U?$pair@$$CBEV?$map@EFU?$less@E@std@@V?$allocator@U?$pair@$$CBEF@std@@@2@@std@@@std@@PAX@std@@@std@@YAAAPAU?$_Tree_node@U?$pair@$$CBEV?$map@EFU?$less@E@std@@V?$allocator@U?$pair@$$CBEF@std@@@2@@std@@@std@@PAX@0@AAPAU10@@Z 005b2410 f i Unit.obj
 0002:00036450       ??$forward@AAU?$_Wrap_alloc@V?$allocator@U?$_Tree_node@U?$pair@$$CBEF@std@@PAX@std@@@std@@@std@@@std@@YAAAU?$_Wrap_alloc@V?$allocator@U?$_Tree_node@U?$pair@$$CBEF@std@@PAX@std@@@std@@@0@AAU10@@Z 005b2450 f i Unit.obj
 0002:00036490       ??$forward@AAU?$_Wrap_alloc@V?$allocator@U?$_Tree_node@U?$pair@$$CBEU_BUFF_TYPE4_INFO@@@std@@PAX@std@@@std@@@std@@@std@@YAAAU?$_Wrap_alloc@V?$allocator@U?$_Tree_node@U?$pair@$$CBEU_BUFF_TYPE4_INFO@@@std@@PAX@std@@@std@@@0@AAU10@@Z 005b2490 f i Unit.obj
 0002:000364d0       ??$forward@AAU?$_Wrap_alloc@V?$allocator@U?$_Tree_node@U?$pair@$$CBEU_BUFF_TYPE9_INFO@@@std@@PAX@std@@@std@@@std@@@std@@YAAAU?$_Wrap_alloc@V?$allocator@U?$_Tree_node@U?$pair@$$CBEU_BUFF_TYPE9_INFO@@@std@@PAX@std@@@std@@@0@AAU10@@Z 005b24d0 f i Unit.obj
 0002:00036510       ??$forward@AAU?$_Wrap_alloc@V?$allocator@U?$_Tree_node@U?$pair@$$CBEV?$map@EFU?$less@E@std@@V?$allocator@U?$pair@$$CBEF@std@@@2@@std@@@std@@PAX@std@@@std@@@std@@@std@@YAAAU?$_Wrap_alloc@V?$allocator@U?$_Tree_node@U?$pair@$$CBEV?$map@EFU?$less@E@std@@V?$allocator@U?$pair@$$CBEF@std@@@2@@std@@@std@@PAX@std@@@std@@@0@AAU10@@Z 005b2510 f i Unit.obj
 0002:00036550       ??$forward@AAU?$pair@$$CBEU_BUFF_TYPE4_INFO@@@std@@@std@@YAAAU?$pair@$$CBEU_BUFF_TYPE4_INFO@@@0@AAU10@@Z 005b2550 f i Unit.obj
 0002:00036590       ??$forward@AAU_BUFF_TYPE4_INFO@@@std@@YAAAU_BUFF_TYPE4_INFO@@AAU1@@Z 005b2590 f i Unit.obj
 0002:000365d0       ??$forward@AAV?$_Tree_iterator@V?$_Tree_val@U?$_Tree_simple_types@U?$pair@$$CBEU_BUFF_TYPE4_INFO@@@std@@@std@@@std@@@std@@@std@@YAAAV?$_Tree_iterator@V?$_Tree_val@U?$_Tree_simple_types@U?$pair@$$CBEU_BUFF_TYPE4_INFO@@@std@@@std@@@std@@@0@AAV10@@Z 005b25d0 f i Unit.obj
 0002:00036610       ??$forward@ABU?$less@E@std@@@std@@YAABU?$less@E@0@ABU10@@Z 005b2610 f i Unit.obj
 0002:00036650       ??$forward@ABV?$allocator@U?$pair@$$CBEU_BUFF_TYPE4_INFO@@@std@@@std@@@std@@YAABV?$allocator@U?$pair@$$CBEU_BUFF_TYPE4_INFO@@@std@@@0@ABV10@@Z 005b2650 f i Unit.obj
 0002:00036690       ??$forward@E@std@@YA$$QAEAAE@Z 005b2690 f i Unit.obj
 0002:000366d0       ??$forward@U?$pair@EU_BUFF_TYPE4_INFO@@@std@@@std@@YA$$QAU?$pair@EU_BUFF_TYPE4_INFO@@@0@AAU10@@Z 005b26d0 f i Unit.obj
 0002:00036710       ??$forward@U_BUFF_TYPE4_INFO@@@std@@YA$$QAU_BUFF_TYPE4_INFO@@AAU1@@Z 005b2710 f i Unit.obj
 0002:00036750       ??$forward@U_One_then_variadic_args_t@std@@@std@@YA$$QAU_One_then_variadic_args_t@0@AAU10@@Z 005b2750 f i Unit.obj
 0002:00036790       ??$forward@U_Zero_then_variadic_args_t@std@@@std@@YA$$QAU_Zero_then_variadic_args_t@0@AAU10@@Z 005b2790 f i Unit.obj
 0002:000367d0       ??$forward@V?$_Tree_iterator@V?$_Tree_val@U?$_Tree_simple_types@U?$pair@$$CBEU_BUFF_TYPE4_INFO@@@std@@@std@@@std@@@std@@@std@@YA$$QAV?$_Tree_iterator@V?$_Tree_val@U?$_Tree_simple_types@U?$pair@$$CBEU_BUFF_TYPE4_INFO@@@std@@@std@@@std@@@0@AAV10@@Z 005b27d0 f i Unit.obj
 0002:00036810       ??$forward@V?$allocator@U?$_Tree_node@U?$pair@$$CBEU_BUFF_TYPE4_INFO@@@std@@PAX@std@@@std@@@std@@YA$$QAV?$allocator@U?$_Tree_node@U?$pair@$$CBEU_BUFF_TYPE4_INFO@@@std@@PAX@std@@@0@AAV10@@Z 005b2810 f i Unit.obj
 0002:00036850       ??$forward@_N@std@@YA$$QA_NAA_N@Z 005b2850 f i Unit.obj
 0002:00036890       ??$insert@U?$pair@EU_BUFF_TYPE4_INFO@@@std@@X@?$map@EU_BUFF_TYPE4_INFO@@U?$less@E@std@@V?$allocator@U?$pair@$$CBEU_BUFF_TYPE4_INFO@@@std@@@3@@std@@QAE?AU?$pair@V?$_Tree_iterator@V?$_Tree_val@U?$_Tree_simple_types@U?$pair@$$CBEU_BUFF_TYPE4_INFO@@@std@@@std@@@std@@@std@@_N@1@$$QAU?$pair@EU_BUFF_TYPE4_INFO@@@1@@Z 005b2890 f i Unit.obj
 0002:00036920       ??$make_pair@AAEAAU_BUFF_TYPE4_INFO@@@std@@YA?AU?$pair@EU_BUFF_TYPE4_INFO@@@0@AAEAAU_BUFF_TYPE4_INFO@@@Z 005b2920 f i Unit.obj
 0002:00036990       ??0?$_Iterator012@Ubidirectional_iterator_tag@std@@U?$pair@$$CBEF@2@HPBU32@ABU32@U_Iterator_base12@2@@std@@QAE@$$QAU01@@Z 005b2990 f i Unit.obj
 0002:000369f0       ??0?$_Iterator012@Ubidirectional_iterator_tag@std@@U?$pair@$$CBEF@2@HPBU32@ABU32@U_Iterator_base12@2@@std@@QAE@ABU01@@Z 005b29f0 f i Unit.obj
 0002:00036a50       ??0?$_Iterator012@Ubidirectional_iterator_tag@std@@U?$pair@$$CBEF@2@HPBU32@ABU32@U_Iterator_base12@2@@std@@QAE@XZ 005b2a50 f i Unit.obj
 0002:00036ab0       ??0?$_Iterator012@Ubidirectional_iterator_tag@std@@U?$pair@$$CBEU_BUFF_TYPE9_INFO@@@2@HPBU32@ABU32@U_Iterator_base12@2@@std@@QAE@$$QAU01@@Z 005b2ab0 f i Unit.obj
 0002:00036b10       ??0?$_Iterator012@Ubidirectional_iterator_tag@std@@U?$pair@$$CBEU_BUFF_TYPE9_INFO@@@2@HPBU32@ABU32@U_Iterator_base12@2@@std@@QAE@ABU01@@Z 005b2b10 f i Unit.obj
 0002:00036b70       ??0?$_Iterator012@Ubidirectional_iterator_tag@std@@U?$pair@$$CBEU_BUFF_TYPE9_INFO@@@2@HPBU32@ABU32@U_Iterator_base12@2@@std@@QAE@XZ 005b2b70 f i Unit.obj
 0002:00036bd0       ??0?$_Iterator012@Ubidirectional_iterator_tag@std@@U?$pair@$$CBEV?$map@EFU?$less@E@std@@V?$allocator@U?$pair@$$CBEF@std@@@2@@std@@@2@HPBU32@ABU32@U_Iterator_base12@2@@std@@QAE@$$QAU01@@Z 005b2bd0 f i Unit.obj
 0002:00036c30       ??0?$_Iterator012@Ubidirectional_iterator_tag@std@@U?$pair@$$CBEV?$map@EFU?$less@E@std@@V?$allocator@U?$pair@$$CBEF@std@@@2@@std@@@2@HPBU32@ABU32@U_Iterator_base12@2@@std@@QAE@ABU01@@Z 005b2c30 f i Unit.obj
 0002:00036c90       ??0?$_Iterator012@Ubidirectional_iterator_tag@std@@U?$pair@$$CBEV?$map@EFU?$less@E@std@@V?$allocator@U?$pair@$$CBEF@std@@@2@@std@@@2@HPBU32@ABU32@U_Iterator_base12@2@@std@@QAE@XZ 005b2c90 f i Unit.obj
 0002:00036cf0       ??0?$_Iterator012@Ubidirectional_iterator_tag@std@@U?$pair@$$CBIPAU_MAGIC_TYPE1@@@2@HPBU32@ABU32@U_Iterator_base12@2@@std@@QAE@$$QAU01@@Z 005b2cf0 f i Unit.obj
 0002:00036d50       ??0?$_Iterator012@Ubidirectional_iterator_tag@std@@U?$pair@$$CBIPAU_MAGIC_TYPE1@@@2@HPBU32@ABU32@U_Iterator_base12@2@@std@@QAE@ABU01@@Z 005b2d50 f i Unit.obj
 0002:00036db0       ??0?$_Iterator012@Ubidirectional_iterator_tag@std@@U?$pair@$$CBIPAU_MAGIC_TYPE1@@@2@HPBU32@ABU32@U_Iterator_base12@2@@std@@QAE@XZ 005b2db0 f i Unit.obj
 0002:00036e10       ??0?$_Iterator012@Ubidirectional_iterator_tag@std@@U?$pair@$$CBIPAU_MAGIC_TYPE2@@@2@HPBU32@ABU32@U_Iterator_base12@2@@std@@QAE@$$QAU01@@Z 005b2e10 f i Unit.obj
 0002:00036e70       ??0?$_Iterator012@Ubidirectional_iterator_tag@std@@U?$pair@$$CBIPAU_MAGIC_TYPE2@@@2@HPBU32@ABU32@U_Iterator_base12@2@@std@@QAE@ABU01@@Z 005b2e70 f i Unit.obj
 0002:00036ed0       ??0?$_Iterator012@Ubidirectional_iterator_tag@std@@U?$pair@$$CBIPAU_MAGIC_TYPE2@@@2@HPBU32@ABU32@U_Iterator_base12@2@@std@@QAE@XZ 005b2ed0 f i Unit.obj
 0002:00036f30       ??0?$_Tree@V?$_Tmap_traits@EU_BUFF_TYPE4_INFO@@U?$less@E@std@@V?$allocator@U?$pair@$$CBEU_BUFF_TYPE4_INFO@@@std@@@3@$0A@@std@@@std@@QAE@ABU?$less@E@1@@Z 005b2f30 f i Unit.obj
 0002:00036f90       ??0?$_Tree@V?$_Tmap_traits@EU_BUFF_TYPE4_INFO@@U?$less@E@std@@V?$allocator@U?$pair@$$CBEU_BUFF_TYPE4_INFO@@@std@@@3@$0A@@std@@@std@@QAE@ABV01@ABV?$allocator@U?$pair@$$CBEU_BUFF_TYPE4_INFO@@@std@@@1@@Z 005b2f90 f i Unit.obj
 0002:000370a0       ??0?$_Tree@V?$_Tmap_traits@EU_BUFF_TYPE9_INFO@@U?$less@E@std@@V?$allocator@U?$pair@$$CBEU_BUFF_TYPE9_INFO@@@std@@@3@$0A@@std@@@std@@QAE@ABU?$less@E@1@@Z 005b30a0 f i Unit.obj
 0002:00037100       ??0?$_Tree@V?$_Tmap_traits@EV?$map@EFU?$less@E@std@@V?$allocator@U?$pair@$$CBEF@std@@@2@@std@@U?$less@E@2@V?$allocator@U?$pair@$$CBEV?$map@EFU?$less@E@std@@V?$allocator@U?$pair@$$CBEF@std@@@2@@std@@@std@@@2@$0A@@std@@@std@@QAE@ABU?$less@E@1@@Z 005b3100 f i Unit.obj
 0002:00037160       ??0?$_Tree_comp_alloc@V?$_Tmap_traits@EU_BUFF_TYPE4_INFO@@U?$less@E@std@@V?$allocator@U?$pair@$$CBEU_BUFF_TYPE4_INFO@@@std@@@3@$0A@@std@@@std@@QAE@ABU?$less@E@1@@Z 005b3160 f i Unit.obj
 0002:00037220       ??0?$_Tree_comp_alloc@V?$_Tmap_traits@EU_BUFF_TYPE9_INFO@@U?$less@E@std@@V?$allocator@U?$pair@$$CBEU_BUFF_TYPE9_INFO@@@std@@@3@$0A@@std@@@std@@QAE@ABU?$less@E@1@@Z 005b3220 f i Unit.obj
 0002:000372e0       ??0?$_Tree_comp_alloc@V?$_Tmap_traits@EV?$map@EFU?$less@E@std@@V?$allocator@U?$pair@$$CBEF@std@@@2@@std@@U?$less@E@2@V?$allocator@U?$pair@$$CBEV?$map@EFU?$less@E@std@@V?$allocator@U?$pair@$$CBEF@std@@@2@@std@@@std@@@2@$0A@@std@@@std@@QAE@ABU?$less@E@1@@Z 005b32e0 f i Unit.obj
 0002:000373a0       ??0?$_Tree_const_iterator@V?$_Tree_val@U?$_Tree_simple_types@U?$pair@$$CBEF@std@@@std@@@std@@@std@@QAE@$$QAV01@@Z 005b33a0 f i Unit.obj
 0002:00037400       ??0?$_Tree_const_iterator@V?$_Tree_val@U?$_Tree_simple_types@U?$pair@$$CBEF@std@@@std@@@std@@@std@@QAE@ABV01@@Z 005b3400 f i Unit.obj
 0002:00037460       ??0?$_Tree_const_iterator@V?$_Tree_val@U?$_Tree_simple_types@U?$pair@$$CBEF@std@@@std@@@std@@@std@@QAE@PAU?$_Tree_node@U?$pair@$$CBEF@std@@PAX@1@PBV?$_Tree_val@U?$_Tree_simple_types@U?$pair@$$CBEF@std@@@std@@@1@@Z 005b3460 f i Unit.obj
 0002:000374c0       ??0?$_Tree_const_iterator@V?$_Tree_val@U?$_Tree_simple_types@U?$pair@$$CBEU_BUFF_TYPE9_INFO@@@std@@@std@@@std@@@std@@QAE@$$QAV01@@Z 005b34c0 f i Unit.obj
 0002:00037520       ??0?$_Tree_const_iterator@V?$_Tree_val@U?$_Tree_simple_types@U?$pair@$$CBEU_BUFF_TYPE9_INFO@@@std@@@std@@@std@@@std@@QAE@ABV01@@Z 005b3520 f i Unit.obj
 0002:00037580       ??0?$_Tree_const_iterator@V?$_Tree_val@U?$_Tree_simple_types@U?$pair@$$CBEU_BUFF_TYPE9_INFO@@@std@@@std@@@std@@@std@@QAE@PAU?$_Tree_node@U?$pair@$$CBEU_BUFF_TYPE9_INFO@@@std@@PAX@1@PBV?$_Tree_val@U?$_Tree_simple_types@U?$pair@$$CBEU_BUFF_TYPE9_INFO@@@std@@@std@@@1@@Z 005b3580 f i Unit.obj
 0002:000375e0       ??0?$_Tree_const_iterator@V?$_Tree_val@U?$_Tree_simple_types@U?$pair@$$CBEV?$map@EFU?$less@E@std@@V?$allocator@U?$pair@$$CBEF@std@@@2@@std@@@std@@@std@@@std@@@std@@QAE@$$QAV01@@Z 005b35e0 f i Unit.obj
 0002:00037640       ??0?$_Tree_const_iterator@V?$_Tree_val@U?$_Tree_simple_types@U?$pair@$$CBEV?$map@EFU?$less@E@std@@V?$allocator@U?$pair@$$CBEF@std@@@2@@std@@@std@@@std@@@std@@@std@@QAE@ABV01@@Z 005b3640 f i Unit.obj
 0002:000376a0       ??0?$_Tree_const_iterator@V?$_Tree_val@U?$_Tree_simple_types@U?$pair@$$CBEV?$map@EFU?$less@E@std@@V?$allocator@U?$pair@$$CBEF@std@@@2@@std@@@std@@@std@@@std@@@std@@QAE@PAU?$_Tree_node@U?$pair@$$CBEV?$map@EFU?$less@E@std@@V?$allocator@U?$pair@$$CBEF@std@@@2@@std@@@std@@PAX@1@PBV?$_Tree_val@U?$_Tree_simple_types@U?$pair@$$CBEV?$map@EFU?$less@E@std@@V?$allocator@U?$pair@$$CBEF@std@@@2@@std@@@std@@@std@@@1@@Z 005b36a0 f i Unit.obj
 0002:00037700       ??0?$_Tree_const_iterator@V?$_Tree_val@U?$_Tree_simple_types@U?$pair@$$CBIPAU_MAGIC_TYPE1@@@std@@@std@@@std@@@std@@QAE@$$QAV01@@Z 005b3700 f i Unit.obj
 0002:00037760       ??0?$_Tree_const_iterator@V?$_Tree_val@U?$_Tree_simple_types@U?$pair@$$CBIPAU_MAGIC_TYPE1@@@std@@@std@@@std@@@std@@QAE@ABV01@@Z 005b3760 f i Unit.obj
 0002:000377c0       ??0?$_Tree_const_iterator@V?$_Tree_val@U?$_Tree_simple_types@U?$pair@$$CBIPAU_MAGIC_TYPE1@@@std@@@std@@@std@@@std@@QAE@PAU?$_Tree_node@U?$pair@$$CBIPAU_MAGIC_TYPE1@@@std@@PAX@1@PBV?$_Tree_val@U?$_Tree_simple_types@U?$pair@$$CBIPAU_MAGIC_TYPE1@@@std@@@std@@@1@@Z 005b37c0 f i Unit.obj
 0002:00037820       ??0?$_Tree_const_iterator@V?$_Tree_val@U?$_Tree_simple_types@U?$pair@$$CBIPAU_MAGIC_TYPE2@@@std@@@std@@@std@@@std@@QAE@$$QAV01@@Z 005b3820 f i Unit.obj
 0002:00037880       ??0?$_Tree_const_iterator@V?$_Tree_val@U?$_Tree_simple_types@U?$pair@$$CBIPAU_MAGIC_TYPE2@@@std@@@std@@@std@@@std@@QAE@ABV01@@Z 005b3880 f i Unit.obj
 0002:000378e0       ??0?$_Tree_const_iterator@V?$_Tree_val@U?$_Tree_simple_types@U?$pair@$$CBIPAU_MAGIC_TYPE2@@@std@@@std@@@std@@@std@@QAE@PAU?$_Tree_node@U?$pair@$$CBIPAU_MAGIC_TYPE2@@@std@@PAX@1@PBV?$_Tree_val@U?$_Tree_simple_types@U?$pair@$$CBIPAU_MAGIC_TYPE2@@@std@@@std@@@1@@Z 005b38e0 f i Unit.obj
 0002:00037940       ??0?$_Tree_iterator@V?$_Tree_val@U?$_Tree_simple_types@U?$pair@$$CBEF@std@@@std@@@std@@@std@@QAE@$$QAV01@@Z 005b3940 f i Unit.obj
 0002:000379a0       ??0?$_Tree_iterator@V?$_Tree_val@U?$_Tree_simple_types@U?$pair@$$CBEF@std@@@std@@@std@@@std@@QAE@ABV01@@Z 005b39a0 f i Unit.obj
 0002:00037a00       ??0?$_Tree_iterator@V?$_Tree_val@U?$_Tree_simple_types@U?$pair@$$CBEF@std@@@std@@@std@@@std@@QAE@PAU?$_Tree_node@U?$pair@$$CBEF@std@@PAX@1@PBV?$_Tree_val@U?$_Tree_simple_types@U?$pair@$$CBEF@std@@@std@@@1@@Z 005b3a00 f i Unit.obj
 0002:00037a60       ??0?$_Tree_iterator@V?$_Tree_val@U?$_Tree_simple_types@U?$pair@$$CBEU_BUFF_TYPE9_INFO@@@std@@@std@@@std@@@std@@QAE@PAU?$_Tree_node@U?$pair@$$CBEU_BUFF_TYPE9_INFO@@@std@@PAX@1@PBV?$_Tree_val@U?$_Tree_simple_types@U?$pair@$$CBEU_BUFF_TYPE9_INFO@@@std@@@std@@@1@@Z 005b3a60 f i Unit.obj
 0002:00037ac0       ??0?$_Tree_iterator@V?$_Tree_val@U?$_Tree_simple_types@U?$pair@$$CBEV?$map@EFU?$less@E@std@@V?$allocator@U?$pair@$$CBEF@std@@@2@@std@@@std@@@std@@@std@@@std@@QAE@$$QAV01@@Z 005b3ac0 f i Unit.obj
 0002:00037b20       ??0?$_Tree_iterator@V?$_Tree_val@U?$_Tree_simple_types@U?$pair@$$CBEV?$map@EFU?$less@E@std@@V?$allocator@U?$pair@$$CBEF@std@@@2@@std@@@std@@@std@@@std@@@std@@QAE@ABV01@@Z 005b3b20 f i Unit.obj
 0002:00037b80       ??0?$_Tree_iterator@V?$_Tree_val@U?$_Tree_simple_types@U?$pair@$$CBEV?$map@EFU?$less@E@std@@V?$allocator@U?$pair@$$CBEF@std@@@2@@std@@@std@@@std@@@std@@@std@@QAE@PAU?$_Tree_node@U?$pair@$$CBEV?$map@EFU?$less@E@std@@V?$allocator@U?$pair@$$CBEF@std@@@2@@std@@@std@@PAX@1@PBV?$_Tree_val@U?$_Tree_simple_types@U?$pair@$$CBEV?$map@EFU?$less@E@std@@V?$allocator@U?$pair@$$CBEF@std@@@2@@std@@@std@@@std@@@1@@Z 005b3b80 f i Unit.obj
 0002:00037be0       ??0?$_Tree_iterator@V?$_Tree_val@U?$_Tree_simple_types@U?$pair@$$CBIPAU_MAGIC_TYPE1@@@std@@@std@@@std@@@std@@QAE@$$QAV01@@Z 005b3be0 f i Unit.obj
 0002:00037c40       ??0?$_Tree_iterator@V?$_Tree_val@U?$_Tree_simple_types@U?$pair@$$CBIPAU_MAGIC_TYPE1@@@std@@@std@@@std@@@std@@QAE@ABV01@@Z 005b3c40 f i Unit.obj
 0002:00037ca0       ??0?$_Tree_iterator@V?$_Tree_val@U?$_Tree_simple_types@U?$pair@$$CBIPAU_MAGIC_TYPE1@@@std@@@std@@@std@@@std@@QAE@PAU?$_Tree_node@U?$pair@$$CBIPAU_MAGIC_TYPE1@@@std@@PAX@1@PBV?$_Tree_val@U?$_Tree_simple_types@U?$pair@$$CBIPAU_MAGIC_TYPE1@@@std@@@std@@@1@@Z 005b3ca0 f i Unit.obj
 0002:00037d00       ??0?$_Tree_iterator@V?$_Tree_val@U?$_Tree_simple_types@U?$pair@$$CBIPAU_MAGIC_TYPE2@@@std@@@std@@@std@@@std@@QAE@$$QAV01@@Z 005b3d00 f i Unit.obj
 0002:00037d60       ??0?$_Tree_iterator@V?$_Tree_val@U?$_Tree_simple_types@U?$pair@$$CBIPAU_MAGIC_TYPE2@@@std@@@std@@@std@@@std@@QAE@ABV01@@Z 005b3d60 f i Unit.obj
 0002:00037dc0       ??0?$_Tree_iterator@V?$_Tree_val@U?$_Tree_simple_types@U?$pair@$$CBIPAU_MAGIC_TYPE2@@@std@@@std@@@std@@@std@@QAE@PAU?$_Tree_node@U?$pair@$$CBIPAU_MAGIC_TYPE2@@@std@@PAX@1@PBV?$_Tree_val@U?$_Tree_simple_types@U?$pair@$$CBIPAU_MAGIC_TYPE2@@@std@@@std@@@1@@Z 005b3dc0 f i Unit.obj
 0002:00037e20       ??0?$_Tree_unchecked_const_iterator@V?$_Tree_val@U?$_Tree_simple_types@U?$pair@$$CBEF@std@@@std@@@std@@U_Iterator_base12@2@@std@@QAE@$$QAV01@@Z 005b3e20 f i Unit.obj
 0002:00037e90       ??0?$_Tree_unchecked_const_iterator@V?$_Tree_val@U?$_Tree_simple_types@U?$pair@$$CBEF@std@@@std@@@std@@U_Iterator_base12@2@@std@@QAE@ABV01@@Z 005b3e90 f i Unit.obj
 0002:00037f00       ??0?$_Tree_unchecked_const_iterator@V?$_Tree_val@U?$_Tree_simple_types@U?$pair@$$CBEF@std@@@std@@@std@@U_Iterator_base12@2@@std@@QAE@PAU?$_Tree_node@U?$pair@$$CBEF@std@@PAX@1@PBV?$_Tree_val@U?$_Tree_simple_types@U?$pair@$$CBEF@std@@@std@@@1@@Z 005b3f00 f i Unit.obj
 0002:00037fc0       ??0?$_Tree_unchecked_const_iterator@V?$_Tree_val@U?$_Tree_simple_types@U?$pair@$$CBEU_BUFF_TYPE9_INFO@@@std@@@std@@@std@@U_Iterator_base12@2@@std@@QAE@$$QAV01@@Z 005b3fc0 f i Unit.obj
 0002:00038030       ??0?$_Tree_unchecked_const_iterator@V?$_Tree_val@U?$_Tree_simple_types@U?$pair@$$CBEU_BUFF_TYPE9_INFO@@@std@@@std@@@std@@U_Iterator_base12@2@@std@@QAE@ABV01@@Z 005b4030 f i Unit.obj
 0002:000380a0       ??0?$_Tree_unchecked_const_iterator@V?$_Tree_val@U?$_Tree_simple_types@U?$pair@$$CBEU_BUFF_TYPE9_INFO@@@std@@@std@@@std@@U_Iterator_base12@2@@std@@QAE@PAU?$_Tree_node@U?$pair@$$CBEU_BUFF_TYPE9_INFO@@@std@@PAX@1@PBV?$_Tree_val@U?$_Tree_simple_types@U?$pair@$$CBEU_BUFF_TYPE9_INFO@@@std@@@std@@@1@@Z 005b40a0 f i Unit.obj
 0002:00038160       ??0?$_Tree_unchecked_const_iterator@V?$_Tree_val@U?$_Tree_simple_types@U?$pair@$$CBEV?$map@EFU?$less@E@std@@V?$allocator@U?$pair@$$CBEF@std@@@2@@std@@@std@@@std@@@std@@U_Iterator_base12@2@@std@@QAE@$$QAV01@@Z 005b4160 f i Unit.obj
 0002:000381d0       ??0?$_Tree_unchecked_const_iterator@V?$_Tree_val@U?$_Tree_simple_types@U?$pair@$$CBEV?$map@EFU?$less@E@std@@V?$allocator@U?$pair@$$CBEF@std@@@2@@std@@@std@@@std@@@std@@U_Iterator_base12@2@@std@@QAE@ABV01@@Z 005b41d0 f i Unit.obj
 0002:00038240       ??0?$_Tree_unchecked_const_iterator@V?$_Tree_val@U?$_Tree_simple_types@U?$pair@$$CBEV?$map@EFU?$less@E@std@@V?$allocator@U?$pair@$$CBEF@std@@@2@@std@@@std@@@std@@@std@@U_Iterator_base12@2@@std@@QAE@PAU?$_Tree_node@U?$pair@$$CBEV?$map@EFU?$less@E@std@@V?$allocator@U?$pair@$$CBEF@std@@@2@@std@@@std@@PAX@1@PBV?$_Tree_val@U?$_Tree_simple_types@U?$pair@$$CBEV?$map@EFU?$less@E@std@@V?$allocator@U?$pair@$$CBEF@std@@@2@@std@@@std@@@std@@@1@@Z 005b4240 f i Unit.obj
 0002:00038300       ??0?$_Tree_unchecked_const_iterator@V?$_Tree_val@U?$_Tree_simple_types@U?$pair@$$CBIPAU_MAGIC_TYPE1@@@std@@@std@@@std@@U_Iterator_base12@2@@std@@QAE@$$QAV01@@Z 005b4300 f i Unit.obj
 0002:00038370       ??0?$_Tree_unchecked_const_iterator@V?$_Tree_val@U?$_Tree_simple_types@U?$pair@$$CBIPAU_MAGIC_TYPE1@@@std@@@std@@@std@@U_Iterator_base12@2@@std@@QAE@ABV01@@Z 005b4370 f i Unit.obj
 0002:000383e0       ??0?$_Tree_unchecked_const_iterator@V?$_Tree_val@U?$_Tree_simple_types@U?$pair@$$CBIPAU_MAGIC_TYPE1@@@std@@@std@@@std@@U_Iterator_base12@2@@std@@QAE@PAU?$_Tree_node@U?$pair@$$CBIPAU_MAGIC_TYPE1@@@std@@PAX@1@PBV?$_Tree_val@U?$_Tree_simple_types@U?$pair@$$CBIPAU_MAGIC_TYPE1@@@std@@@std@@@1@@Z 005b43e0 f i Unit.obj
 0002:000384a0       ??0?$_Tree_unchecked_const_iterator@V?$_Tree_val@U?$_Tree_simple_types@U?$pair@$$CBIPAU_MAGIC_TYPE2@@@std@@@std@@@std@@U_Iterator_base12@2@@std@@QAE@$$QAV01@@Z 005b44a0 f i Unit.obj
 0002:00038510       ??0?$_Tree_unchecked_const_iterator@V?$_Tree_val@U?$_Tree_simple_types@U?$pair@$$CBIPAU_MAGIC_TYPE2@@@std@@@std@@@std@@U_Iterator_base12@2@@std@@QAE@ABV01@@Z 005b4510 f i Unit.obj
 0002:00038580       ??0?$_Tree_unchecked_const_iterator@V?$_Tree_val@U?$_Tree_simple_types@U?$pair@$$CBIPAU_MAGIC_TYPE2@@@std@@@std@@@std@@U_Iterator_base12@2@@std@@QAE@PAU?$_Tree_node@U?$pair@$$CBIPAU_MAGIC_TYPE2@@@std@@PAX@1@PBV?$_Tree_val@U?$_Tree_simple_types@U?$pair@$$CBIPAU_MAGIC_TYPE2@@@std@@@std@@@1@@Z 005b4580 f i Unit.obj
 0002:00038640       ??0?$_Tree_val@U?$_Tree_simple_types@U?$pair@$$CBEU_BUFF_TYPE4_INFO@@@std@@@std@@@std@@QAE@XZ 005b4640 f i Unit.obj
 0002:000386b0       ??0?$_Tree_val@U?$_Tree_simple_types@U?$pair@$$CBEU_BUFF_TYPE9_INFO@@@std@@@std@@@std@@QAE@XZ 005b46b0 f i Unit.obj
 0002:00038720       ??0?$_Tree_val@U?$_Tree_simple_types@U?$pair@$$CBEV?$map@EFU?$less@E@std@@V?$allocator@U?$pair@$$CBEF@std@@@2@@std@@@std@@@std@@@std@@QAE@XZ 005b4720 f i Unit.obj
 0002:00038790       ??0?$_Wrap_alloc@V?$allocator@U?$_Tree_node@U?$pair@$$CBEU_BUFF_TYPE4_INFO@@@std@@PAX@std@@@std@@@std@@QAE@XZ 005b4790 f i Unit.obj
 0002:000387f0       ??0?$_Wrap_alloc@V?$allocator@U?$_Tree_node@U?$pair@$$CBEU_BUFF_TYPE9_INFO@@@std@@PAX@std@@@std@@@std@@QAE@XZ 005b47f0 f i Unit.obj
 0002:00038850       ??0?$_Wrap_alloc@V?$allocator@U?$_Tree_node@U?$pair@$$CBEV?$map@EFU?$less@E@std@@V?$allocator@U?$pair@$$CBEF@std@@@2@@std@@@std@@PAX@std@@@std@@@std@@QAE@XZ 005b4850 f i Unit.obj
 0002:000388b0       ??0?$allocator@U?$_Tree_node@U?$pair@$$CBEU_BUFF_TYPE4_INFO@@@std@@PAX@std@@@std@@QAE@ABV01@@Z 005b48b0 f i Unit.obj
 0002:000388f0       ??0?$allocator@U?$_Tree_node@U?$pair@$$CBEU_BUFF_TYPE4_INFO@@@std@@PAX@std@@@std@@QAE@XZ 005b48f0 f i Unit.obj
 0002:00038930       ??0?$allocator@U?$_Tree_node@U?$pair@$$CBEU_BUFF_TYPE9_INFO@@@std@@PAX@std@@@std@@QAE@XZ 005b4930 f i Unit.obj
 0002:00038970       ??0?$allocator@U?$_Tree_node@U?$pair@$$CBEV?$map@EFU?$less@E@std@@V?$allocator@U?$pair@$$CBEF@std@@@2@@std@@@std@@PAX@std@@@std@@QAE@XZ 005b4970 f i Unit.obj
 0002:000389b0       ??0?$map@EU_BUFF_TYPE4_INFO@@U?$less@E@std@@V?$allocator@U?$pair@$$CBEU_BUFF_TYPE4_INFO@@@std@@@3@@std@@QAE@ABV01@@Z 005b49b0 f i Unit.obj
 0002:00038a50       ??0?$map@EU_BUFF_TYPE4_INFO@@U?$less@E@std@@V?$allocator@U?$pair@$$CBEU_BUFF_TYPE4_INFO@@@std@@@3@@std@@QAE@XZ 005b4a50 f i Unit.obj
 0002:00038ab0       ??0?$map@EU_BUFF_TYPE9_INFO@@U?$less@E@std@@V?$allocator@U?$pair@$$CBEU_BUFF_TYPE9_INFO@@@std@@@3@@std@@QAE@XZ 005b4ab0 f i Unit.obj
 0002:00038b10       ??0?$map@EV?$map@EFU?$less@E@std@@V?$allocator@U?$pair@$$CBEF@std@@@2@@std@@U?$less@E@2@V?$allocator@U?$pair@$$CBEV?$map@EFU?$less@E@std@@V?$allocator@U?$pair@$$CBEF@std@@@2@@std@@@std@@@2@@std@@QAE@XZ 005b4b10 f i Unit.obj
 0002:00038b70       ??0ByteBuffer@@QAE@I@Z     005b4b70 f i Unit.obj
 0002:00038c80       ??0MagicType3@Unit@@QAE@XZ 005b4c80 f i Unit.obj
 0002:00038ce0       ??0Packet@@QAE@E@Z         005b4ce0 f i Unit.obj
 0002:00038d60       ??0Unit@@QAE@W4UnitType@@@Z 005b4d60 f   Unit.obj
 0002:00038ed0       ??0_Mutex_base@std@@QAE@H@Z 005b4ed0 f i Unit.obj
 0002:00038f40       ??0recursive_mutex@std@@QAE@XZ 005b4f40 f i Unit.obj
 0002:00038fa0       ??1?$_Compressed_pair@U?$_Wrap_alloc@V?$allocator@U?$_Tree_node@U?$pair@$$CBEF@std@@PAX@std@@@std@@@std@@V?$_Tree_val@U?$_Tree_simple_types@U?$pair@$$CBEF@std@@@std@@@2@$00@std@@QAE@XZ 005b4fa0 f i Unit.obj
 0002:00038ff0       ??1?$_Compressed_pair@U?$_Wrap_alloc@V?$allocator@U?$_Tree_node@U?$pair@$$CBEU_BUFF_TYPE4_INFO@@@std@@PAX@std@@@std@@@std@@V?$_Tree_val@U?$_Tree_simple_types@U?$pair@$$CBEU_BUFF_TYPE4_INFO@@@std@@@std@@@2@$00@std@@QAE@XZ 005b4ff0 f i Unit.obj
 0002:00039040       ??1?$_Compressed_pair@U?$_Wrap_alloc@V?$allocator@U?$_Tree_node@U?$pair@$$CBEU_BUFF_TYPE9_INFO@@@std@@PAX@std@@@std@@@std@@V?$_Tree_val@U?$_Tree_simple_types@U?$pair@$$CBEU_BUFF_TYPE9_INFO@@@std@@@std@@@2@$00@std@@QAE@XZ 005b5040 f i Unit.obj
 0002:00039090       ??1?$_Compressed_pair@U?$_Wrap_alloc@V?$allocator@U?$_Tree_node@U?$pair@$$CBEV?$map@EFU?$less@E@std@@V?$allocator@U?$pair@$$CBEF@std@@@2@@std@@@std@@PAX@std@@@std@@@std@@V?$_Tree_val@U?$_Tree_simple_types@U?$pair@$$CBEV?$map@EFU?$less@E@std@@V?$allocator@U?$pair@$$CBEF@std@@@2@@std@@@std@@@std@@@2@$00@std@@QAE@XZ 005b5090 f i Unit.obj
 0002:000390e0       ??1?$_Compressed_pair@U?$less@E@std@@V?$_Compressed_pair@U?$_Wrap_alloc@V?$allocator@U?$_Tree_node@U?$pair@$$CBEF@std@@PAX@std@@@std@@@std@@V?$_Tree_val@U?$_Tree_simple_types@U?$pair@$$CBEF@std@@@std@@@2@$00@2@$00@std@@QAE@XZ 005b50e0 f i Unit.obj
 0002:00039130       ??1?$_Compressed_pair@U?$less@E@std@@V?$_Compressed_pair@U?$_Wrap_alloc@V?$allocator@U?$_Tree_node@U?$pair@$$CBEU_BUFF_TYPE4_INFO@@@std@@PAX@std@@@std@@@std@@V?$_Tree_val@U?$_Tree_simple_types@U?$pair@$$CBEU_BUFF_TYPE4_INFO@@@std@@@std@@@2@$00@2@$00@std@@QAE@XZ 005b5130 f i Unit.obj
 0002:00039180       ??1?$_Compressed_pair@U?$less@E@std@@V?$_Compressed_pair@U?$_Wrap_alloc@V?$allocator@U?$_Tree_node@U?$pair@$$CBEU_BUFF_TYPE9_INFO@@@std@@PAX@std@@@std@@@std@@V?$_Tree_val@U?$_Tree_simple_types@U?$pair@$$CBEU_BUFF_TYPE9_INFO@@@std@@@std@@@2@$00@2@$00@std@@QAE@XZ 005b5180 f i Unit.obj
 0002:000391d0       ??1?$_Compressed_pair@U?$less@E@std@@V?$_Compressed_pair@U?$_Wrap_alloc@V?$allocator@U?$_Tree_node@U?$pair@$$CBEV?$map@EFU?$less@E@std@@V?$allocator@U?$pair@$$CBEF@std@@@2@@std@@@std@@PAX@std@@@std@@@std@@V?$_Tree_val@U?$_Tree_simple_types@U?$pair@$$CBEV?$map@EFU?$less@E@std@@V?$allocator@U?$pair@$$CBEF@std@@@2@@std@@@std@@@std@@@2@$00@2@$00@std@@QAE@XZ 005b51d0 f i Unit.obj
 0002:00039220       ??1?$_Iterator012@Ubidirectional_iterator_tag@std@@U?$pair@$$CBEF@2@HPBU32@ABU32@U_Iterator_base12@2@@std@@QAE@XZ 005b5220 f i Unit.obj
 0002:00039270       ??1?$_Iterator012@Ubidirectional_iterator_tag@std@@U?$pair@$$CBEU_BUFF_TYPE9_INFO@@@2@HPBU32@ABU32@U_Iterator_base12@2@@std@@QAE@XZ 005b5270 f i Unit.obj
 0002:000392c0       ??1?$_Iterator012@Ubidirectional_iterator_tag@std@@U?$pair@$$CBEV?$map@EFU?$less@E@std@@V?$allocator@U?$pair@$$CBEF@std@@@2@@std@@@2@HPBU32@ABU32@U_Iterator_base12@2@@std@@QAE@XZ 005b52c0 f i Unit.obj
 0002:00039310       ??1?$_Iterator012@Ubidirectional_iterator_tag@std@@U?$pair@$$CBIPAU_MAGIC_TYPE1@@@2@HPBU32@ABU32@U_Iterator_base12@2@@std@@QAE@XZ 005b5310 f i Unit.obj
 0002:00039360       ??1?$_Iterator012@Ubidirectional_iterator_tag@std@@U?$pair@$$CBIPAU_MAGIC_TYPE2@@@2@HPBU32@ABU32@U_Iterator_base12@2@@std@@QAE@XZ 005b5360 f i Unit.obj
 0002:000393b0       ??1?$_Tree@V?$_Tmap_traits@EFU?$less@E@std@@V?$allocator@U?$pair@$$CBEF@std@@@2@$0A@@std@@@std@@QAE@XZ 005b53b0 f i Unit.obj
 0002:00039440       ??1?$_Tree@V?$_Tmap_traits@EU_BUFF_TYPE4_INFO@@U?$less@E@std@@V?$allocator@U?$pair@$$CBEU_BUFF_TYPE4_INFO@@@std@@@3@$0A@@std@@@std@@QAE@XZ 005b5440 f i Unit.obj
 0002:000394d0       ??1?$_Tree@V?$_Tmap_traits@EU_BUFF_TYPE9_INFO@@U?$less@E@std@@V?$allocator@U?$pair@$$CBEU_BUFF_TYPE9_INFO@@@std@@@3@$0A@@std@@@std@@QAE@XZ 005b54d0 f i Unit.obj
 0002:00039560       ??1?$_Tree@V?$_Tmap_traits@EV?$map@EFU?$less@E@std@@V?$allocator@U?$pair@$$CBEF@std@@@2@@std@@U?$less@E@2@V?$allocator@U?$pair@$$CBEV?$map@EFU?$less@E@std@@V?$allocator@U?$pair@$$CBEF@std@@@2@@std@@@std@@@2@$0A@@std@@@std@@QAE@XZ 005b5560 f i Unit.obj
 0002:000395f0       ??1?$_Tree_comp_alloc@V?$_Tmap_traits@EFU?$less@E@std@@V?$allocator@U?$pair@$$CBEF@std@@@2@$0A@@std@@@std@@QAE@XZ 005b55f0 f i Unit.obj
 0002:000396a0       ??1?$_Tree_comp_alloc@V?$_Tmap_traits@EU_BUFF_TYPE4_INFO@@U?$less@E@std@@V?$allocator@U?$pair@$$CBEU_BUFF_TYPE4_INFO@@@std@@@3@$0A@@std@@@std@@QAE@XZ 005b56a0 f i Unit.obj
 0002:00039750       ??1?$_Tree_comp_alloc@V?$_Tmap_traits@EU_BUFF_TYPE9_INFO@@U?$less@E@std@@V?$allocator@U?$pair@$$CBEU_BUFF_TYPE9_INFO@@@std@@@3@$0A@@std@@@std@@QAE@XZ 005b5750 f i Unit.obj
 0002:00039800       ??1?$_Tree_comp_alloc@V?$_Tmap_traits@EV?$map@EFU?$less@E@std@@V?$allocator@U?$pair@$$CBEF@std@@@2@@std@@U?$less@E@2@V?$allocator@U?$pair@$$CBEV?$map@EFU?$less@E@std@@V?$allocator@U?$pair@$$CBEF@std@@@2@@std@@@std@@@2@$0A@@std@@@std@@QAE@XZ 005b5800 f i Unit.obj
 0002:000398b0       ??1?$_Tree_const_iterator@V?$_Tree_val@U?$_Tree_simple_types@U?$pair@$$CBEF@std@@@std@@@std@@@std@@QAE@XZ 005b58b0 f i Unit.obj
 0002:00039900       ??1?$_Tree_const_iterator@V?$_Tree_val@U?$_Tree_simple_types@U?$pair@$$CBEU_BUFF_TYPE9_INFO@@@std@@@std@@@std@@@std@@QAE@XZ 005b5900 f i Unit.obj
 0002:00039950       ??1?$_Tree_const_iterator@V?$_Tree_val@U?$_Tree_simple_types@U?$pair@$$CBEV?$map@EFU?$less@E@std@@V?$allocator@U?$pair@$$CBEF@std@@@2@@std@@@std@@@std@@@std@@@std@@QAE@XZ 005b5950 f i Unit.obj
 0002:000399a0       ??1?$_Tree_const_iterator@V?$_Tree_val@U?$_Tree_simple_types@U?$pair@$$CBIPAU_MAGIC_TYPE1@@@std@@@std@@@std@@@std@@QAE@XZ 005b59a0 f i Unit.obj
 0002:000399f0       ??1?$_Tree_const_iterator@V?$_Tree_val@U?$_Tree_simple_types@U?$pair@$$CBIPAU_MAGIC_TYPE2@@@std@@@std@@@std@@@std@@QAE@XZ 005b59f0 f i Unit.obj
 0002:00039a40       ??1?$_Tree_iterator@V?$_Tree_val@U?$_Tree_simple_types@U?$pair@$$CBEF@std@@@std@@@std@@@std@@QAE@XZ 005b5a40 f i Unit.obj
 0002:00039a90       ??1?$_Tree_iterator@V?$_Tree_val@U?$_Tree_simple_types@U?$pair@$$CBEU_BUFF_TYPE9_INFO@@@std@@@std@@@std@@@std@@QAE@XZ 005b5a90 f i Unit.obj
 0002:00039ae0       ??1?$_Tree_iterator@V?$_Tree_val@U?$_Tree_simple_types@U?$pair@$$CBEV?$map@EFU?$less@E@std@@V?$allocator@U?$pair@$$CBEF@std@@@2@@std@@@std@@@std@@@std@@@std@@QAE@XZ 005b5ae0 f i Unit.obj
 0002:00039b30       ??1?$_Tree_iterator@V?$_Tree_val@U?$_Tree_simple_types@U?$pair@$$CBIPAU_MAGIC_TYPE1@@@std@@@std@@@std@@@std@@QAE@XZ 005b5b30 f i Unit.obj
 0002:00039b80       ??1?$_Tree_iterator@V?$_Tree_val@U?$_Tree_simple_types@U?$pair@$$CBIPAU_MAGIC_TYPE2@@@std@@@std@@@std@@@std@@QAE@XZ 005b5b80 f i Unit.obj
 0002:00039bd0       ??1?$_Tree_unchecked_const_iterator@V?$_Tree_val@U?$_Tree_simple_types@U?$pair@$$CBEF@std@@@std@@@std@@U_Iterator_base12@2@@std@@QAE@XZ 005b5bd0 f i Unit.obj
 0002:00039c20       ??1?$_Tree_unchecked_const_iterator@V?$_Tree_val@U?$_Tree_simple_types@U?$pair@$$CBEU_BUFF_TYPE9_INFO@@@std@@@std@@@std@@U_Iterator_base12@2@@std@@QAE@XZ 005b5c20 f i Unit.obj
 0002:00039c70       ??1?$_Tree_unchecked_const_iterator@V?$_Tree_val@U?$_Tree_simple_types@U?$pair@$$CBEV?$map@EFU?$less@E@std@@V?$allocator@U?$pair@$$CBEF@std@@@2@@std@@@std@@@std@@@std@@U_Iterator_base12@2@@std@@QAE@XZ 005b5c70 f i Unit.obj
 0002:00039cc0       ??1?$_Tree_unchecked_const_iterator@V?$_Tree_val@U?$_Tree_simple_types@U?$pair@$$CBIPAU_MAGIC_TYPE1@@@std@@@std@@@std@@U_Iterator_base12@2@@std@@QAE@XZ 005b5cc0 f i Unit.obj
 0002:00039d10       ??1?$_Tree_unchecked_const_iterator@V?$_Tree_val@U?$_Tree_simple_types@U?$pair@$$CBIPAU_MAGIC_TYPE2@@@std@@@std@@@std@@U_Iterator_base12@2@@std@@QAE@XZ 005b5d10 f i Unit.obj
 0002:00039d60       ??1?$_Tree_val@U?$_Tree_simple_types@U?$pair@$$CBEF@std@@@std@@@std@@QAE@XZ 005b5d60 f i Unit.obj
 0002:00039db0       ??1?$_Tree_val@U?$_Tree_simple_types@U?$pair@$$CBEU_BUFF_TYPE4_INFO@@@std@@@std@@@std@@QAE@XZ 005b5db0 f i Unit.obj
 0002:00039e00       ??1?$_Tree_val@U?$_Tree_simple_types@U?$pair@$$CBEU_BUFF_TYPE9_INFO@@@std@@@std@@@std@@QAE@XZ 005b5e00 f i Unit.obj
 0002:00039e50       ??1?$_Tree_val@U?$_Tree_simple_types@U?$pair@$$CBEV?$map@EFU?$less@E@std@@V?$allocator@U?$pair@$$CBEF@std@@@2@@std@@@std@@@std@@@std@@QAE@XZ 005b5e50 f i Unit.obj
 0002:00039ea0       ??1?$map@EFU?$less@E@std@@V?$allocator@U?$pair@$$CBEF@std@@@2@@std@@QAE@XZ 005b5ea0 f i Unit.obj
 0002:00039ef0       ??1?$map@EU_BUFF_TYPE4_INFO@@U?$less@E@std@@V?$allocator@U?$pair@$$CBEU_BUFF_TYPE4_INFO@@@std@@@3@@std@@QAE@XZ 005b5ef0 f i Unit.obj
 0002:00039f40       ??1?$map@EU_BUFF_TYPE9_INFO@@U?$less@E@std@@V?$allocator@U?$pair@$$CBEU_BUFF_TYPE9_INFO@@@std@@@3@@std@@QAE@XZ 005b5f40 f i Unit.obj
 0002:00039f90       ??1?$map@EV?$map@EFU?$less@E@std@@V?$allocator@U?$pair@$$CBEF@std@@@2@@std@@U?$less@E@2@V?$allocator@U?$pair@$$CBEV?$map@EFU?$less@E@std@@V?$allocator@U?$pair@$$CBEF@std@@@2@@std@@@std@@@2@@std@@QAE@XZ 005b5f90 f i Unit.obj
 0002:00039fe0       ??1?$pair@$$CBEV?$map@EFU?$less@E@std@@V?$allocator@U?$pair@$$CBEF@std@@@2@@std@@@std@@QAE@XZ 005b5fe0 f i Unit.obj
 0002:0003a040       ??1?$pair@V?$_Tree_iterator@V?$_Tree_val@U?$_Tree_simple_types@U?$pair@$$CBEU_BUFF_TYPE4_INFO@@@std@@@std@@@std@@@std@@_N@std@@QAE@XZ 005b6040 f i Unit.obj
 0002:0003a090       ??1ReferenceObject@@UAE@XZ 005b6090 f i Unit.obj
 0002:0003a0d0       ??1Unit@@UAE@XZ            005b60d0 f i Unit.obj
 0002:0003a170       ??1_Mutex_base@std@@QAE@XZ 005b6170 f i Unit.obj
 0002:0003a1d0       ??1recursive_mutex@std@@QAE@XZ 005b61d0 f i Unit.obj
 0002:0003a220       ??6ByteBuffer@@QAEAAV0@F@Z 005b6220 f i Unit.obj
 0002:0003a280       ??6ByteBuffer@@QAEAAV0@G@Z 005b6280 f i Unit.obj
 0002:0003a2e0       ??8?$_Tree_const_iterator@V?$_Tree_val@U?$_Tree_simple_types@U?$pair@$$CBEF@std@@@std@@@std@@@std@@QBE_NABV01@@Z 005b62e0 f i Unit.obj
 0002:0003a400       ??8?$_Tree_const_iterator@V?$_Tree_val@U?$_Tree_simple_types@U?$pair@$$CBEU_BUFF_TYPE9_INFO@@@std@@@std@@@std@@@std@@QBE_NABV01@@Z 005b6400 f i Unit.obj
 0002:0003a520       ??8?$_Tree_const_iterator@V?$_Tree_val@U?$_Tree_simple_types@U?$pair@$$CBEV?$map@EFU?$less@E@std@@V?$allocator@U?$pair@$$CBEF@std@@@2@@std@@@std@@@std@@@std@@@std@@QBE_NABV01@@Z 005b6520 f i Unit.obj
 0002:0003a640       ??8?$_Tree_const_iterator@V?$_Tree_val@U?$_Tree_simple_types@U?$pair@$$CBIPAU_MAGIC_TYPE1@@@std@@@std@@@std@@@std@@QBE_NABV01@@Z 005b6640 f i Unit.obj
 0002:0003a760       ??8?$_Tree_const_iterator@V?$_Tree_val@U?$_Tree_simple_types@U?$pair@$$CBIPAU_MAGIC_TYPE2@@@std@@@std@@@std@@@std@@QBE_NABV01@@Z 005b6760 f i Unit.obj
 0002:0003a880       ??9?$_Tree_const_iterator@V?$_Tree_val@U?$_Tree_simple_types@U?$pair@$$CBEF@std@@@std@@@std@@@std@@QBE_NABV01@@Z 005b6880 f i Unit.obj
 0002:0003a910       ??9?$_Tree_const_iterator@V?$_Tree_val@U?$_Tree_simple_types@U?$pair@$$CBEU_BUFF_TYPE9_INFO@@@std@@@std@@@std@@@std@@QBE_NABV01@@Z 005b6910 f i Unit.obj
 0002:0003a9a0       ??9?$_Tree_const_iterator@V?$_Tree_val@U?$_Tree_simple_types@U?$pair@$$CBEV?$map@EFU?$less@E@std@@V?$allocator@U?$pair@$$CBEF@std@@@2@@std@@@std@@@std@@@std@@@std@@QBE_NABV01@@Z 005b69a0 f i Unit.obj
 0002:0003aa30       ??9?$_Tree_const_iterator@V?$_Tree_val@U?$_Tree_simple_types@U?$pair@$$CBIPAU_MAGIC_TYPE1@@@std@@@std@@@std@@@std@@QBE_NABV01@@Z 005b6a30 f i Unit.obj
 0002:0003aac0       ??9?$_Tree_const_iterator@V?$_Tree_val@U?$_Tree_simple_types@U?$pair@$$CBIPAU_MAGIC_TYPE2@@@std@@@std@@@std@@@std@@QBE_NABV01@@Z 005b6ac0 f i Unit.obj
 0002:0003ab50       ??C?$_Tree_iterator@V?$_Tree_val@U?$_Tree_simple_types@U?$pair@$$CBEF@std@@@std@@@std@@@std@@QBEPAU?$pair@$$CBEF@1@XZ 005b6b50 f i Unit.obj
 0002:0003abb0       ??C?$_Tree_iterator@V?$_Tree_val@U?$_Tree_simple_types@U?$pair@$$CBEV?$map@EFU?$less@E@std@@V?$allocator@U?$pair@$$CBEF@std@@@2@@std@@@std@@@std@@@std@@@std@@QBEPAU?$pair@$$CBEV?$map@EFU?$less@E@std@@V?$allocator@U?$pair@$$CBEF@std@@@2@@std@@@1@XZ 005b6bb0 f i Unit.obj
 0002:0003ac10       ??C?$_Tree_iterator@V?$_Tree_val@U?$_Tree_simple_types@U?$pair@$$CBIPAU_MAGIC_TYPE1@@@std@@@std@@@std@@@std@@QBEPAU?$pair@$$CBIPAU_MAGIC_TYPE1@@@1@XZ 005b6c10 f i Unit.obj
 0002:0003ac70       ??C?$_Tree_iterator@V?$_Tree_val@U?$_Tree_simple_types@U?$pair@$$CBIPAU_MAGIC_TYPE2@@@std@@@std@@@std@@@std@@QBEPAU?$pair@$$CBIPAU_MAGIC_TYPE2@@@1@XZ 005b6c70 f i Unit.obj
 0002:0003acd0       ??D?$_Tree_const_iterator@V?$_Tree_val@U?$_Tree_simple_types@U?$pair@$$CBEF@std@@@std@@@std@@@std@@QBEABU?$pair@$$CBEF@1@XZ 005b6cd0 f i Unit.obj
 0002:0003ade0       ??D?$_Tree_const_iterator@V?$_Tree_val@U?$_Tree_simple_types@U?$pair@$$CBEV?$map@EFU?$less@E@std@@V?$allocator@U?$pair@$$CBEF@std@@@2@@std@@@std@@@std@@@std@@@std@@QBEABU?$pair@$$CBEV?$map@EFU?$less@E@std@@V?$allocator@U?$pair@$$CBEF@std@@@2@@std@@@1@XZ 005b6de0 f i Unit.obj
 0002:0003aef0       ??D?$_Tree_const_iterator@V?$_Tree_val@U?$_Tree_simple_types@U?$pair@$$CBIPAU_MAGIC_TYPE1@@@std@@@std@@@std@@@std@@QBEABU?$pair@$$CBIPAU_MAGIC_TYPE1@@@1@XZ 005b6ef0 f i Unit.obj
 0002:0003b000       ??D?$_Tree_const_iterator@V?$_Tree_val@U?$_Tree_simple_types@U?$pair@$$CBIPAU_MAGIC_TYPE2@@@std@@@std@@@std@@@std@@QBEABU?$pair@$$CBIPAU_MAGIC_TYPE2@@@1@XZ 005b7000 f i Unit.obj
 0002:0003b110       ??D?$_Tree_iterator@V?$_Tree_val@U?$_Tree_simple_types@U?$pair@$$CBEF@std@@@std@@@std@@@std@@QBEAAU?$pair@$$CBEF@1@XZ 005b7110 f i Unit.obj
 0002:0003b160       ??D?$_Tree_iterator@V?$_Tree_val@U?$_Tree_simple_types@U?$pair@$$CBEV?$map@EFU?$less@E@std@@V?$allocator@U?$pair@$$CBEF@std@@@2@@std@@@std@@@std@@@std@@@std@@QBEAAU?$pair@$$CBEV?$map@EFU?$less@E@std@@V?$allocator@U?$pair@$$CBEF@std@@@2@@std@@@1@XZ 005b7160 f i Unit.obj
 0002:0003b1b0       ??D?$_Tree_iterator@V?$_Tree_val@U?$_Tree_simple_types@U?$pair@$$CBIPAU_MAGIC_TYPE1@@@std@@@std@@@std@@@std@@QBEAAU?$pair@$$CBIPAU_MAGIC_TYPE1@@@1@XZ 005b71b0 f i Unit.obj
 0002:0003b200       ??D?$_Tree_iterator@V?$_Tree_val@U?$_Tree_simple_types@U?$pair@$$CBIPAU_MAGIC_TYPE2@@@std@@@std@@@std@@@std@@QBEAAU?$pair@$$CBIPAU_MAGIC_TYPE2@@@1@XZ 005b7200 f i Unit.obj
 0002:0003b250       ??E?$_Tree_const_iterator@V?$_Tree_val@U?$_Tree_simple_types@U?$pair@$$CBEF@std@@@std@@@std@@@std@@QAE?AV01@H@Z 005b7250 f i Unit.obj
 0002:0003b370       ??E?$_Tree_const_iterator@V?$_Tree_val@U?$_Tree_simple_types@U?$pair@$$CBEF@std@@@std@@@std@@@std@@QAEAAV01@XZ 005b7370 f i Unit.obj
 0002:0003b480       ??E?$_Tree_const_iterator@V?$_Tree_val@U?$_Tree_simple_types@U?$pair@$$CBEU_BUFF_TYPE4_INFO@@@std@@@std@@@std@@@std@@QAE?AV01@H@Z 005b7480 f i Unit.obj
 0002:0003b5a0       ??E?$_Tree_const_iterator@V?$_Tree_val@U?$_Tree_simple_types@U?$pair@$$CBEU_BUFF_TYPE9_INFO@@@std@@@std@@@std@@@std@@QAE?AV01@H@Z 005b75a0 f i Unit.obj
 0002:0003b6c0       ??E?$_Tree_const_iterator@V?$_Tree_val@U?$_Tree_simple_types@U?$pair@$$CBEU_BUFF_TYPE9_INFO@@@std@@@std@@@std@@@std@@QAEAAV01@XZ 005b76c0 f i Unit.obj
 0002:0003b7d0       ??E?$_Tree_const_iterator@V?$_Tree_val@U?$_Tree_simple_types@U?$pair@$$CBEV?$map@EFU?$less@E@std@@V?$allocator@U?$pair@$$CBEF@std@@@2@@std@@@std@@@std@@@std@@@std@@QAE?AV01@H@Z 005b77d0 f i Unit.obj
 0002:0003b8f0       ??E?$_Tree_const_iterator@V?$_Tree_val@U?$_Tree_simple_types@U?$pair@$$CBEV?$map@EFU?$less@E@std@@V?$allocator@U?$pair@$$CBEF@std@@@2@@std@@@std@@@std@@@std@@@std@@QAEAAV01@XZ 005b78f0 f i Unit.obj
 0002:0003ba00       ??E?$_Tree_iterator@V?$_Tree_val@U?$_Tree_simple_types@U?$pair@$$CBEF@std@@@std@@@std@@@std@@QAE?AV01@H@Z 005b7a00 f i Unit.obj
 0002:0003bb20       ??E?$_Tree_iterator@V?$_Tree_val@U?$_Tree_simple_types@U?$pair@$$CBEF@std@@@std@@@std@@@std@@QAEAAV01@XZ 005b7b20 f i Unit.obj
 0002:0003bb80       ??E?$_Tree_iterator@V?$_Tree_val@U?$_Tree_simple_types@U?$pair@$$CBEU_BUFF_TYPE4_INFO@@@std@@@std@@@std@@@std@@QAE?AV01@H@Z 005b7b80 f i Unit.obj
 0002:0003bca0       ??E?$_Tree_iterator@V?$_Tree_val@U?$_Tree_simple_types@U?$pair@$$CBEU_BUFF_TYPE4_INFO@@@std@@@std@@@std@@@std@@QAEAAV01@XZ 005b7ca0 f i Unit.obj
 0002:0003bd00       ??E?$_Tree_iterator@V?$_Tree_val@U?$_Tree_simple_types@U?$pair@$$CBEV?$map@EFU?$less@E@std@@V?$allocator@U?$pair@$$CBEF@std@@@2@@std@@@std@@@std@@@std@@@std@@QAE?AV01@H@Z 005b7d00 f i Unit.obj
 0002:0003be20       ??E?$_Tree_iterator@V?$_Tree_val@U?$_Tree_simple_types@U?$pair@$$CBEV?$map@EFU?$less@E@std@@V?$allocator@U?$pair@$$CBEF@std@@@2@@std@@@std@@@std@@@std@@@std@@QAEAAV01@XZ 005b7e20 f i Unit.obj
 0002:0003be80       ??E?$_Tree_unchecked_const_iterator@V?$_Tree_val@U?$_Tree_simple_types@U?$pair@$$CBEF@std@@@std@@@std@@U_Iterator_base12@2@@std@@QAEAAV01@XZ 005b7e80 f i Unit.obj
 0002:0003bfb0       ??E?$_Tree_unchecked_const_iterator@V?$_Tree_val@U?$_Tree_simple_types@U?$pair@$$CBEU_BUFF_TYPE9_INFO@@@std@@@std@@@std@@U_Iterator_base12@2@@std@@QAEAAV01@XZ 005b7fb0 f i Unit.obj
 0002:0003c0e0       ??E?$_Tree_unchecked_const_iterator@V?$_Tree_val@U?$_Tree_simple_types@U?$pair@$$CBEV?$map@EFU?$less@E@std@@V?$allocator@U?$pair@$$CBEF@std@@@2@@std@@@std@@@std@@@std@@U_Iterator_base12@2@@std@@QAEAAV01@XZ 005b80e0 f i Unit.obj
 0002:0003c210       ??F?$_Tree_const_iterator@V?$_Tree_val@U?$_Tree_simple_types@U?$pair@$$CBEU_BUFF_TYPE4_INFO@@@std@@@std@@@std@@@std@@QAEAAV01@XZ 005b8210 f i Unit.obj
 0002:0003c3a0       ??F?$_Tree_iterator@V?$_Tree_val@U?$_Tree_simple_types@U?$pair@$$CBEU_BUFF_TYPE4_INFO@@@std@@@std@@@std@@@std@@QAEAAV01@XZ 005b83a0 f i Unit.obj
 0002:0003c400       ??F?$_Tree_unchecked_const_iterator@V?$_Tree_val@U?$_Tree_simple_types@U?$pair@$$CBEU_BUFF_TYPE4_INFO@@@std@@@std@@@std@@U_Iterator_base12@2@@std@@QAEAAV01@XZ 005b8400 f i Unit.obj
 0002:0003c560       ??_G?$pair@$$CBEV?$map@EFU?$less@E@std@@V?$allocator@U?$pair@$$CBEF@std@@@2@@std@@@std@@QAEPAXI@Z 005b8560 f i Unit.obj
 0002:0003c5d0       ??_EReferenceObject@@UAEPAXI@Z 005b85d0 f i Unit.obj
 0002:0003c5d0       ??_GReferenceObject@@UAEPAXI@Z 005b85d0 f i Unit.obj
 0002:0003c640       ??_EUnit@@UAEPAXI@Z        005b8640 f i Unit.obj
 0002:0003c640       ??_GUnit@@UAEPAXI@Z        005b8640 f i Unit.obj
 0002:0003c6c0       ??_H@YGXPAXIIP6EPAX0@Z@Z   005b86c0 f i Unit.obj
 0002:0003c770       ?AddType4Buff@Unit@@QAEXEAAU_BUFF_TYPE4_INFO@@@Z 005b8770 f   Unit.obj
 0002:0003c8d0       ?CanAttack@Unit@@UAE_NPAV1@@Z 005b88d0 f   Unit.obj
 0002:0003c9d0       ?CanCastRHit@Unit@@UAE_NG@Z 005b89d0 f   Unit.obj
 0002:0003ca10       ?GetACDamage@Unit@@QAEFHPAV1@@Z 005b8a10 f   Unit.obj
 0002:0003ca90       ?GetDamage@CNpc@@QAEFPAV1@PAU_MAGIC_TABLE@@_N@Z 005b8a90 f   Unit.obj
 0002:0003cca0       ?GetDamage@CNpc@@QAEFPAVCUser@@PAU_MAGIC_TABLE@@_N@Z 005b8ca0 f   Unit.obj
 0002:0003cf20       ?GetDamage@CNpc@@UAEFPAVUnit@@PAU_MAGIC_TABLE@@_N@Z 005b8f20 f   Unit.obj
 0002:0003cfb0       ?GetDamage@CUser@@UAEFPAVUnit@@PAU_MAGIC_TABLE@@_N@Z 005b8fb0 f   Unit.obj
 0002:0003d6d0       ?GetData@?$CSTLMap@U_MAGIC_TYPE1@@@@QAEPAU_MAGIC_TYPE1@@I@Z 005b96d0 f i Unit.obj
 0002:0003d890       ?GetData@?$CSTLMap@U_MAGIC_TYPE2@@@@QAEPAU_MAGIC_TYPE2@@I@Z 005b9890 f i Unit.obj
 0002:0003da50       ?GetDistance@Unit@@QAEMMM@Z 005b9a50 f   Unit.obj
 0002:0003dae0       ?GetDistance@Unit@@QAEMPAV1@@Z 005b9ae0 f   Unit.obj
 0002:0003dbb0       ?GetDistance@Unit@@SAMMMMM@Z 005b9bb0 f   Unit.obj
 0002:0003dca0       ?GetDistanceSqrt@Unit@@QAEMPAV1@@Z 005b9ca0 f   Unit.obj
 0002:0003dd80       ?GetEventRoom@Unit@@QAEGXZ 005b9d80 f i Unit.obj
 0002:0003de00       ?GetHitRate@Unit@@QAEEM@Z  005b9e00 f   Unit.obj
 0002:0003e2e0       ?GetLevel@Unit@@QAEEXZ     005ba2e0 f i Unit.obj
 0002:0003e320       ?GetMagicDamage@Unit@@QAEFHPAV1@_N@Z 005ba320 f   Unit.obj
 0002:0003ea80       ?GetNation@Unit@@QAEEXZ    005baa80 f i Unit.obj
 0002:0003eac0       ?GetProto@CNpc@@QAEPAVCNpcTable@@XZ 005baac0 f i Unit.obj
 0002:0003eb00       ?GetSavedMagicDuration@Unit@@UAEFI@Z 005bab00 f i Unit.obj
 0002:0003eb40       ?GetType@CNpc@@QAEEXZ      005bab40 f i Unit.obj
 0002:0003eba0       ?GetX@Unit@@QAEMXZ         005baba0 f i Unit.obj
 0002:0003ebe0       ?GetZ@Unit@@QAEMXZ         005babe0 f i Unit.obj
 0002:0003ec20       ?HasSavedMagic@Unit@@UAE_NI@Z 005bac20 f i Unit.obj
 0002:0003ec60       ?HpChangeMagic@Unit@@UAEXHPAV1@W4AttributeType@@@Z 005bac60 f i Unit.obj
 0002:0003ecd0       ?InitType3@Unit@@QAEXXZ    005bacd0 f   Unit.obj
 0002:0003ed60       ?InitType4@Unit@@QAEX_NE@Z 005bad60 f   Unit.obj
 0002:0003ef50       ?Initialize@Unit@@UAEXXZ   005baf50 f   Unit.obj
 0002:0003f3a0       ?InsertSavedMagic@Unit@@UAEXIG@Z 005bb3a0 f i Unit.obj
 0002:0003f3e0       ?OnAttack@Unit@@UAEXPAV1@W4AttackType@@@Z 005bb3e0 f i Unit.obj
 0002:0003f420       ?OnDeath@Unit@@QAEXPAV1@@Z 005bb420 f   Unit.obj
 0002:0003f460       ?OnDefend@Unit@@UAEXPAV1@W4AttackType@@@Z 005bb460 f i Unit.obj
 0002:0003f4a0       ?Reset@MagicType3@Unit@@QAEXXZ 005bb4a0 f i Unit.obj
 0002:0003f530       ?SendDeathAnimation@Unit@@QAEXPAV1@@Z 005bb530 f   Unit.obj
 0002:0003f6b0       ?SetPosition@Unit@@QAEXMMM@Z 005bb6b0 f i Unit.obj
 0002:0003f720       ?SetZoneAttributes@MAP@@IAEXH@Z 005bb720 f   Unit.obj
 0002:0003ffc0       ?StateChangeServerDirect@Unit@@UAEXEI@Z 005bbfc0 f i Unit.obj
 0002:00040000       ?_Alloc_proxy@?$_Tree_comp_alloc@V?$_Tmap_traits@EU_BUFF_TYPE4_INFO@@U?$less@E@std@@V?$allocator@U?$pair@$$CBEU_BUFF_TYPE4_INFO@@@std@@@3@$0A@@std@@@std@@QAEXXZ 005bc000 f i Unit.obj
 0002:00040100       ?_Alloc_proxy@?$_Tree_comp_alloc@V?$_Tmap_traits@EU_BUFF_TYPE9_INFO@@U?$less@E@std@@V?$allocator@U?$pair@$$CBEU_BUFF_TYPE9_INFO@@@std@@@3@$0A@@std@@@std@@QAEXXZ 005bc100 f i Unit.obj
 0002:00040200       ?_Alloc_proxy@?$_Tree_comp_alloc@V?$_Tmap_traits@EV?$map@EFU?$less@E@std@@V?$allocator@U?$pair@$$CBEF@std@@@2@@std@@U?$less@E@2@V?$allocator@U?$pair@$$CBEV?$map@EFU?$less@E@std@@V?$allocator@U?$pair@$$CBEF@std@@@2@@std@@@std@@@2@$0A@@std@@@std@@QAEXXZ 005bc200 f i Unit.obj
 0002:00040300       ?_Buyheadnode@?$_Tree_comp_alloc@V?$_Tmap_traits@EU_BUFF_TYPE4_INFO@@U?$less@E@std@@V?$allocator@U?$pair@$$CBEU_BUFF_TYPE4_INFO@@@std@@@3@$0A@@std@@@std@@QAEPAU?$_Tree_node@U?$pair@$$CBEU_BUFF_TYPE4_INFO@@@std@@PAX@2@XZ 005bc300 f i Unit.obj
 0002:00040510       ?_Buyheadnode@?$_Tree_comp_alloc@V?$_Tmap_traits@EU_BUFF_TYPE9_INFO@@U?$less@E@std@@V?$allocator@U?$pair@$$CBEU_BUFF_TYPE9_INFO@@@std@@@3@$0A@@std@@@std@@QAEPAU?$_Tree_node@U?$pair@$$CBEU_BUFF_TYPE9_INFO@@@std@@PAX@2@XZ 005bc510 f i Unit.obj
 0002:00040720       ?_Buyheadnode@?$_Tree_comp_alloc@V?$_Tmap_traits@EV?$map@EFU?$less@E@std@@V?$allocator@U?$pair@$$CBEF@std@@@2@@std@@U?$less@E@2@V?$allocator@U?$pair@$$CBEV?$map@EFU?$less@E@std@@V?$allocator@U?$pair@$$CBEF@std@@@2@@std@@@std@@@2@$0A@@std@@@std@@QAEPAU?$_Tree_node@U?$pair@$$CBEV?$map@EFU?$less@E@std@@V?$allocator@U?$pair@$$CBEF@std@@@2@@std@@@std@@PAX@2@XZ 005bc720 f i Unit.obj
 0002:00040930       ?_Buynode0@?$_Tree_comp_alloc@V?$_Tmap_traits@EU_BUFF_TYPE4_INFO@@U?$less@E@std@@V?$allocator@U?$pair@$$CBEU_BUFF_TYPE4_INFO@@@std@@@3@$0A@@std@@@std@@QAEPAU?$_Tree_node@U?$pair@$$CBEU_BUFF_TYPE4_INFO@@@std@@PAX@2@XZ 005bc930 f i Unit.obj
 0002:00040af0       ?_Color@?$_Tree_comp_alloc@V?$_Tmap_traits@EFU?$less@E@std@@V?$allocator@U?$pair@$$CBEF@std@@@2@$0A@@std@@@std@@SAAADPAU?$_Tree_node@U?$pair@$$CBEF@std@@PAX@2@@Z 005bcaf0 f i Unit.obj
 0002:00040b40       ?_Color@?$_Tree_comp_alloc@V?$_Tmap_traits@EU_BUFF_TYPE9_INFO@@U?$less@E@std@@V?$allocator@U?$pair@$$CBEU_BUFF_TYPE9_INFO@@@std@@@3@$0A@@std@@@std@@SAAADPAU?$_Tree_node@U?$pair@$$CBEU_BUFF_TYPE9_INFO@@@std@@PAX@2@@Z 005bcb40 f i Unit.obj
 0002:00040b90       ?_Color@?$_Tree_comp_alloc@V?$_Tmap_traits@EV?$map@EFU?$less@E@std@@V?$allocator@U?$pair@$$CBEF@std@@@2@@std@@U?$less@E@2@V?$allocator@U?$pair@$$CBEV?$map@EFU?$less@E@std@@V?$allocator@U?$pair@$$CBEF@std@@@2@@std@@@std@@@2@$0A@@std@@@std@@SAAADPAU?$_Tree_node@U?$pair@$$CBEV?$map@EFU?$less@E@std@@V?$allocator@U?$pair@$$CBEF@std@@@2@@std@@@std@@PAX@2@@Z 005bcb90 f i Unit.obj
 0002:00040be0       ?_Color@?$_Tree_val@U?$_Tree_simple_types@U?$pair@$$CBEF@std@@@std@@@std@@SAAADPAU?$_Tree_node@U?$pair@$$CBEF@std@@PAX@2@@Z 005bcbe0 f i Unit.obj
 0002:00040c20       ?_Color@?$_Tree_val@U?$_Tree_simple_types@U?$pair@$$CBEU_BUFF_TYPE9_INFO@@@std@@@std@@@std@@SAAADPAU?$_Tree_node@U?$pair@$$CBEU_BUFF_TYPE9_INFO@@@std@@PAX@2@@Z 005bcc20 f i Unit.obj
 0002:00040c60       ?_Color@?$_Tree_val@U?$_Tree_simple_types@U?$pair@$$CBEV?$map@EFU?$less@E@std@@V?$allocator@U?$pair@$$CBEF@std@@@2@@std@@@std@@@std@@@std@@SAAADPAU?$_Tree_node@U?$pair@$$CBEV?$map@EFU?$less@E@std@@V?$allocator@U?$pair@$$CBEF@std@@@2@@std@@@std@@PAX@2@@Z 005bcc60 f i Unit.obj
 0002:00040ca0       ?_Compare@?$_Tree@V?$_Tmap_traits@IPAU_MAGIC_TYPE1@@U?$less@I@std@@V?$allocator@U?$pair@$$CBIPAU_MAGIC_TYPE1@@@std@@@3@$0A@@std@@@std@@IBE_NABI0@Z 005bcca0 f i Unit.obj
 0002:00040d20       ?_Compare@?$_Tree@V?$_Tmap_traits@IPAU_MAGIC_TYPE2@@U?$less@I@std@@V?$allocator@U?$pair@$$CBIPAU_MAGIC_TYPE2@@@std@@@3@$0A@@std@@@std@@IBE_NABI0@Z 005bcd20 f i Unit.obj
 0002:00040da0       ?_Construct@?$_Tree_comp_alloc@V?$_Tmap_traits@EU_BUFF_TYPE4_INFO@@U?$less@E@std@@V?$allocator@U?$pair@$$CBEU_BUFF_TYPE4_INFO@@@std@@@3@$0A@@std@@@std@@QAEXXZ 005bcda0 f i Unit.obj
 0002:00040e90       ?_Construct@?$_Tree_comp_alloc@V?$_Tmap_traits@EU_BUFF_TYPE9_INFO@@U?$less@E@std@@V?$allocator@U?$pair@$$CBEU_BUFF_TYPE9_INFO@@@std@@@3@$0A@@std@@@std@@QAEXXZ 005bce90 f i Unit.obj
 0002:00040f80       ?_Construct@?$_Tree_comp_alloc@V?$_Tmap_traits@EV?$map@EFU?$less@E@std@@V?$allocator@U?$pair@$$CBEF@std@@@2@@std@@U?$less@E@2@V?$allocator@U?$pair@$$CBEV?$map@EFU?$less@E@std@@V?$allocator@U?$pair@$$CBEF@std@@@2@@std@@@std@@@2@$0A@@std@@@std@@QAEXXZ 005bcf80 f i Unit.obj
 0002:00041070       ?_Destroy_if_not_nil@?$_Tree@V?$_Tmap_traits@EU_BUFF_TYPE4_INFO@@U?$less@E@std@@V?$allocator@U?$pair@$$CBEU_BUFF_TYPE4_INFO@@@std@@@3@$0A@@std@@@std@@IAEXPAU?$_Tree_node@U?$pair@$$CBEU_BUFF_TYPE4_INFO@@@std@@PAX@2@@Z 005bd070 f i Unit.obj
 0002:00041100       ?_Erase@?$_Tree@V?$_Tmap_traits@EFU?$less@E@std@@V?$allocator@U?$pair@$$CBEF@std@@@2@$0A@@std@@@std@@IAEXPAU?$_Tree_node@U?$pair@$$CBEF@std@@PAX@2@@Z 005bd100 f i Unit.obj
 0002:000411f0       ?_Erase@?$_Tree@V?$_Tmap_traits@EU_BUFF_TYPE4_INFO@@U?$less@E@std@@V?$allocator@U?$pair@$$CBEU_BUFF_TYPE4_INFO@@@std@@@3@$0A@@std@@@std@@IAEXPAU?$_Tree_node@U?$pair@$$CBEU_BUFF_TYPE4_INFO@@@std@@PAX@2@@Z 005bd1f0 f i Unit.obj
 0002:000412e0       ?_Erase@?$_Tree@V?$_Tmap_traits@EU_BUFF_TYPE9_INFO@@U?$less@E@std@@V?$allocator@U?$pair@$$CBEU_BUFF_TYPE9_INFO@@@std@@@3@$0A@@std@@@std@@IAEXPAU?$_Tree_node@U?$pair@$$CBEU_BUFF_TYPE9_INFO@@@std@@PAX@2@@Z 005bd2e0 f i Unit.obj
 0002:000413d0       ?_Erase@?$_Tree@V?$_Tmap_traits@EV?$map@EFU?$less@E@std@@V?$allocator@U?$pair@$$CBEF@std@@@2@@std@@U?$less@E@2@V?$allocator@U?$pair@$$CBEV?$map@EFU?$less@E@std@@V?$allocator@U?$pair@$$CBEF@std@@@2@@std@@@std@@@2@$0A@@std@@@std@@IAEXPAU?$_Tree_node@U?$pair@$$CBEV?$map@EFU?$less@E@std@@V?$allocator@U?$pair@$$CBEF@std@@@2@@std@@@std@@PAX@2@@Z 005bd3d0 f i Unit.obj
 0002:000414c0       ?_Free_proxy@?$_Tree_comp_alloc@V?$_Tmap_traits@EFU?$less@E@std@@V?$allocator@U?$pair@$$CBEF@std@@@2@$0A@@std@@@std@@QAEXXZ 005bd4c0 f i Unit.obj
 0002:000415b0       ?_Free_proxy@?$_Tree_comp_alloc@V?$_Tmap_traits@EU_BUFF_TYPE4_INFO@@U?$less@E@std@@V?$allocator@U?$pair@$$CBEU_BUFF_TYPE4_INFO@@@std@@@3@$0A@@std@@@std@@QAEXXZ 005bd5b0 f i Unit.obj
 0002:000416a0       ?_Free_proxy@?$_Tree_comp_alloc@V?$_Tmap_traits@EU_BUFF_TYPE9_INFO@@U?$less@E@std@@V?$allocator@U?$pair@$$CBEU_BUFF_TYPE9_INFO@@@std@@@3@$0A@@std@@@std@@QAEXXZ 005bd6a0 f i Unit.obj
 0002:00041790       ?_Free_proxy@?$_Tree_comp_alloc@V?$_Tmap_traits@EV?$map@EFU?$less@E@std@@V?$allocator@U?$pair@$$CBEF@std@@@2@@std@@U?$less@E@2@V?$allocator@U?$pair@$$CBEV?$map@EFU?$less@E@std@@V?$allocator@U?$pair@$$CBEF@std@@@2@@std@@@std@@@2@$0A@@std@@@std@@QAEXXZ 005bd790 f i Unit.obj
 0002:00041880       ?_Freeheadnode@?$_Tree_comp_alloc@V?$_Tmap_traits@EFU?$less@E@std@@V?$allocator@U?$pair@$$CBEF@std@@@2@$0A@@std@@@std@@QAEXPAU?$_Tree_node@U?$pair@$$CBEF@std@@PAX@2@@Z 005bd880 f i Unit.obj
 0002:00041970       ?_Freeheadnode@?$_Tree_comp_alloc@V?$_Tmap_traits@EU_BUFF_TYPE4_INFO@@U?$less@E@std@@V?$allocator@U?$pair@$$CBEU_BUFF_TYPE4_INFO@@@std@@@3@$0A@@std@@@std@@QAEXPAU?$_Tree_node@U?$pair@$$CBEU_BUFF_TYPE4_INFO@@@std@@PAX@2@@Z 005bd970 f i Unit.obj
 0002:00041a60       ?_Freeheadnode@?$_Tree_comp_alloc@V?$_Tmap_traits@EU_BUFF_TYPE9_INFO@@U?$less@E@std@@V?$allocator@U?$pair@$$CBEU_BUFF_TYPE9_INFO@@@std@@@3@$0A@@std@@@std@@QAEXPAU?$_Tree_node@U?$pair@$$CBEU_BUFF_TYPE9_INFO@@@std@@PAX@2@@Z 005bda60 f i Unit.obj
 0002:00041b50       ?_Freeheadnode@?$_Tree_comp_alloc@V?$_Tmap_traits@EV?$map@EFU?$less@E@std@@V?$allocator@U?$pair@$$CBEF@std@@@2@@std@@U?$less@E@2@V?$allocator@U?$pair@$$CBEV?$map@EFU?$less@E@std@@V?$allocator@U?$pair@$$CBEF@std@@@2@@std@@@std@@@2@$0A@@std@@@std@@QAEXPAU?$_Tree_node@U?$pair@$$CBEV?$map@EFU?$less@E@std@@V?$allocator@U?$pair@$$CBEF@std@@@2@@std@@@std@@PAX@2@@Z 005bdb50 f i Unit.obj
 0002:00041c40       ?_Freenode0@?$_Tree_comp_alloc@V?$_Tmap_traits@EU_BUFF_TYPE4_INFO@@U?$less@E@std@@V?$allocator@U?$pair@$$CBEU_BUFF_TYPE4_INFO@@@std@@@3@$0A@@std@@@std@@QAEXPAU?$_Tree_node@U?$pair@$$CBEU_BUFF_TYPE4_INFO@@@std@@PAX@2@@Z 005bdc40 f i Unit.obj
 0002:00041d30       ?_Get_data@?$_Tree_comp_alloc@V?$_Tmap_traits@EFU?$less@E@std@@V?$allocator@U?$pair@$$CBEF@std@@@2@$0A@@std@@@std@@QAEAAV?$_Tree_val@U?$_Tree_simple_types@U?$pair@$$CBEF@std@@@std@@@2@XZ 005bdd30 f i Unit.obj
 0002:00041d90       ?_Get_data@?$_Tree_comp_alloc@V?$_Tmap_traits@EFU?$less@E@std@@V?$allocator@U?$pair@$$CBEF@std@@@2@$0A@@std@@@std@@QBEABV?$_Tree_val@U?$_Tree_simple_types@U?$pair@$$CBEF@std@@@std@@@2@XZ 005bdd90 f i Unit.obj
 0002:00041df0       ?_Get_data@?$_Tree_comp_alloc@V?$_Tmap_traits@EU_BUFF_TYPE9_INFO@@U?$less@E@std@@V?$allocator@U?$pair@$$CBEU_BUFF_TYPE9_INFO@@@std@@@3@$0A@@std@@@std@@QAEAAV?$_Tree_val@U?$_Tree_simple_types@U?$pair@$$CBEU_BUFF_TYPE9_INFO@@@std@@@std@@@2@XZ 005bddf0 f i Unit.obj
 0002:00041e50       ?_Get_data@?$_Tree_comp_alloc@V?$_Tmap_traits@EU_BUFF_TYPE9_INFO@@U?$less@E@std@@V?$allocator@U?$pair@$$CBEU_BUFF_TYPE9_INFO@@@std@@@3@$0A@@std@@@std@@QBEABV?$_Tree_val@U?$_Tree_simple_types@U?$pair@$$CBEU_BUFF_TYPE9_INFO@@@std@@@std@@@2@XZ 005bde50 f i Unit.obj
 0002:00041eb0       ?_Get_data@?$_Tree_comp_alloc@V?$_Tmap_traits@EV?$map@EFU?$less@E@std@@V?$allocator@U?$pair@$$CBEF@std@@@2@@std@@U?$less@E@2@V?$allocator@U?$pair@$$CBEV?$map@EFU?$less@E@std@@V?$allocator@U?$pair@$$CBEF@std@@@2@@std@@@std@@@2@$0A@@std@@@std@@QAEAAV?$_Tree_val@U?$_Tree_simple_types@U?$pair@$$CBEV?$map@EFU?$less@E@std@@V?$allocator@U?$pair@$$CBEF@std@@@2@@std@@@std@@@std@@@2@XZ 005bdeb0 f i Unit.obj
 0002:00041f10       ?_Get_data@?$_Tree_comp_alloc@V?$_Tmap_traits@EV?$map@EFU?$less@E@std@@V?$allocator@U?$pair@$$CBEF@std@@@2@@std@@U?$less@E@2@V?$allocator@U?$pair@$$CBEV?$map@EFU?$less@E@std@@V?$allocator@U?$pair@$$CBEF@std@@@2@@std@@@std@@@2@$0A@@std@@@std@@QBEABV?$_Tree_val@U?$_Tree_simple_types@U?$pair@$$CBEV?$map@EFU?$less@E@std@@V?$allocator@U?$pair@$$CBEF@std@@@2@@std@@@std@@@std@@@2@XZ 005bdf10 f i Unit.obj
 0002:00041f70       ?_Get_data@?$_Tree_comp_alloc@V?$_Tmap_traits@IPAU_MAGIC_TYPE1@@U?$less@I@std@@V?$allocator@U?$pair@$$CBIPAU_MAGIC_TYPE1@@@std@@@3@$0A@@std@@@std@@QAEAAV?$_Tree_val@U?$_Tree_simple_types@U?$pair@$$CBIPAU_MAGIC_TYPE1@@@std@@@std@@@2@XZ 005bdf70 f i Unit.obj
 0002:00041fd0       ?_Get_data@?$_Tree_comp_alloc@V?$_Tmap_traits@IPAU_MAGIC_TYPE1@@U?$less@I@std@@V?$allocator@U?$pair@$$CBIPAU_MAGIC_TYPE1@@@std@@@3@$0A@@std@@@std@@QBEABV?$_Tree_val@U?$_Tree_simple_types@U?$pair@$$CBIPAU_MAGIC_TYPE1@@@std@@@std@@@2@XZ 005bdfd0 f i Unit.obj
 0002:00042030       ?_Get_data@?$_Tree_comp_alloc@V?$_Tmap_traits@IPAU_MAGIC_TYPE2@@U?$less@I@std@@V?$allocator@U?$pair@$$CBIPAU_MAGIC_TYPE2@@@std@@@3@$0A@@std@@@std@@QAEAAV?$_Tree_val@U?$_Tree_simple_types@U?$pair@$$CBIPAU_MAGIC_TYPE2@@@std@@@std@@@2@XZ 005be030 f i Unit.obj
 0002:00042090       ?_Get_data@?$_Tree_comp_alloc@V?$_Tmap_traits@IPAU_MAGIC_TYPE2@@U?$less@I@std@@V?$allocator@U?$pair@$$CBIPAU_MAGIC_TYPE2@@@std@@@3@$0A@@std@@@std@@QBEABV?$_Tree_val@U?$_Tree_simple_types@U?$pair@$$CBIPAU_MAGIC_TYPE2@@@std@@@std@@@2@XZ 005be090 f i Unit.obj
 0002:000420f0       ?_Get_first@?$_Compressed_pair@U?$_Wrap_alloc@V?$allocator@U?$_Tree_node@U?$pair@$$CBEF@std@@PAX@std@@@std@@@std@@V?$_Tree_val@U?$_Tree_simple_types@U?$pair@$$CBEF@std@@@std@@@2@$00@std@@QAEAAU?$_Wrap_alloc@V?$allocator@U?$_Tree_node@U?$pair@$$CBEF@std@@PAX@std@@@std@@@2@XZ 005be0f0 f i Unit.obj
 0002:00042130       ?_Get_first@?$_Compressed_pair@U?$_Wrap_alloc@V?$allocator@U?$_Tree_node@U?$pair@$$CBEU_BUFF_TYPE4_INFO@@@std@@PAX@std@@@std@@@std@@V?$_Tree_val@U?$_Tree_simple_types@U?$pair@$$CBEU_BUFF_TYPE4_INFO@@@std@@@std@@@2@$00@std@@QBEABU?$_Wrap_alloc@V?$allocator@U?$_Tree_node@U?$pair@$$CBEU_BUFF_TYPE4_INFO@@@std@@PAX@std@@@std@@@2@XZ 005be130 f i Unit.obj
 0002:00042170       ?_Get_first@?$_Compressed_pair@U?$_Wrap_alloc@V?$allocator@U?$_Tree_node@U?$pair@$$CBEU_BUFF_TYPE9_INFO@@@std@@PAX@std@@@std@@@std@@V?$_Tree_val@U?$_Tree_simple_types@U?$pair@$$CBEU_BUFF_TYPE9_INFO@@@std@@@std@@@2@$00@std@@QAEAAU?$_Wrap_alloc@V?$allocator@U?$_Tree_node@U?$pair@$$CBEU_BUFF_TYPE9_INFO@@@std@@PAX@std@@@std@@@2@XZ 005be170 f i Unit.obj
 0002:000421b0       ?_Get_first@?$_Compressed_pair@U?$_Wrap_alloc@V?$allocator@U?$_Tree_node@U?$pair@$$CBEV?$map@EFU?$less@E@std@@V?$allocator@U?$pair@$$CBEF@std@@@2@@std@@@std@@PAX@std@@@std@@@std@@V?$_Tree_val@U?$_Tree_simple_types@U?$pair@$$CBEV?$map@EFU?$less@E@std@@V?$allocator@U?$pair@$$CBEF@std@@@2@@std@@@std@@@std@@@2@$00@std@@QAEAAU?$_Wrap_alloc@V?$allocator@U?$_Tree_node@U?$pair@$$CBEV?$map@EFU?$less@E@std@@V?$allocator@U?$pair@$$CBEF@std@@@2@@std@@@std@@PAX@std@@@std@@@2@XZ 005be1b0 f i Unit.obj
 0002:000421f0       ?_Get_first@?$_Compressed_pair@U?$less@I@std@@V?$_Compressed_pair@U?$_Wrap_alloc@V?$allocator@U?$_Tree_node@U?$pair@$$CBIPAU_MAGIC_TYPE1@@@std@@PAX@std@@@std@@@std@@V?$_Tree_val@U?$_Tree_simple_types@U?$pair@$$CBIPAU_MAGIC_TYPE1@@@std@@@std@@@2@$00@2@$00@std@@QAEAAU?$less@I@2@XZ 005be1f0 f i Unit.obj
 0002:00042230       ?_Get_first@?$_Compressed_pair@U?$less@I@std@@V?$_Compressed_pair@U?$_Wrap_alloc@V?$allocator@U?$_Tree_node@U?$pair@$$CBIPAU_MAGIC_TYPE1@@@std@@PAX@std@@@std@@@std@@V?$_Tree_val@U?$_Tree_simple_types@U?$pair@$$CBIPAU_MAGIC_TYPE1@@@std@@@std@@@2@$00@2@$00@std@@QBEABU?$less@I@2@XZ 005be230 f i Unit.obj
 0002:00042270       ?_Get_first@?$_Compressed_pair@U?$less@I@std@@V?$_Compressed_pair@U?$_Wrap_alloc@V?$allocator@U?$_Tree_node@U?$pair@$$CBIPAU_MAGIC_TYPE2@@@std@@PAX@std@@@std@@@std@@V?$_Tree_val@U?$_Tree_simple_types@U?$pair@$$CBIPAU_MAGIC_TYPE2@@@std@@@std@@@2@$00@2@$00@std@@QAEAAU?$less@I@2@XZ 005be270 f i Unit.obj
 0002:000422b0       ?_Get_first@?$_Compressed_pair@U?$less@I@std@@V?$_Compressed_pair@U?$_Wrap_alloc@V?$allocator@U?$_Tree_node@U?$pair@$$CBIPAU_MAGIC_TYPE2@@@std@@PAX@std@@@std@@@std@@V?$_Tree_val@U?$_Tree_simple_types@U?$pair@$$CBIPAU_MAGIC_TYPE2@@@std@@@std@@@2@$00@2@$00@std@@QBEABU?$less@I@2@XZ 005be2b0 f i Unit.obj
 0002:000422f0       ?_Get_second@?$_Compressed_pair@U?$_Wrap_alloc@V?$allocator@U?$_Tree_node@U?$pair@$$CBEF@std@@PAX@std@@@std@@@std@@V?$_Tree_val@U?$_Tree_simple_types@U?$pair@$$CBEF@std@@@std@@@2@$00@std@@QAEAAV?$_Tree_val@U?$_Tree_simple_types@U?$pair@$$CBEF@std@@@std@@@2@XZ 005be2f0 f i Unit.obj
 0002:00042330       ?_Get_second@?$_Compressed_pair@U?$_Wrap_alloc@V?$allocator@U?$_Tree_node@U?$pair@$$CBEF@std@@PAX@std@@@std@@@std@@V?$_Tree_val@U?$_Tree_simple_types@U?$pair@$$CBEF@std@@@std@@@2@$00@std@@QBEABV?$_Tree_val@U?$_Tree_simple_types@U?$pair@$$CBEF@std@@@std@@@2@XZ 005be330 f i Unit.obj
 0002:00042370       ?_Get_second@?$_Compressed_pair@U?$_Wrap_alloc@V?$allocator@U?$_Tree_node@U?$pair@$$CBEU_BUFF_TYPE9_INFO@@@std@@PAX@std@@@std@@@std@@V?$_Tree_val@U?$_Tree_simple_types@U?$pair@$$CBEU_BUFF_TYPE9_INFO@@@std@@@std@@@2@$00@std@@QAEAAV?$_Tree_val@U?$_Tree_simple_types@U?$pair@$$CBEU_BUFF_TYPE9_INFO@@@std@@@std@@@2@XZ 005be370 f i Unit.obj
 0002:000423b0       ?_Get_second@?$_Compressed_pair@U?$_Wrap_alloc@V?$allocator@U?$_Tree_node@U?$pair@$$CBEU_BUFF_TYPE9_INFO@@@std@@PAX@std@@@std@@@std@@V?$_Tree_val@U?$_Tree_simple_types@U?$pair@$$CBEU_BUFF_TYPE9_INFO@@@std@@@std@@@2@$00@std@@QBEABV?$_Tree_val@U?$_Tree_simple_types@U?$pair@$$CBEU_BUFF_TYPE9_INFO@@@std@@@std@@@2@XZ 005be3b0 f i Unit.obj
 0002:000423f0       ?_Get_second@?$_Compressed_pair@U?$_Wrap_alloc@V?$allocator@U?$_Tree_node@U?$pair@$$CBEV?$map@EFU?$less@E@std@@V?$allocator@U?$pair@$$CBEF@std@@@2@@std@@@std@@PAX@std@@@std@@@std@@V?$_Tree_val@U?$_Tree_simple_types@U?$pair@$$CBEV?$map@EFU?$less@E@std@@V?$allocator@U?$pair@$$CBEF@std@@@2@@std@@@std@@@std@@@2@$00@std@@QAEAAV?$_Tree_val@U?$_Tree_simple_types@U?$pair@$$CBEV?$map@EFU?$less@E@std@@V?$allocator@U?$pair@$$CBEF@std@@@2@@std@@@std@@@std@@@2@XZ 005be3f0 f i Unit.obj
 0002:00042430       ?_Get_second@?$_Compressed_pair@U?$_Wrap_alloc@V?$allocator@U?$_Tree_node@U?$pair@$$CBEV?$map@EFU?$less@E@std@@V?$allocator@U?$pair@$$CBEF@std@@@2@@std@@@std@@PAX@std@@@std@@@std@@V?$_Tree_val@U?$_Tree_simple_types@U?$pair@$$CBEV?$map@EFU?$less@E@std@@V?$allocator@U?$pair@$$CBEF@std@@@2@@std@@@std@@@std@@@2@$00@std@@QBEABV?$_Tree_val@U?$_Tree_simple_types@U?$pair@$$CBEV?$map@EFU?$less@E@std@@V?$allocator@U?$pair@$$CBEF@std@@@2@@std@@@std@@@std@@@2@XZ 005be430 f i Unit.obj
 0002:00042470       ?_Get_second@?$_Compressed_pair@U?$_Wrap_alloc@V?$allocator@U?$_Tree_node@U?$pair@$$CBIPAU_MAGIC_TYPE1@@@std@@PAX@std@@@std@@@std@@V?$_Tree_val@U?$_Tree_simple_types@U?$pair@$$CBIPAU_MAGIC_TYPE1@@@std@@@std@@@2@$00@std@@QAEAAV?$_Tree_val@U?$_Tree_simple_types@U?$pair@$$CBIPAU_MAGIC_TYPE1@@@std@@@std@@@2@XZ 005be470 f i Unit.obj
 0002:000424b0       ?_Get_second@?$_Compressed_pair@U?$_Wrap_alloc@V?$allocator@U?$_Tree_node@U?$pair@$$CBIPAU_MAGIC_TYPE1@@@std@@PAX@std@@@std@@@std@@V?$_Tree_val@U?$_Tree_simple_types@U?$pair@$$CBIPAU_MAGIC_TYPE1@@@std@@@std@@@2@$00@std@@QBEABV?$_Tree_val@U?$_Tree_simple_types@U?$pair@$$CBIPAU_MAGIC_TYPE1@@@std@@@std@@@2@XZ 005be4b0 f i Unit.obj
 0002:000424f0       ?_Get_second@?$_Compressed_pair@U?$_Wrap_alloc@V?$allocator@U?$_Tree_node@U?$pair@$$CBIPAU_MAGIC_TYPE2@@@std@@PAX@std@@@std@@@std@@V?$_Tree_val@U?$_Tree_simple_types@U?$pair@$$CBIPAU_MAGIC_TYPE2@@@std@@@std@@@2@$00@std@@QAEAAV?$_Tree_val@U?$_Tree_simple_types@U?$pair@$$CBIPAU_MAGIC_TYPE2@@@std@@@std@@@2@XZ 005be4f0 f i Unit.obj
 0002:00042530       ?_Get_second@?$_Compressed_pair@U?$_Wrap_alloc@V?$allocator@U?$_Tree_node@U?$pair@$$CBIPAU_MAGIC_TYPE2@@@std@@PAX@std@@@std@@@std@@V?$_Tree_val@U?$_Tree_simple_types@U?$pair@$$CBIPAU_MAGIC_TYPE2@@@std@@@std@@@2@$00@std@@QBEABV?$_Tree_val@U?$_Tree_simple_types@U?$pair@$$CBIPAU_MAGIC_TYPE2@@@std@@@std@@@2@XZ 005be530 f i Unit.obj
 0002:00042570       ?_Get_second@?$_Compressed_pair@U?$less@E@std@@V?$_Compressed_pair@U?$_Wrap_alloc@V?$allocator@U?$_Tree_node@U?$pair@$$CBEF@std@@PAX@std@@@std@@@std@@V?$_Tree_val@U?$_Tree_simple_types@U?$pair@$$CBEF@std@@@std@@@2@$00@2@$00@std@@QAEAAV?$_Compressed_pair@U?$_Wrap_alloc@V?$allocator@U?$_Tree_node@U?$pair@$$CBEF@std@@PAX@std@@@std@@@std@@V?$_Tree_val@U?$_Tree_simple_types@U?$pair@$$CBEF@std@@@std@@@2@$00@2@XZ 005be570 f i Unit.obj
 0002:000425b0       ?_Get_second@?$_Compressed_pair@U?$less@E@std@@V?$_Compressed_pair@U?$_Wrap_alloc@V?$allocator@U?$_Tree_node@U?$pair@$$CBEF@std@@PAX@std@@@std@@@std@@V?$_Tree_val@U?$_Tree_simple_types@U?$pair@$$CBEF@std@@@std@@@2@$00@2@$00@std@@QBEABV?$_Compressed_pair@U?$_Wrap_alloc@V?$allocator@U?$_Tree_node@U?$pair@$$CBEF@std@@PAX@std@@@std@@@std@@V?$_Tree_val@U?$_Tree_simple_types@U?$pair@$$CBEF@std@@@std@@@2@$00@2@XZ 005be5b0 f i Unit.obj
 0002:000425f0       ?_Get_second@?$_Compressed_pair@U?$less@E@std@@V?$_Compressed_pair@U?$_Wrap_alloc@V?$allocator@U?$_Tree_node@U?$pair@$$CBEU_BUFF_TYPE9_INFO@@@std@@PAX@std@@@std@@@std@@V?$_Tree_val@U?$_Tree_simple_types@U?$pair@$$CBEU_BUFF_TYPE9_INFO@@@std@@@std@@@2@$00@2@$00@std@@QAEAAV?$_Compressed_pair@U?$_Wrap_alloc@V?$allocator@U?$_Tree_node@U?$pair@$$CBEU_BUFF_TYPE9_INFO@@@std@@PAX@std@@@std@@@std@@V?$_Tree_val@U?$_Tree_simple_types@U?$pair@$$CBEU_BUFF_TYPE9_INFO@@@std@@@std@@@2@$00@2@XZ 005be5f0 f i Unit.obj
 0002:00042630       ?_Get_second@?$_Compressed_pair@U?$less@E@std@@V?$_Compressed_pair@U?$_Wrap_alloc@V?$allocator@U?$_Tree_node@U?$pair@$$CBEU_BUFF_TYPE9_INFO@@@std@@PAX@std@@@std@@@std@@V?$_Tree_val@U?$_Tree_simple_types@U?$pair@$$CBEU_BUFF_TYPE9_INFO@@@std@@@std@@@2@$00@2@$00@std@@QBEABV?$_Compressed_pair@U?$_Wrap_alloc@V?$allocator@U?$_Tree_node@U?$pair@$$CBEU_BUFF_TYPE9_INFO@@@std@@PAX@std@@@std@@@std@@V?$_Tree_val@U?$_Tree_simple_types@U?$pair@$$CBEU_BUFF_TYPE9_INFO@@@std@@@std@@@2@$00@2@XZ 005be630 f i Unit.obj
 0002:00042670       ?_Get_second@?$_Compressed_pair@U?$less@E@std@@V?$_Compressed_pair@U?$_Wrap_alloc@V?$allocator@U?$_Tree_node@U?$pair@$$CBEV?$map@EFU?$less@E@std@@V?$allocator@U?$pair@$$CBEF@std@@@2@@std@@@std@@PAX@std@@@std@@@std@@V?$_Tree_val@U?$_Tree_simple_types@U?$pair@$$CBEV?$map@EFU?$less@E@std@@V?$allocator@U?$pair@$$CBEF@std@@@2@@std@@@std@@@std@@@2@$00@2@$00@std@@QAEAAV?$_Compressed_pair@U?$_Wrap_alloc@V?$allocator@U?$_Tree_node@U?$pair@$$CBEV?$map@EFU?$less@E@std@@V?$allocator@U?$pair@$$CBEF@std@@@2@@std@@@std@@PAX@std@@@std@@@std@@V?$_Tree_val@U?$_Tree_simple_types@U?$pair@$$CBEV?$map@EFU?$less@E@std@@V?$allocator@U?$pair@$$CBEF@std@@@2@@std@@@std@@@std@@@2@$00@2@XZ 005be670 f i Unit.obj
 0002:000426b0       ?_Get_second@?$_Compressed_pair@U?$less@E@std@@V?$_Compressed_pair@U?$_Wrap_alloc@V?$allocator@U?$_Tree_node@U?$pair@$$CBEV?$map@EFU?$less@E@std@@V?$allocator@U?$pair@$$CBEF@std@@@2@@std@@@std@@PAX@std@@@std@@@std@@V?$_Tree_val@U?$_Tree_simple_types@U?$pair@$$CBEV?$map@EFU?$less@E@std@@V?$allocator@U?$pair@$$CBEF@std@@@2@@std@@@std@@@std@@@2@$00@2@$00@std@@QBEABV?$_Compressed_pair@U?$_Wrap_alloc@V?$allocator@U?$_Tree_node@U?$pair@$$CBEV?$map@EFU?$less@E@std@@V?$allocator@U?$pair@$$CBEF@std@@@2@@std@@@std@@PAX@std@@@std@@@std@@V?$_Tree_val@U?$_Tree_simple_types@U?$pair@$$CBEV?$map@EFU?$less@E@std@@V?$allocator@U?$pair@$$CBEF@std@@@2@@std@@@std@@@std@@@2@$00@2@XZ 005be6b0 f i Unit.obj
 0002:000426f0       ?_Get_second@?$_Compressed_pair@U?$less@I@std@@V?$_Compressed_pair@U?$_Wrap_alloc@V?$allocator@U?$_Tree_node@U?$pair@$$CBIPAU_MAGIC_TYPE1@@@std@@PAX@std@@@std@@@std@@V?$_Tree_val@U?$_Tree_simple_types@U?$pair@$$CBIPAU_MAGIC_TYPE1@@@std@@@std@@@2@$00@2@$00@std@@QAEAAV?$_Compressed_pair@U?$_Wrap_alloc@V?$allocator@U?$_Tree_node@U?$pair@$$CBIPAU_MAGIC_TYPE1@@@std@@PAX@std@@@std@@@std@@V?$_Tree_val@U?$_Tree_simple_types@U?$pair@$$CBIPAU_MAGIC_TYPE1@@@std@@@std@@@2@$00@2@XZ 005be6f0 f i Unit.obj
 0002:00042730       ?_Get_second@?$_Compressed_pair@U?$less@I@std@@V?$_Compressed_pair@U?$_Wrap_alloc@V?$allocator@U?$_Tree_node@U?$pair@$$CBIPAU_MAGIC_TYPE1@@@std@@PAX@std@@@std@@@std@@V?$_Tree_val@U?$_Tree_simple_types@U?$pair@$$CBIPAU_MAGIC_TYPE1@@@std@@@std@@@2@$00@2@$00@std@@QBEABV?$_Compressed_pair@U?$_Wrap_alloc@V?$allocator@U?$_Tree_node@U?$pair@$$CBIPAU_MAGIC_TYPE1@@@std@@PAX@std@@@std@@@std@@V?$_Tree_val@U?$_Tree_simple_types@U?$pair@$$CBIPAU_MAGIC_TYPE1@@@std@@@std@@@2@$00@2@XZ 005be730 f i Unit.obj
 0002:00042770       ?_Get_second@?$_Compressed_pair@U?$less@I@std@@V?$_Compressed_pair@U?$_Wrap_alloc@V?$allocator@U?$_Tree_node@U?$pair@$$CBIPAU_MAGIC_TYPE2@@@std@@PAX@std@@@std@@@std@@V?$_Tree_val@U?$_Tree_simple_types@U?$pair@$$CBIPAU_MAGIC_TYPE2@@@std@@@std@@@2@$00@2@$00@std@@QAEAAV?$_Compressed_pair@U?$_Wrap_alloc@V?$allocator@U?$_Tree_node@U?$pair@$$CBIPAU_MAGIC_TYPE2@@@std@@PAX@std@@@std@@@std@@V?$_Tree_val@U?$_Tree_simple_types@U?$pair@$$CBIPAU_MAGIC_TYPE2@@@std@@@std@@@2@$00@2@XZ 005be770 f i Unit.obj
 0002:000427b0       ?_Get_second@?$_Compressed_pair@U?$less@I@std@@V?$_Compressed_pair@U?$_Wrap_alloc@V?$allocator@U?$_Tree_node@U?$pair@$$CBIPAU_MAGIC_TYPE2@@@std@@PAX@std@@@std@@@std@@V?$_Tree_val@U?$_Tree_simple_types@U?$pair@$$CBIPAU_MAGIC_TYPE2@@@std@@@std@@@2@$00@2@$00@std@@QBEABV?$_Compressed_pair@U?$_Wrap_alloc@V?$allocator@U?$_Tree_node@U?$pair@$$CBIPAU_MAGIC_TYPE2@@@std@@PAX@std@@@std@@@std@@V?$_Tree_val@U?$_Tree_simple_types@U?$pair@$$CBIPAU_MAGIC_TYPE2@@@std@@@std@@@2@$00@2@XZ 005be7b0 f i Unit.obj
 0002:000427f0       ?_Getal@?$_Tree_comp_alloc@V?$_Tmap_traits@EFU?$less@E@std@@V?$allocator@U?$pair@$$CBEF@std@@@2@$0A@@std@@@std@@QAEAAU?$_Wrap_alloc@V?$allocator@U?$_Tree_node@U?$pair@$$CBEF@std@@PAX@std@@@std@@@2@XZ 005be7f0 f i Unit.obj
 0002:00042850       ?_Getal@?$_Tree_comp_alloc@V?$_Tmap_traits@EU_BUFF_TYPE4_INFO@@U?$less@E@std@@V?$allocator@U?$pair@$$CBEU_BUFF_TYPE4_INFO@@@std@@@3@$0A@@std@@@std@@QBEABU?$_Wrap_alloc@V?$allocator@U?$_Tree_node@U?$pair@$$CBEU_BUFF_TYPE4_INFO@@@std@@PAX@std@@@std@@@2@XZ 005be850 f i Unit.obj
 0002:000428b0       ?_Getal@?$_Tree_comp_alloc@V?$_Tmap_traits@EU_BUFF_TYPE9_INFO@@U?$less@E@std@@V?$allocator@U?$pair@$$CBEU_BUFF_TYPE9_INFO@@@std@@@3@$0A@@std@@@std@@QAEAAU?$_Wrap_alloc@V?$allocator@U?$_Tree_node@U?$pair@$$CBEU_BUFF_TYPE9_INFO@@@std@@PAX@std@@@std@@@2@XZ 005be8b0 f i Unit.obj
 0002:00042910       ?_Getal@?$_Tree_comp_alloc@V?$_Tmap_traits@EV?$map@EFU?$less@E@std@@V?$allocator@U?$pair@$$CBEF@std@@@2@@std@@U?$less@E@2@V?$allocator@U?$pair@$$CBEV?$map@EFU?$less@E@std@@V?$allocator@U?$pair@$$CBEF@std@@@2@@std@@@std@@@2@$0A@@std@@@std@@QAEAAU?$_Wrap_alloc@V?$allocator@U?$_Tree_node@U?$pair@$$CBEV?$map@EFU?$less@E@std@@V?$allocator@U?$pair@$$CBEF@std@@@2@@std@@@std@@PAX@std@@@std@@@2@XZ 005be910 f i Unit.obj
 0002:00042970       ?_Getcomp@?$_Tree_comp_alloc@V?$_Tmap_traits@IPAU_MAGIC_TYPE1@@U?$less@I@std@@V?$allocator@U?$pair@$$CBIPAU_MAGIC_TYPE1@@@std@@@3@$0A@@std@@@std@@QAEAAU?$less@I@2@XZ 005be970 f i Unit.obj
 0002:000429c0       ?_Getcomp@?$_Tree_comp_alloc@V?$_Tmap_traits@IPAU_MAGIC_TYPE1@@U?$less@I@std@@V?$allocator@U?$pair@$$CBIPAU_MAGIC_TYPE1@@@std@@@3@$0A@@std@@@std@@QBEABU?$less@I@2@XZ 005be9c0 f i Unit.obj
 0002:00042a10       ?_Getcomp@?$_Tree_comp_alloc@V?$_Tmap_traits@IPAU_MAGIC_TYPE2@@U?$less@I@std@@V?$allocator@U?$pair@$$CBIPAU_MAGIC_TYPE2@@@std@@@3@$0A@@std@@@std@@QAEAAU?$less@I@2@XZ 005bea10 f i Unit.obj
 0002:00042a60       ?_Getcomp@?$_Tree_comp_alloc@V?$_Tmap_traits@IPAU_MAGIC_TYPE2@@U?$less@I@std@@V?$allocator@U?$pair@$$CBIPAU_MAGIC_TYPE2@@@std@@@3@$0A@@std@@@std@@QBEABU?$less@I@2@XZ 005bea60 f i Unit.obj
 0002:00042ab0       ?_Getpfirst@?$_Tree_comp_alloc@V?$_Tmap_traits@EFU?$less@E@std@@V?$allocator@U?$pair@$$CBEF@std@@@2@$0A@@std@@@std@@QBEPAPAU_Iterator_base12@2@XZ 005beab0 f i Unit.obj
 0002:00042b10       ?_Getpfirst@?$_Tree_comp_alloc@V?$_Tmap_traits@EU_BUFF_TYPE9_INFO@@U?$less@E@std@@V?$allocator@U?$pair@$$CBEU_BUFF_TYPE9_INFO@@@std@@@3@$0A@@std@@@std@@QBEPAPAU_Iterator_base12@2@XZ 005beb10 f i Unit.obj
 0002:00042b70       ?_Getpfirst@?$_Tree_comp_alloc@V?$_Tmap_traits@EV?$map@EFU?$less@E@std@@V?$allocator@U?$pair@$$CBEF@std@@@2@@std@@U?$less@E@2@V?$allocator@U?$pair@$$CBEV?$map@EFU?$less@E@std@@V?$allocator@U?$pair@$$CBEF@std@@@2@@std@@@std@@@2@$0A@@std@@@std@@QBEPAPAU_Iterator_base12@2@XZ 005beb70 f i Unit.obj
 0002:00042bd0       ?_Isnil@?$_Tree_comp_alloc@V?$_Tmap_traits@EFU?$less@E@std@@V?$allocator@U?$pair@$$CBEF@std@@@2@$0A@@std@@@std@@SAAADPAU?$_Tree_node@U?$pair@$$CBEF@std@@PAX@2@@Z 005bebd0 f i Unit.obj
 0002:00042c20       ?_Isnil@?$_Tree_comp_alloc@V?$_Tmap_traits@EU_BUFF_TYPE9_INFO@@U?$less@E@std@@V?$allocator@U?$pair@$$CBEU_BUFF_TYPE9_INFO@@@std@@@3@$0A@@std@@@std@@SAAADPAU?$_Tree_node@U?$pair@$$CBEU_BUFF_TYPE9_INFO@@@std@@PAX@2@@Z 005bec20 f i Unit.obj
 0002:00042c70       ?_Isnil@?$_Tree_comp_alloc@V?$_Tmap_traits@EV?$map@EFU?$less@E@std@@V?$allocator@U?$pair@$$CBEF@std@@@2@@std@@U?$less@E@2@V?$allocator@U?$pair@$$CBEV?$map@EFU?$less@E@std@@V?$allocator@U?$pair@$$CBEF@std@@@2@@std@@@std@@@2@$0A@@std@@@std@@SAAADPAU?$_Tree_node@U?$pair@$$CBEV?$map@EFU?$less@E@std@@V?$allocator@U?$pair@$$CBEF@std@@@2@@std@@@std@@PAX@2@@Z 005bec70 f i Unit.obj
 0002:00042cc0       ?_Isnil@?$_Tree_comp_alloc@V?$_Tmap_traits@IPAU_MAGIC_TYPE1@@U?$less@I@std@@V?$allocator@U?$pair@$$CBIPAU_MAGIC_TYPE1@@@std@@@3@$0A@@std@@@std@@SAAADPAU?$_Tree_node@U?$pair@$$CBIPAU_MAGIC_TYPE1@@@std@@PAX@2@@Z 005becc0 f i Unit.obj
 0002:00042d10       ?_Isnil@?$_Tree_comp_alloc@V?$_Tmap_traits@IPAU_MAGIC_TYPE2@@U?$less@I@std@@V?$allocator@U?$pair@$$CBIPAU_MAGIC_TYPE2@@@std@@@3@$0A@@std@@@std@@SAAADPAU?$_Tree_node@U?$pair@$$CBIPAU_MAGIC_TYPE2@@@std@@PAX@2@@Z 005bed10 f i Unit.obj
 0002:00042d60       ?_Isnil@?$_Tree_val@U?$_Tree_simple_types@U?$pair@$$CBEF@std@@@std@@@std@@SAAADPAU?$_Tree_node@U?$pair@$$CBEF@std@@PAX@2@@Z 005bed60 f i Unit.obj
 0002:00042da0       ?_Isnil@?$_Tree_val@U?$_Tree_simple_types@U?$pair@$$CBEU_BUFF_TYPE9_INFO@@@std@@@std@@@std@@SAAADPAU?$_Tree_node@U?$pair@$$CBEU_BUFF_TYPE9_INFO@@@std@@PAX@2@@Z 005beda0 f i Unit.obj
 0002:00042de0       ?_Isnil@?$_Tree_val@U?$_Tree_simple_types@U?$pair@$$CBEV?$map@EFU?$less@E@std@@V?$allocator@U?$pair@$$CBEF@std@@@2@@std@@@std@@@std@@@std@@SAAADPAU?$_Tree_node@U?$pair@$$CBEV?$map@EFU?$less@E@std@@V?$allocator@U?$pair@$$CBEF@std@@@2@@std@@@std@@PAX@2@@Z 005bede0 f i Unit.obj
 0002:00042e20       ?_Isnil@?$_Tree_val@U?$_Tree_simple_types@U?$pair@$$CBIPAU_MAGIC_TYPE1@@@std@@@std@@@std@@SAAADPAU?$_Tree_node@U?$pair@$$CBIPAU_MAGIC_TYPE1@@@std@@PAX@2@@Z 005bee20 f i Unit.obj
 0002:00042e60       ?_Isnil@?$_Tree_val@U?$_Tree_simple_types@U?$pair@$$CBIPAU_MAGIC_TYPE2@@@std@@@std@@@std@@SAAADPAU?$_Tree_node@U?$pair@$$CBIPAU_MAGIC_TYPE2@@@std@@PAX@2@@Z 005bee60 f i Unit.obj
 0002:00042ea0       ?_Key@?$_Tree@V?$_Tmap_traits@IPAU_MAGIC_TYPE1@@U?$less@I@std@@V?$allocator@U?$pair@$$CBIPAU_MAGIC_TYPE1@@@std@@@3@$0A@@std@@@std@@IBEABIPAU?$_Tree_node@U?$pair@$$CBIPAU_MAGIC_TYPE1@@@std@@PAX@2@@Z 005beea0 f i Unit.obj
 0002:00042f10       ?_Key@?$_Tree@V?$_Tmap_traits@IPAU_MAGIC_TYPE2@@U?$less@I@std@@V?$allocator@U?$pair@$$CBIPAU_MAGIC_TYPE2@@@std@@@3@$0A@@std@@@std@@IBEABIPAU?$_Tree_node@U?$pair@$$CBIPAU_MAGIC_TYPE2@@@std@@PAX@2@@Z 005bef10 f i Unit.obj
 0002:00042f80       ?_Kfn@?$_Tree@V?$_Tmap_traits@IPAU_MAGIC_TYPE1@@U?$less@I@std@@V?$allocator@U?$pair@$$CBIPAU_MAGIC_TYPE1@@@std@@@3@$0A@@std@@@std@@IBEABIABU?$pair@$$CBIPAU_MAGIC_TYPE1@@@2@@Z 005bef80 f i Unit.obj
 0002:00042fe0       ?_Kfn@?$_Tree@V?$_Tmap_traits@IPAU_MAGIC_TYPE2@@U?$less@I@std@@V?$allocator@U?$pair@$$CBIPAU_MAGIC_TYPE2@@@std@@@3@$0A@@std@@@std@@IBEABIABU?$pair@$$CBIPAU_MAGIC_TYPE2@@@2@@Z 005befe0 f i Unit.obj
 0002:00043040       ?_Left@?$_Tree_comp_alloc@V?$_Tmap_traits@EFU?$less@E@std@@V?$allocator@U?$pair@$$CBEF@std@@@2@$0A@@std@@@std@@SAAAPAU?$_Tree_node@U?$pair@$$CBEF@std@@PAX@2@PAU32@@Z 005bf040 f i Unit.obj
 0002:00043090       ?_Left@?$_Tree_comp_alloc@V?$_Tmap_traits@EU_BUFF_TYPE9_INFO@@U?$less@E@std@@V?$allocator@U?$pair@$$CBEU_BUFF_TYPE9_INFO@@@std@@@3@$0A@@std@@@std@@SAAAPAU?$_Tree_node@U?$pair@$$CBEU_BUFF_TYPE9_INFO@@@std@@PAX@2@PAU32@@Z 005bf090 f i Unit.obj
 0002:000430e0       ?_Left@?$_Tree_comp_alloc@V?$_Tmap_traits@EV?$map@EFU?$less@E@std@@V?$allocator@U?$pair@$$CBEF@std@@@2@@std@@U?$less@E@2@V?$allocator@U?$pair@$$CBEV?$map@EFU?$less@E@std@@V?$allocator@U?$pair@$$CBEF@std@@@2@@std@@@std@@@2@$0A@@std@@@std@@SAAAPAU?$_Tree_node@U?$pair@$$CBEV?$map@EFU?$less@E@std@@V?$allocator@U?$pair@$$CBEF@std@@@2@@std@@@std@@PAX@2@PAU32@@Z 005bf0e0 f i Unit.obj
 0002:00043130       ?_Left@?$_Tree_comp_alloc@V?$_Tmap_traits@IPAU_MAGIC_TYPE1@@U?$less@I@std@@V?$allocator@U?$pair@$$CBIPAU_MAGIC_TYPE1@@@std@@@3@$0A@@std@@@std@@SAAAPAU?$_Tree_node@U?$pair@$$CBIPAU_MAGIC_TYPE1@@@std@@PAX@2@PAU32@@Z 005bf130 f i Unit.obj
 0002:00043180       ?_Left@?$_Tree_comp_alloc@V?$_Tmap_traits@IPAU_MAGIC_TYPE2@@U?$less@I@std@@V?$allocator@U?$pair@$$CBIPAU_MAGIC_TYPE2@@@std@@@3@$0A@@std@@@std@@SAAAPAU?$_Tree_node@U?$pair@$$CBIPAU_MAGIC_TYPE2@@@std@@PAX@2@PAU32@@Z 005bf180 f i Unit.obj
 0002:000431d0       ?_Left@?$_Tree_val@U?$_Tree_simple_types@U?$pair@$$CBEF@std@@@std@@@std@@SAAAPAU?$_Tree_node@U?$pair@$$CBEF@std@@PAX@2@PAU32@@Z 005bf1d0 f i Unit.obj
 0002:00043210       ?_Left@?$_Tree_val@U?$_Tree_simple_types@U?$pair@$$CBEU_BUFF_TYPE9_INFO@@@std@@@std@@@std@@SAAAPAU?$_Tree_node@U?$pair@$$CBEU_BUFF_TYPE9_INFO@@@std@@PAX@2@PAU32@@Z 005bf210 f i Unit.obj
 0002:00043250       ?_Left@?$_Tree_val@U?$_Tree_simple_types@U?$pair@$$CBEV?$map@EFU?$less@E@std@@V?$allocator@U?$pair@$$CBEF@std@@@2@@std@@@std@@@std@@@std@@SAAAPAU?$_Tree_node@U?$pair@$$CBEV?$map@EFU?$less@E@std@@V?$allocator@U?$pair@$$CBEF@std@@@2@@std@@@std@@PAX@2@PAU32@@Z 005bf250 f i Unit.obj
 0002:00043290       ?_Left@?$_Tree_val@U?$_Tree_simple_types@U?$pair@$$CBIPAU_MAGIC_TYPE1@@@std@@@std@@@std@@SAAAPAU?$_Tree_node@U?$pair@$$CBIPAU_MAGIC_TYPE1@@@std@@PAX@2@PAU32@@Z 005bf290 f i Unit.obj
 0002:000432d0       ?_Left@?$_Tree_val@U?$_Tree_simple_types@U?$pair@$$CBIPAU_MAGIC_TYPE2@@@std@@@std@@@std@@SAAAPAU?$_Tree_node@U?$pair@$$CBIPAU_MAGIC_TYPE2@@@std@@PAX@2@PAU32@@Z 005bf2d0 f i Unit.obj
 0002:00043310       ?_Lmost@?$_Tree@V?$_Tmap_traits@EFU?$less@E@std@@V?$allocator@U?$pair@$$CBEF@std@@@2@$0A@@std@@@std@@IBEAAPAU?$_Tree_node@U?$pair@$$CBEF@std@@PAX@2@XZ 005bf310 f i Unit.obj
 0002:00043370       ?_Lmost@?$_Tree@V?$_Tmap_traits@EU_BUFF_TYPE9_INFO@@U?$less@E@std@@V?$allocator@U?$pair@$$CBEU_BUFF_TYPE9_INFO@@@std@@@3@$0A@@std@@@std@@IBEAAPAU?$_Tree_node@U?$pair@$$CBEU_BUFF_TYPE9_INFO@@@std@@PAX@2@XZ 005bf370 f i Unit.obj
 0002:000433d0       ?_Lmost@?$_Tree@V?$_Tmap_traits@EV?$map@EFU?$less@E@std@@V?$allocator@U?$pair@$$CBEF@std@@@2@@std@@U?$less@E@2@V?$allocator@U?$pair@$$CBEV?$map@EFU?$less@E@std@@V?$allocator@U?$pair@$$CBEF@std@@@2@@std@@@std@@@2@$0A@@std@@@std@@IBEAAPAU?$_Tree_node@U?$pair@$$CBEV?$map@EFU?$less@E@std@@V?$allocator@U?$pair@$$CBEF@std@@@2@@std@@@std@@PAX@2@XZ 005bf3d0 f i Unit.obj
 0002:00043430       ?_Lrotate@?$_Tree@V?$_Tmap_traits@EFU?$less@E@std@@V?$allocator@U?$pair@$$CBEF@std@@@2@$0A@@std@@@std@@IAEXPAU?$_Tree_node@U?$pair@$$CBEF@std@@PAX@2@@Z 005bf430 f i Unit.obj
 0002:000435e0       ?_Lrotate@?$_Tree@V?$_Tmap_traits@EU_BUFF_TYPE9_INFO@@U?$less@E@std@@V?$allocator@U?$pair@$$CBEU_BUFF_TYPE9_INFO@@@std@@@3@$0A@@std@@@std@@IAEXPAU?$_Tree_node@U?$pair@$$CBEU_BUFF_TYPE9_INFO@@@std@@PAX@2@@Z 005bf5e0 f i Unit.obj
 0002:00043790       ?_Lrotate@?$_Tree@V?$_Tmap_traits@EV?$map@EFU?$less@E@std@@V?$allocator@U?$pair@$$CBEF@std@@@2@@std@@U?$less@E@2@V?$allocator@U?$pair@$$CBEV?$map@EFU?$less@E@std@@V?$allocator@U?$pair@$$CBEF@std@@@2@@std@@@std@@@2@$0A@@std@@@std@@IAEXPAU?$_Tree_node@U?$pair@$$CBEV?$map@EFU?$less@E@std@@V?$allocator@U?$pair@$$CBEF@std@@@2@@std@@@std@@PAX@2@@Z 005bf790 f i Unit.obj
 0002:00043940       ?_Max@?$_Tree_comp_alloc@V?$_Tmap_traits@EFU?$less@E@std@@V?$allocator@U?$pair@$$CBEF@std@@@2@$0A@@std@@@std@@SAPAU?$_Tree_node@U?$pair@$$CBEF@std@@PAX@2@PAU32@@Z 005bf940 f i Unit.obj
 0002:00043990       ?_Max@?$_Tree_comp_alloc@V?$_Tmap_traits@EU_BUFF_TYPE9_INFO@@U?$less@E@std@@V?$allocator@U?$pair@$$CBEU_BUFF_TYPE9_INFO@@@std@@@3@$0A@@std@@@std@@SAPAU?$_Tree_node@U?$pair@$$CBEU_BUFF_TYPE9_INFO@@@std@@PAX@2@PAU32@@Z 005bf990 f i Unit.obj
 0002:000439e0       ?_Max@?$_Tree_comp_alloc@V?$_Tmap_traits@EV?$map@EFU?$less@E@std@@V?$allocator@U?$pair@$$CBEF@std@@@2@@std@@U?$less@E@2@V?$allocator@U?$pair@$$CBEV?$map@EFU?$less@E@std@@V?$allocator@U?$pair@$$CBEF@std@@@2@@std@@@std@@@2@$0A@@std@@@std@@SAPAU?$_Tree_node@U?$pair@$$CBEV?$map@EFU?$less@E@std@@V?$allocator@U?$pair@$$CBEF@std@@@2@@std@@@std@@PAX@2@PAU32@@Z 005bf9e0 f i Unit.obj
 0002:00043a30       ?_Max@?$_Tree_val@U?$_Tree_simple_types@U?$pair@$$CBEF@std@@@std@@@std@@SAPAU?$_Tree_node@U?$pair@$$CBEF@std@@PAX@2@PAU32@@Z 005bfa30 f i Unit.obj
 0002:00043ab0       ?_Max@?$_Tree_val@U?$_Tree_simple_types@U?$pair@$$CBEU_BUFF_TYPE9_INFO@@@std@@@std@@@std@@SAPAU?$_Tree_node@U?$pair@$$CBEU_BUFF_TYPE9_INFO@@@std@@PAX@2@PAU32@@Z 005bfab0 f i Unit.obj
 0002:00043b30       ?_Max@?$_Tree_val@U?$_Tree_simple_types@U?$pair@$$CBEV?$map@EFU?$less@E@std@@V?$allocator@U?$pair@$$CBEF@std@@@2@@std@@@std@@@std@@@std@@SAPAU?$_Tree_node@U?$pair@$$CBEV?$map@EFU?$less@E@std@@V?$allocator@U?$pair@$$CBEF@std@@@2@@std@@@std@@PAX@2@PAU32@@Z 005bfb30 f i Unit.obj
 0002:00043bb0       ?_Min@?$_Tree_comp_alloc@V?$_Tmap_traits@EFU?$less@E@std@@V?$allocator@U?$pair@$$CBEF@std@@@2@$0A@@std@@@std@@SAPAU?$_Tree_node@U?$pair@$$CBEF@std@@PAX@2@PAU32@@Z 005bfbb0 f i Unit.obj
 0002:00043c00       ?_Min@?$_Tree_comp_alloc@V?$_Tmap_traits@EU_BUFF_TYPE9_INFO@@U?$less@E@std@@V?$allocator@U?$pair@$$CBEU_BUFF_TYPE9_INFO@@@std@@@3@$0A@@std@@@std@@SAPAU?$_Tree_node@U?$pair@$$CBEU_BUFF_TYPE9_INFO@@@std@@PAX@2@PAU32@@Z 005bfc00 f i Unit.obj
 0002:00043c50       ?_Min@?$_Tree_comp_alloc@V?$_Tmap_traits@EV?$map@EFU?$less@E@std@@V?$allocator@U?$pair@$$CBEF@std@@@2@@std@@U?$less@E@2@V?$allocator@U?$pair@$$CBEV?$map@EFU?$less@E@std@@V?$allocator@U?$pair@$$CBEF@std@@@2@@std@@@std@@@2@$0A@@std@@@std@@SAPAU?$_Tree_node@U?$pair@$$CBEV?$map@EFU?$less@E@std@@V?$allocator@U?$pair@$$CBEF@std@@@2@@std@@@std@@PAX@2@PAU32@@Z 005bfc50 f i Unit.obj
 0002:00043ca0       ?_Min@?$_Tree_val@U?$_Tree_simple_types@U?$pair@$$CBEF@std@@@std@@@std@@SAPAU?$_Tree_node@U?$pair@$$CBEF@std@@PAX@2@PAU32@@Z 005bfca0 f i Unit.obj
 0002:00043d20       ?_Min@?$_Tree_val@U?$_Tree_simple_types@U?$pair@$$CBEU_BUFF_TYPE9_INFO@@@std@@@std@@@std@@SAPAU?$_Tree_node@U?$pair@$$CBEU_BUFF_TYPE9_INFO@@@std@@PAX@2@PAU32@@Z 005bfd20 f i Unit.obj
 0002:00043da0       ?_Min@?$_Tree_val@U?$_Tree_simple_types@U?$pair@$$CBEV?$map@EFU?$less@E@std@@V?$allocator@U?$pair@$$CBEF@std@@@2@@std@@@std@@@std@@@std@@SAPAU?$_Tree_node@U?$pair@$$CBEV?$map@EFU?$less@E@std@@V?$allocator@U?$pair@$$CBEF@std@@@2@@std@@@std@@PAX@2@PAU32@@Z 005bfda0 f i Unit.obj
 0002:00043e20       ?_Myhead@?$_Tree_comp_alloc@V?$_Tmap_traits@EFU?$less@E@std@@V?$allocator@U?$pair@$$CBEF@std@@@2@$0A@@std@@@std@@QAEAAPAU?$_Tree_node@U?$pair@$$CBEF@std@@PAX@2@XZ 005bfe20 f i Unit.obj
 0002:00043e80       ?_Myhead@?$_Tree_comp_alloc@V?$_Tmap_traits@EFU?$less@E@std@@V?$allocator@U?$pair@$$CBEF@std@@@2@$0A@@std@@@std@@QBEABQAU?$_Tree_node@U?$pair@$$CBEF@std@@PAX@2@XZ 005bfe80 f i Unit.obj
 0002:00043ee0       ?_Myhead@?$_Tree_comp_alloc@V?$_Tmap_traits@EU_BUFF_TYPE9_INFO@@U?$less@E@std@@V?$allocator@U?$pair@$$CBEU_BUFF_TYPE9_INFO@@@std@@@3@$0A@@std@@@std@@QAEAAPAU?$_Tree_node@U?$pair@$$CBEU_BUFF_TYPE9_INFO@@@std@@PAX@2@XZ 005bfee0 f i Unit.obj
 0002:00043f40       ?_Myhead@?$_Tree_comp_alloc@V?$_Tmap_traits@EU_BUFF_TYPE9_INFO@@U?$less@E@std@@V?$allocator@U?$pair@$$CBEU_BUFF_TYPE9_INFO@@@std@@@3@$0A@@std@@@std@@QBEABQAU?$_Tree_node@U?$pair@$$CBEU_BUFF_TYPE9_INFO@@@std@@PAX@2@XZ 005bff40 f i Unit.obj
 0002:00043fa0       ?_Myhead@?$_Tree_comp_alloc@V?$_Tmap_traits@EV?$map@EFU?$less@E@std@@V?$allocator@U?$pair@$$CBEF@std@@@2@@std@@U?$less@E@2@V?$allocator@U?$pair@$$CBEV?$map@EFU?$less@E@std@@V?$allocator@U?$pair@$$CBEF@std@@@2@@std@@@std@@@2@$0A@@std@@@std@@QAEAAPAU?$_Tree_node@U?$pair@$$CBEV?$map@EFU?$less@E@std@@V?$allocator@U?$pair@$$CBEF@std@@@2@@std@@@std@@PAX@2@XZ 005bffa0 f i Unit.obj
 0002:00044000       ?_Myhead@?$_Tree_comp_alloc@V?$_Tmap_traits@EV?$map@EFU?$less@E@std@@V?$allocator@U?$pair@$$CBEF@std@@@2@@std@@U?$less@E@2@V?$allocator@U?$pair@$$CBEV?$map@EFU?$less@E@std@@V?$allocator@U?$pair@$$CBEF@std@@@2@@std@@@std@@@2@$0A@@std@@@std@@QBEABQAU?$_Tree_node@U?$pair@$$CBEV?$map@EFU?$less@E@std@@V?$allocator@U?$pair@$$CBEF@std@@@2@@std@@@std@@PAX@2@XZ 005c0000 f i Unit.obj
 0002:00044060       ?_Myhead@?$_Tree_comp_alloc@V?$_Tmap_traits@IPAU_MAGIC_TYPE1@@U?$less@I@std@@V?$allocator@U?$pair@$$CBIPAU_MAGIC_TYPE1@@@std@@@3@$0A@@std@@@std@@QAEAAPAU?$_Tree_node@U?$pair@$$CBIPAU_MAGIC_TYPE1@@@std@@PAX@2@XZ 005c0060 f i Unit.obj
 0002:000440c0       ?_Myhead@?$_Tree_comp_alloc@V?$_Tmap_traits@IPAU_MAGIC_TYPE1@@U?$less@I@std@@V?$allocator@U?$pair@$$CBIPAU_MAGIC_TYPE1@@@std@@@3@$0A@@std@@@std@@QBEABQAU?$_Tree_node@U?$pair@$$CBIPAU_MAGIC_TYPE1@@@std@@PAX@2@XZ 005c00c0 f i Unit.obj
 0002:00044120       ?_Myhead@?$_Tree_comp_alloc@V?$_Tmap_traits@IPAU_MAGIC_TYPE2@@U?$less@I@std@@V?$allocator@U?$pair@$$CBIPAU_MAGIC_TYPE2@@@std@@@3@$0A@@std@@@std@@QAEAAPAU?$_Tree_node@U?$pair@$$CBIPAU_MAGIC_TYPE2@@@std@@PAX@2@XZ 005c0120 f i Unit.obj
 0002:00044180       ?_Myhead@?$_Tree_comp_alloc@V?$_Tmap_traits@IPAU_MAGIC_TYPE2@@U?$less@I@std@@V?$allocator@U?$pair@$$CBIPAU_MAGIC_TYPE2@@@std@@@3@$0A@@std@@@std@@QBEABQAU?$_Tree_node@U?$pair@$$CBIPAU_MAGIC_TYPE2@@@std@@PAX@2@XZ 005c0180 f i Unit.obj
 0002:000441e0       ?_Mynode@?$_Tree_unchecked_const_iterator@V?$_Tree_val@U?$_Tree_simple_types@U?$pair@$$CBEF@std@@@std@@@std@@U_Iterator_base12@2@@std@@QBEPAU?$_Tree_node@U?$pair@$$CBEF@std@@PAX@2@XZ 005c01e0 f i Unit.obj
 0002:00044220       ?_Mynode@?$_Tree_unchecked_const_iterator@V?$_Tree_val@U?$_Tree_simple_types@U?$pair@$$CBEU_BUFF_TYPE9_INFO@@@std@@@std@@@std@@U_Iterator_base12@2@@std@@QBEPAU?$_Tree_node@U?$pair@$$CBEU_BUFF_TYPE9_INFO@@@std@@PAX@2@XZ 005c0220 f i Unit.obj
 0002:00044260       ?_Mynode@?$_Tree_unchecked_const_iterator@V?$_Tree_val@U?$_Tree_simple_types@U?$pair@$$CBEV?$map@EFU?$less@E@std@@V?$allocator@U?$pair@$$CBEF@std@@@2@@std@@@std@@@std@@@std@@U_Iterator_base12@2@@std@@QBEPAU?$_Tree_node@U?$pair@$$CBEV?$map@EFU?$less@E@std@@V?$allocator@U?$pair@$$CBEF@std@@@2@@std@@@std@@PAX@2@XZ 005c0260 f i Unit.obj
 0002:000442a0       ?_Mynode@?$_Tree_unchecked_const_iterator@V?$_Tree_val@U?$_Tree_simple_types@U?$pair@$$CBIPAU_MAGIC_TYPE1@@@std@@@std@@@std@@U_Iterator_base12@2@@std@@QBEPAU?$_Tree_node@U?$pair@$$CBIPAU_MAGIC_TYPE1@@@std@@PAX@2@XZ 005c02a0 f i Unit.obj
 0002:000442e0       ?_Mynode@?$_Tree_unchecked_const_iterator@V?$_Tree_val@U?$_Tree_simple_types@U?$pair@$$CBIPAU_MAGIC_TYPE2@@@std@@@std@@@std@@U_Iterator_base12@2@@std@@QBEPAU?$_Tree_node@U?$pair@$$CBIPAU_MAGIC_TYPE2@@@std@@PAX@2@XZ 005c02e0 f i Unit.obj
 0002:00044320       ?_Myproxy@?$_Tree_comp_alloc@V?$_Tmap_traits@EFU?$less@E@std@@V?$allocator@U?$pair@$$CBEF@std@@@2@$0A@@std@@@std@@QAEAAPAU_Container_proxy@2@XZ 005c0320 f i Unit.obj
 0002:00044370       ?_Myproxy@?$_Tree_comp_alloc@V?$_Tmap_traits@EU_BUFF_TYPE4_INFO@@U?$less@E@std@@V?$allocator@U?$pair@$$CBEU_BUFF_TYPE4_INFO@@@std@@@3@$0A@@std@@@std@@QAEAAPAU_Container_proxy@2@XZ 005c0370 f i Unit.obj
 0002:000443c0       ?_Myproxy@?$_Tree_comp_alloc@V?$_Tmap_traits@EU_BUFF_TYPE9_INFO@@U?$less@E@std@@V?$allocator@U?$pair@$$CBEU_BUFF_TYPE9_INFO@@@std@@@3@$0A@@std@@@std@@QAEAAPAU_Container_proxy@2@XZ 005c03c0 f i Unit.obj
 0002:00044410       ?_Myproxy@?$_Tree_comp_alloc@V?$_Tmap_traits@EV?$map@EFU?$less@E@std@@V?$allocator@U?$pair@$$CBEF@std@@@2@@std@@U?$less@E@2@V?$allocator@U?$pair@$$CBEV?$map@EFU?$less@E@std@@V?$allocator@U?$pair@$$CBEF@std@@@2@@std@@@std@@@2@$0A@@std@@@std@@QAEAAPAU_Container_proxy@2@XZ 005c0410 f i Unit.obj
 0002:00044460       ?_Mysize@?$_Tree_comp_alloc@V?$_Tmap_traits@EFU?$less@E@std@@V?$allocator@U?$pair@$$CBEF@std@@@2@$0A@@std@@@std@@QAEAAIXZ 005c0460 f i Unit.obj
 0002:000444c0       ?_Mysize@?$_Tree_comp_alloc@V?$_Tmap_traits@EFU?$less@E@std@@V?$allocator@U?$pair@$$CBEF@std@@@2@$0A@@std@@@std@@QBEABIXZ 005c04c0 f i Unit.obj
 0002:00044520       ?_Mysize@?$_Tree_comp_alloc@V?$_Tmap_traits@EU_BUFF_TYPE4_INFO@@U?$less@E@std@@V?$allocator@U?$pair@$$CBEU_BUFF_TYPE4_INFO@@@std@@@3@$0A@@std@@@std@@QBEABIXZ 005c0520 f i Unit.obj
 0002:00044580       ?_Mysize@?$_Tree_comp_alloc@V?$_Tmap_traits@EU_BUFF_TYPE9_INFO@@U?$less@E@std@@V?$allocator@U?$pair@$$CBEU_BUFF_TYPE9_INFO@@@std@@@3@$0A@@std@@@std@@QAEAAIXZ 005c0580 f i Unit.obj
 0002:000445e0       ?_Mysize@?$_Tree_comp_alloc@V?$_Tmap_traits@EV?$map@EFU?$less@E@std@@V?$allocator@U?$pair@$$CBEF@std@@@2@@std@@U?$less@E@2@V?$allocator@U?$pair@$$CBEV?$map@EFU?$less@E@std@@V?$allocator@U?$pair@$$CBEF@std@@@2@@std@@@std@@@2@$0A@@std@@@std@@QAEAAIXZ 005c05e0 f i Unit.obj
 0002:00044640       ?_Mysize@?$_Tree_comp_alloc@V?$_Tmap_traits@EV?$map@EFU?$less@E@std@@V?$allocator@U?$pair@$$CBEF@std@@@2@@std@@U?$less@E@2@V?$allocator@U?$pair@$$CBEV?$map@EFU?$less@E@std@@V?$allocator@U?$pair@$$CBEF@std@@@2@@std@@@std@@@2@$0A@@std@@@std@@QBEABIXZ 005c0640 f i Unit.obj
 0002:000446a0       ?_Myval@?$_Tree_comp_alloc@V?$_Tmap_traits@EFU?$less@E@std@@V?$allocator@U?$pair@$$CBEF@std@@@2@$0A@@std@@@std@@SAAAU?$pair@$$CBEF@2@PAU?$_Tree_node@U?$pair@$$CBEF@std@@PAX@2@@Z 005c06a0 f i Unit.obj
 0002:000446f0       ?_Myval@?$_Tree_comp_alloc@V?$_Tmap_traits@EU_BUFF_TYPE9_INFO@@U?$less@E@std@@V?$allocator@U?$pair@$$CBEU_BUFF_TYPE9_INFO@@@std@@@3@$0A@@std@@@std@@SAAAU?$pair@$$CBEU_BUFF_TYPE9_INFO@@@2@PAU?$_Tree_node@U?$pair@$$CBEU_BUFF_TYPE9_INFO@@@std@@PAX@2@@Z 005c06f0 f i Unit.obj
 0002:00044740       ?_Myval@?$_Tree_comp_alloc@V?$_Tmap_traits@EV?$map@EFU?$less@E@std@@V?$allocator@U?$pair@$$CBEF@std@@@2@@std@@U?$less@E@2@V?$allocator@U?$pair@$$CBEV?$map@EFU?$less@E@std@@V?$allocator@U?$pair@$$CBEF@std@@@2@@std@@@std@@@2@$0A@@std@@@std@@SAAAU?$pair@$$CBEV?$map@EFU?$less@E@std@@V?$allocator@U?$pair@$$CBEF@std@@@2@@std@@@2@PAU?$_Tree_node@U?$pair@$$CBEV?$map@EFU?$less@E@std@@V?$allocator@U?$pair@$$CBEF@std@@@2@@std@@@std@@PAX@2@@Z 005c0740 f i Unit.obj
 0002:00044790       ?_Myval@?$_Tree_comp_alloc@V?$_Tmap_traits@IPAU_MAGIC_TYPE1@@U?$less@I@std@@V?$allocator@U?$pair@$$CBIPAU_MAGIC_TYPE1@@@std@@@3@$0A@@std@@@std@@SAAAU?$pair@$$CBIPAU_MAGIC_TYPE1@@@2@PAU?$_Tree_node@U?$pair@$$CBIPAU_MAGIC_TYPE1@@@std@@PAX@2@@Z 005c0790 f i Unit.obj
 0002:000447e0       ?_Myval@?$_Tree_comp_alloc@V?$_Tmap_traits@IPAU_MAGIC_TYPE2@@U?$less@I@std@@V?$allocator@U?$pair@$$CBIPAU_MAGIC_TYPE2@@@std@@@3@$0A@@std@@@std@@SAAAU?$pair@$$CBIPAU_MAGIC_TYPE2@@@2@PAU?$_Tree_node@U?$pair@$$CBIPAU_MAGIC_TYPE2@@@std@@PAX@2@@Z 005c07e0 f i Unit.obj
 0002:00044830       ?_Myval@?$_Tree_val@U?$_Tree_simple_types@U?$pair@$$CBEF@std@@@std@@@std@@SAAAU?$pair@$$CBEF@2@PAU?$_Tree_node@U?$pair@$$CBEF@std@@PAX@2@@Z 005c0830 f i Unit.obj
 0002:00044870       ?_Myval@?$_Tree_val@U?$_Tree_simple_types@U?$pair@$$CBEU_BUFF_TYPE9_INFO@@@std@@@std@@@std@@SAAAU?$pair@$$CBEU_BUFF_TYPE9_INFO@@@2@PAU?$_Tree_node@U?$pair@$$CBEU_BUFF_TYPE9_INFO@@@std@@PAX@2@@Z 005c0870 f i Unit.obj
 0002:000448b0       ?_Myval@?$_Tree_val@U?$_Tree_simple_types@U?$pair@$$CBEV?$map@EFU?$less@E@std@@V?$allocator@U?$pair@$$CBEF@std@@@2@@std@@@std@@@std@@@std@@SAAAU?$pair@$$CBEV?$map@EFU?$less@E@std@@V?$allocator@U?$pair@$$CBEF@std@@@2@@std@@@2@PAU?$_Tree_node@U?$pair@$$CBEV?$map@EFU?$less@E@std@@V?$allocator@U?$pair@$$CBEF@std@@@2@@std@@@std@@PAX@2@@Z 005c08b0 f i Unit.obj
 0002:000448f0       ?_Myval@?$_Tree_val@U?$_Tree_simple_types@U?$pair@$$CBIPAU_MAGIC_TYPE1@@@std@@@std@@@std@@SAAAU?$pair@$$CBIPAU_MAGIC_TYPE1@@@2@PAU?$_Tree_node@U?$pair@$$CBIPAU_MAGIC_TYPE1@@@std@@PAX@2@@Z 005c08f0 f i Unit.obj
 0002:00044930       ?_Myval@?$_Tree_val@U?$_Tree_simple_types@U?$pair@$$CBIPAU_MAGIC_TYPE2@@@std@@@std@@@std@@SAAAU?$pair@$$CBIPAU_MAGIC_TYPE2@@@2@PAU?$_Tree_node@U?$pair@$$CBIPAU_MAGIC_TYPE2@@@std@@PAX@2@@Z 005c0930 f i Unit.obj
 0002:00044970       ?_Orphan_all@?$_Tree_comp_alloc@V?$_Tmap_traits@EFU?$less@E@std@@V?$allocator@U?$pair@$$CBEF@std@@@2@$0A@@std@@@std@@QAEXXZ 005c0970 f i Unit.obj
 0002:000449d0       ?_Orphan_all@?$_Tree_comp_alloc@V?$_Tmap_traits@EU_BUFF_TYPE4_INFO@@U?$less@E@std@@V?$allocator@U?$pair@$$CBEU_BUFF_TYPE4_INFO@@@std@@@3@$0A@@std@@@std@@QAEXXZ 005c09d0 f i Unit.obj
 0002:00044a30       ?_Orphan_all@?$_Tree_comp_alloc@V?$_Tmap_traits@EU_BUFF_TYPE9_INFO@@U?$less@E@std@@V?$allocator@U?$pair@$$CBEU_BUFF_TYPE9_INFO@@@std@@@3@$0A@@std@@@std@@QAEXXZ 005c0a30 f i Unit.obj
 0002:00044a90       ?_Orphan_all@?$_Tree_comp_alloc@V?$_Tmap_traits@EV?$map@EFU?$less@E@std@@V?$allocator@U?$pair@$$CBEF@std@@@2@@std@@U?$less@E@2@V?$allocator@U?$pair@$$CBEV?$map@EFU?$less@E@std@@V?$allocator@U?$pair@$$CBEF@std@@@2@@std@@@std@@@2@$0A@@std@@@std@@QAEXXZ 005c0a90 f i Unit.obj
 0002:00044af0       ?_Orphan_ptr@?$_Tree@V?$_Tmap_traits@EFU?$less@E@std@@V?$allocator@U?$pair@$$CBEF@std@@@2@$0A@@std@@@std@@IAEXPAU?$_Tree_node@U?$pair@$$CBEF@std@@PAX@2@@Z 005c0af0 f i Unit.obj
 0002:00044c50       ?_Orphan_ptr@?$_Tree@V?$_Tmap_traits@EU_BUFF_TYPE9_INFO@@U?$less@E@std@@V?$allocator@U?$pair@$$CBEU_BUFF_TYPE9_INFO@@@std@@@3@$0A@@std@@@std@@IAEXPAU?$_Tree_node@U?$pair@$$CBEU_BUFF_TYPE9_INFO@@@std@@PAX@2@@Z 005c0c50 f i Unit.obj
 0002:00044db0       ?_Orphan_ptr@?$_Tree@V?$_Tmap_traits@EV?$map@EFU?$less@E@std@@V?$allocator@U?$pair@$$CBEF@std@@@2@@std@@U?$less@E@2@V?$allocator@U?$pair@$$CBEV?$map@EFU?$less@E@std@@V?$allocator@U?$pair@$$CBEF@std@@@2@@std@@@std@@@2@$0A@@std@@@std@@IAEXPAU?$_Tree_node@U?$pair@$$CBEV?$map@EFU?$less@E@std@@V?$allocator@U?$pair@$$CBEF@std@@@2@@std@@@std@@PAX@2@@Z 005c0db0 f i Unit.obj
 0002:00044f10       ?_Parent@?$_Tree_comp_alloc@V?$_Tmap_traits@EFU?$less@E@std@@V?$allocator@U?$pair@$$CBEF@std@@@2@$0A@@std@@@std@@SAAAPAU?$_Tree_node@U?$pair@$$CBEF@std@@PAX@2@PAU32@@Z 005c0f10 f i Unit.obj
 0002:00044f60       ?_Parent@?$_Tree_comp_alloc@V?$_Tmap_traits@EU_BUFF_TYPE9_INFO@@U?$less@E@std@@V?$allocator@U?$pair@$$CBEU_BUFF_TYPE9_INFO@@@std@@@3@$0A@@std@@@std@@SAAAPAU?$_Tree_node@U?$pair@$$CBEU_BUFF_TYPE9_INFO@@@std@@PAX@2@PAU32@@Z 005c0f60 f i Unit.obj
 0002:00044fb0       ?_Parent@?$_Tree_comp_alloc@V?$_Tmap_traits@EV?$map@EFU?$less@E@std@@V?$allocator@U?$pair@$$CBEF@std@@@2@@std@@U?$less@E@2@V?$allocator@U?$pair@$$CBEV?$map@EFU?$less@E@std@@V?$allocator@U?$pair@$$CBEF@std@@@2@@std@@@std@@@2@$0A@@std@@@std@@SAAAPAU?$_Tree_node@U?$pair@$$CBEV?$map@EFU?$less@E@std@@V?$allocator@U?$pair@$$CBEF@std@@@2@@std@@@std@@PAX@2@PAU32@@Z 005c0fb0 f i Unit.obj
 0002:00045000       ?_Parent@?$_Tree_comp_alloc@V?$_Tmap_traits@IPAU_MAGIC_TYPE1@@U?$less@I@std@@V?$allocator@U?$pair@$$CBIPAU_MAGIC_TYPE1@@@std@@@3@$0A@@std@@@std@@SAAAPAU?$_Tree_node@U?$pair@$$CBIPAU_MAGIC_TYPE1@@@std@@PAX@2@PAU32@@Z 005c1000 f i Unit.obj
 0002:00045050       ?_Parent@?$_Tree_comp_alloc@V?$_Tmap_traits@IPAU_MAGIC_TYPE2@@U?$less@I@std@@V?$allocator@U?$pair@$$CBIPAU_MAGIC_TYPE2@@@std@@@3@$0A@@std@@@std@@SAAAPAU?$_Tree_node@U?$pair@$$CBIPAU_MAGIC_TYPE2@@@std@@PAX@2@PAU32@@Z 005c1050 f i Unit.obj
 0002:000450a0       ?_Parent@?$_Tree_val@U?$_Tree_simple_types@U?$pair@$$CBEF@std@@@std@@@std@@SAAAPAU?$_Tree_node@U?$pair@$$CBEF@std@@PAX@2@PAU32@@Z 005c10a0 f i Unit.obj
 0002:000450e0       ?_Parent@?$_Tree_val@U?$_Tree_simple_types@U?$pair@$$CBEU_BUFF_TYPE9_INFO@@@std@@@std@@@std@@SAAAPAU?$_Tree_node@U?$pair@$$CBEU_BUFF_TYPE9_INFO@@@std@@PAX@2@PAU32@@Z 005c10e0 f i Unit.obj
 0002:00045120       ?_Parent@?$_Tree_val@U?$_Tree_simple_types@U?$pair@$$CBEV?$map@EFU?$less@E@std@@V?$allocator@U?$pair@$$CBEF@std@@@2@@std@@@std@@@std@@@std@@SAAAPAU?$_Tree_node@U?$pair@$$CBEV?$map@EFU?$less@E@std@@V?$allocator@U?$pair@$$CBEF@std@@@2@@std@@@std@@PAX@2@PAU32@@Z 005c1120 f i Unit.obj
 0002:00045160       ?_Parent@?$_Tree_val@U?$_Tree_simple_types@U?$pair@$$CBIPAU_MAGIC_TYPE1@@@std@@@std@@@std@@SAAAPAU?$_Tree_node@U?$pair@$$CBIPAU_MAGIC_TYPE1@@@std@@PAX@2@PAU32@@Z 005c1160 f i Unit.obj
 0002:000451a0       ?_Parent@?$_Tree_val@U?$_Tree_simple_types@U?$pair@$$CBIPAU_MAGIC_TYPE2@@@std@@@std@@@std@@SAAAPAU?$_Tree_node@U?$pair@$$CBIPAU_MAGIC_TYPE2@@@std@@PAX@2@PAU32@@Z 005c11a0 f i Unit.obj
 0002:000451e0       ?_Right@?$_Tree_comp_alloc@V?$_Tmap_traits@EFU?$less@E@std@@V?$allocator@U?$pair@$$CBEF@std@@@2@$0A@@std@@@std@@SAAAPAU?$_Tree_node@U?$pair@$$CBEF@std@@PAX@2@PAU32@@Z 005c11e0 f i Unit.obj
 0002:00045230       ?_Right@?$_Tree_comp_alloc@V?$_Tmap_traits@EU_BUFF_TYPE9_INFO@@U?$less@E@std@@V?$allocator@U?$pair@$$CBEU_BUFF_TYPE9_INFO@@@std@@@3@$0A@@std@@@std@@SAAAPAU?$_Tree_node@U?$pair@$$CBEU_BUFF_TYPE9_INFO@@@std@@PAX@2@PAU32@@Z 005c1230 f i Unit.obj
 0002:00045280       ?_Right@?$_Tree_comp_alloc@V?$_Tmap_traits@EV?$map@EFU?$less@E@std@@V?$allocator@U?$pair@$$CBEF@std@@@2@@std@@U?$less@E@2@V?$allocator@U?$pair@$$CBEV?$map@EFU?$less@E@std@@V?$allocator@U?$pair@$$CBEF@std@@@2@@std@@@std@@@2@$0A@@std@@@std@@SAAAPAU?$_Tree_node@U?$pair@$$CBEV?$map@EFU?$less@E@std@@V?$allocator@U?$pair@$$CBEF@std@@@2@@std@@@std@@PAX@2@PAU32@@Z 005c1280 f i Unit.obj
 0002:000452d0       ?_Right@?$_Tree_comp_alloc@V?$_Tmap_traits@IPAU_MAGIC_TYPE1@@U?$less@I@std@@V?$allocator@U?$pair@$$CBIPAU_MAGIC_TYPE1@@@std@@@3@$0A@@std@@@std@@SAAAPAU?$_Tree_node@U?$pair@$$CBIPAU_MAGIC_TYPE1@@@std@@PAX@2@PAU32@@Z 005c12d0 f i Unit.obj
 0002:00045320       ?_Right@?$_Tree_comp_alloc@V?$_Tmap_traits@IPAU_MAGIC_TYPE2@@U?$less@I@std@@V?$allocator@U?$pair@$$CBIPAU_MAGIC_TYPE2@@@std@@@3@$0A@@std@@@std@@SAAAPAU?$_Tree_node@U?$pair@$$CBIPAU_MAGIC_TYPE2@@@std@@PAX@2@PAU32@@Z 005c1320 f i Unit.obj
 0002:00045370       ?_Right@?$_Tree_val@U?$_Tree_simple_types@U?$pair@$$CBEF@std@@@std@@@std@@SAAAPAU?$_Tree_node@U?$pair@$$CBEF@std@@PAX@2@PAU32@@Z 005c1370 f i Unit.obj
 0002:000453b0       ?_Right@?$_Tree_val@U?$_Tree_simple_types@U?$pair@$$CBEU_BUFF_TYPE9_INFO@@@std@@@std@@@std@@SAAAPAU?$_Tree_node@U?$pair@$$CBEU_BUFF_TYPE9_INFO@@@std@@PAX@2@PAU32@@Z 005c13b0 f i Unit.obj
 0002:000453f0       ?_Right@?$_Tree_val@U?$_Tree_simple_types@U?$pair@$$CBEV?$map@EFU?$less@E@std@@V?$allocator@U?$pair@$$CBEF@std@@@2@@std@@@std@@@std@@@std@@SAAAPAU?$_Tree_node@U?$pair@$$CBEV?$map@EFU?$less@E@std@@V?$allocator@U?$pair@$$CBEF@std@@@2@@std@@@std@@PAX@2@PAU32@@Z 005c13f0 f i Unit.obj
 0002:00045430       ?_Right@?$_Tree_val@U?$_Tree_simple_types@U?$pair@$$CBIPAU_MAGIC_TYPE1@@@std@@@std@@@std@@SAAAPAU?$_Tree_node@U?$pair@$$CBIPAU_MAGIC_TYPE1@@@std@@PAX@2@PAU32@@Z 005c1430 f i Unit.obj
 0002:00045470       ?_Right@?$_Tree_val@U?$_Tree_simple_types@U?$pair@$$CBIPAU_MAGIC_TYPE2@@@std@@@std@@@std@@SAAAPAU?$_Tree_node@U?$pair@$$CBIPAU_MAGIC_TYPE2@@@std@@PAX@2@PAU32@@Z 005c1470 f i Unit.obj
 0002:000454b0       ?_Rmost@?$_Tree@V?$_Tmap_traits@EFU?$less@E@std@@V?$allocator@U?$pair@$$CBEF@std@@@2@$0A@@std@@@std@@IBEAAPAU?$_Tree_node@U?$pair@$$CBEF@std@@PAX@2@XZ 005c14b0 f i Unit.obj
 0002:00045510       ?_Rmost@?$_Tree@V?$_Tmap_traits@EU_BUFF_TYPE9_INFO@@U?$less@E@std@@V?$allocator@U?$pair@$$CBEU_BUFF_TYPE9_INFO@@@std@@@3@$0A@@std@@@std@@IBEAAPAU?$_Tree_node@U?$pair@$$CBEU_BUFF_TYPE9_INFO@@@std@@PAX@2@XZ 005c1510 f i Unit.obj
 0002:00045570       ?_Rmost@?$_Tree@V?$_Tmap_traits@EV?$map@EFU?$less@E@std@@V?$allocator@U?$pair@$$CBEF@std@@@2@@std@@U?$less@E@2@V?$allocator@U?$pair@$$CBEV?$map@EFU?$less@E@std@@V?$allocator@U?$pair@$$CBEF@std@@@2@@std@@@std@@@2@$0A@@std@@@std@@IBEAAPAU?$_Tree_node@U?$pair@$$CBEV?$map@EFU?$less@E@std@@V?$allocator@U?$pair@$$CBEF@std@@@2@@std@@@std@@PAX@2@XZ 005c1570 f i Unit.obj
 0002:000455d0       ?_Root@?$_Tree@V?$_Tmap_traits@EFU?$less@E@std@@V?$allocator@U?$pair@$$CBEF@std@@@2@$0A@@std@@@std@@IBEAAPAU?$_Tree_node@U?$pair@$$CBEF@std@@PAX@2@XZ 005c15d0 f i Unit.obj
 0002:00045630       ?_Root@?$_Tree@V?$_Tmap_traits@EU_BUFF_TYPE9_INFO@@U?$less@E@std@@V?$allocator@U?$pair@$$CBEU_BUFF_TYPE9_INFO@@@std@@@3@$0A@@std@@@std@@IBEAAPAU?$_Tree_node@U?$pair@$$CBEU_BUFF_TYPE9_INFO@@@std@@PAX@2@XZ 005c1630 f i Unit.obj
 0002:00045690       ?_Root@?$_Tree@V?$_Tmap_traits@EV?$map@EFU?$less@E@std@@V?$allocator@U?$pair@$$CBEF@std@@@2@@std@@U?$less@E@2@V?$allocator@U?$pair@$$CBEV?$map@EFU?$less@E@std@@V?$allocator@U?$pair@$$CBEF@std@@@2@@std@@@std@@@2@$0A@@std@@@std@@IBEAAPAU?$_Tree_node@U?$pair@$$CBEV?$map@EFU?$less@E@std@@V?$allocator@U?$pair@$$CBEF@std@@@2@@std@@@std@@PAX@2@XZ 005c1690 f i Unit.obj
 0002:000456f0       ?_Root@?$_Tree@V?$_Tmap_traits@IPAU_MAGIC_TYPE1@@U?$less@I@std@@V?$allocator@U?$pair@$$CBIPAU_MAGIC_TYPE1@@@std@@@3@$0A@@std@@@std@@IBEAAPAU?$_Tree_node@U?$pair@$$CBIPAU_MAGIC_TYPE1@@@std@@PAX@2@XZ 005c16f0 f i Unit.obj
 0002:00045750       ?_Root@?$_Tree@V?$_Tmap_traits@IPAU_MAGIC_TYPE2@@U?$less@I@std@@V?$allocator@U?$pair@$$CBIPAU_MAGIC_TYPE2@@@std@@@3@$0A@@std@@@std@@IBEAAPAU?$_Tree_node@U?$pair@$$CBIPAU_MAGIC_TYPE2@@@std@@PAX@2@XZ 005c1750 f i Unit.obj
 0002:000457b0       ?_Rrotate@?$_Tree@V?$_Tmap_traits@EFU?$less@E@std@@V?$allocator@U?$pair@$$CBEF@std@@@2@$0A@@std@@@std@@IAEXPAU?$_Tree_node@U?$pair@$$CBEF@std@@PAX@2@@Z 005c17b0 f i Unit.obj
 0002:00045960       ?_Rrotate@?$_Tree@V?$_Tmap_traits@EU_BUFF_TYPE9_INFO@@U?$less@E@std@@V?$allocator@U?$pair@$$CBEU_BUFF_TYPE9_INFO@@@std@@@3@$0A@@std@@@std@@IAEXPAU?$_Tree_node@U?$pair@$$CBEU_BUFF_TYPE9_INFO@@@std@@PAX@2@@Z 005c1960 f i Unit.obj
 0002:00045b10       ?_Rrotate@?$_Tree@V?$_Tmap_traits@EV?$map@EFU?$less@E@std@@V?$allocator@U?$pair@$$CBEF@std@@@2@@std@@U?$less@E@2@V?$allocator@U?$pair@$$CBEV?$map@EFU?$less@E@std@@V?$allocator@U?$pair@$$CBEF@std@@@2@@std@@@std@@@2@$0A@@std@@@std@@IAEXPAU?$_Tree_node@U?$pair@$$CBEV?$map@EFU?$less@E@std@@V?$allocator@U?$pair@$$CBEF@std@@@2@@std@@@std@@PAX@2@@Z 005c1b10 f i Unit.obj
 0002:00045cc0       ?_Tidy@?$_Tree@V?$_Tmap_traits@EFU?$less@E@std@@V?$allocator@U?$pair@$$CBEF@std@@@2@$0A@@std@@@std@@IAEXXZ 005c1cc0 f i Unit.obj
 0002:00045e50       ?_Tidy@?$_Tree@V?$_Tmap_traits@EU_BUFF_TYPE4_INFO@@U?$less@E@std@@V?$allocator@U?$pair@$$CBEU_BUFF_TYPE4_INFO@@@std@@@3@$0A@@std@@@std@@IAEXXZ 005c1e50 f i Unit.obj
 0002:00045fe0       ?_Tidy@?$_Tree@V?$_Tmap_traits@EU_BUFF_TYPE9_INFO@@U?$less@E@std@@V?$allocator@U?$pair@$$CBEU_BUFF_TYPE9_INFO@@@std@@@3@$0A@@std@@@std@@IAEXXZ 005c1fe0 f i Unit.obj
 0002:00046170       ?_Tidy@?$_Tree@V?$_Tmap_traits@EV?$map@EFU?$less@E@std@@V?$allocator@U?$pair@$$CBEF@std@@@2@@std@@U?$less@E@2@V?$allocator@U?$pair@$$CBEV?$map@EFU?$less@E@std@@V?$allocator@U?$pair@$$CBEF@std@@@2@@std@@@std@@@2@$0A@@std@@@std@@IAEXXZ 005c2170 f i Unit.obj
 0002:00046300       ?allocate@?$_Wrap_alloc@V?$allocator@U?$_Tree_node@U?$pair@$$CBEU_BUFF_TYPE4_INFO@@@std@@PAX@std@@@std@@@std@@QAEPAU?$_Tree_node@U?$pair@$$CBEU_BUFF_TYPE4_INFO@@@std@@PAX@2@I@Z 005c2300 f i Unit.obj
 0002:00046360       ?allocate@?$_Wrap_alloc@V?$allocator@U?$_Tree_node@U?$pair@$$CBEU_BUFF_TYPE9_INFO@@@std@@PAX@std@@@std@@@std@@QAEPAU?$_Tree_node@U?$pair@$$CBEU_BUFF_TYPE9_INFO@@@std@@PAX@2@I@Z 005c2360 f i Unit.obj
 0002:000463c0       ?allocate@?$_Wrap_alloc@V?$allocator@U?$_Tree_node@U?$pair@$$CBEV?$map@EFU?$less@E@std@@V?$allocator@U?$pair@$$CBEF@std@@@2@@std@@@std@@PAX@std@@@std@@@std@@QAEPAU?$_Tree_node@U?$pair@$$CBEV?$map@EFU?$less@E@std@@V?$allocator@U?$pair@$$CBEF@std@@@2@@std@@@std@@PAX@2@I@Z 005c23c0 f i Unit.obj
 0002:00046420       ?allocate@?$allocator@U?$_Tree_node@U?$pair@$$CBEU_BUFF_TYPE4_INFO@@@std@@PAX@std@@@std@@QAEPAU?$_Tree_node@U?$pair@$$CBEU_BUFF_TYPE4_INFO@@@std@@PAX@2@I@Z 005c2420 f i Unit.obj
 0002:00046480       ?allocate@?$allocator@U?$_Tree_node@U?$pair@$$CBEU_BUFF_TYPE9_INFO@@@std@@PAX@std@@@std@@QAEPAU?$_Tree_node@U?$pair@$$CBEU_BUFF_TYPE9_INFO@@@std@@PAX@2@I@Z 005c2480 f i Unit.obj
 0002:000464e0       ?allocate@?$allocator@U?$_Tree_node@U?$pair@$$CBEV?$map@EFU?$less@E@std@@V?$allocator@U?$pair@$$CBEF@std@@@2@@std@@@std@@PAX@std@@@std@@QAEPAU?$_Tree_node@U?$pair@$$CBEV?$map@EFU?$less@E@std@@V?$allocator@U?$pair@$$CBEF@std@@@2@@std@@@std@@PAX@2@I@Z 005c24e0 f i Unit.obj
 0002:00046540       ?areNPCsFriendly@MAP@@QAE_NXZ 005c2540 f i Unit.obj
 0002:000465b0       ?begin@?$_Tree@V?$_Tmap_traits@EFU?$less@E@std@@V?$allocator@U?$pair@$$CBEF@std@@@2@$0A@@std@@@std@@QAE?AV?$_Tree_iterator@V?$_Tree_val@U?$_Tree_simple_types@U?$pair@$$CBEF@std@@@std@@@std@@@2@XZ 005c25b0 f i Unit.obj
 0002:00046660       ?begin@?$_Tree@V?$_Tmap_traits@EU_BUFF_TYPE4_INFO@@U?$less@E@std@@V?$allocator@U?$pair@$$CBEU_BUFF_TYPE4_INFO@@@std@@@3@$0A@@std@@@std@@QAE?AV?$_Tree_iterator@V?$_Tree_val@U?$_Tree_simple_types@U?$pair@$$CBEU_BUFF_TYPE4_INFO@@@std@@@std@@@std@@@2@XZ 005c2660 f i Unit.obj
 0002:00046710       ?begin@?$_Tree@V?$_Tmap_traits@EU_BUFF_TYPE9_INFO@@U?$less@E@std@@V?$allocator@U?$pair@$$CBEU_BUFF_TYPE9_INFO@@@std@@@3@$0A@@std@@@std@@QAE?AV?$_Tree_iterator@V?$_Tree_val@U?$_Tree_simple_types@U?$pair@$$CBEU_BUFF_TYPE9_INFO@@@std@@@std@@@std@@@2@XZ 005c2710 f i Unit.obj
 0002:000467c0       ?begin@?$_Tree@V?$_Tmap_traits@EV?$map@EFU?$less@E@std@@V?$allocator@U?$pair@$$CBEF@std@@@2@@std@@U?$less@E@2@V?$allocator@U?$pair@$$CBEV?$map@EFU?$less@E@std@@V?$allocator@U?$pair@$$CBEF@std@@@2@@std@@@std@@@2@$0A@@std@@@std@@QAE?AV?$_Tree_iterator@V?$_Tree_val@U?$_Tree_simple_types@U?$pair@$$CBEV?$map@EFU?$less@E@std@@V?$allocator@U?$pair@$$CBEF@std@@@2@@std@@@std@@@std@@@std@@@2@XZ 005c27c0 f i Unit.obj
 0002:00046870       ?canAttackOtherNation@MAP@@QAE_NXZ 005c2870 f i Unit.obj
 0002:000468e0       ?clear@?$_Tree@V?$_Tmap_traits@EFU?$less@E@std@@V?$allocator@U?$pair@$$CBEF@std@@@2@$0A@@std@@@std@@QAEXXZ 005c28e0 f i Unit.obj
 0002:000469f0       ?clear@?$_Tree@V?$_Tmap_traits@EU_BUFF_TYPE4_INFO@@U?$less@E@std@@V?$allocator@U?$pair@$$CBEU_BUFF_TYPE4_INFO@@@std@@@3@$0A@@std@@@std@@QAEXXZ 005c29f0 f i Unit.obj
 0002:00046b00       ?clear@?$_Tree@V?$_Tmap_traits@EU_BUFF_TYPE9_INFO@@U?$less@E@std@@V?$allocator@U?$pair@$$CBEU_BUFF_TYPE9_INFO@@@std@@@3@$0A@@std@@@std@@QAEXXZ 005c2b00 f i Unit.obj
 0002:00046c10       ?clear@?$_Tree@V?$_Tmap_traits@EV?$map@EFU?$less@E@std@@V?$allocator@U?$pair@$$CBEF@std@@@2@@std@@U?$less@E@2@V?$allocator@U?$pair@$$CBEV?$map@EFU?$less@E@std@@V?$allocator@U?$pair@$$CBEF@std@@@2@@std@@@std@@@2@$0A@@std@@@std@@QAEXXZ 005c2c10 f i Unit.obj
 0002:00046d20       ?deallocate@?$_Wrap_alloc@V?$allocator@U?$_Tree_node@U?$pair@$$CBEF@std@@PAX@std@@@std@@@std@@QAEXPAU?$_Tree_node@U?$pair@$$CBEF@std@@PAX@2@I@Z 005c2d20 f i Unit.obj
 0002:00046d80       ?deallocate@?$_Wrap_alloc@V?$allocator@U?$_Tree_node@U?$pair@$$CBEU_BUFF_TYPE9_INFO@@@std@@PAX@std@@@std@@@std@@QAEXPAU?$_Tree_node@U?$pair@$$CBEU_BUFF_TYPE9_INFO@@@std@@PAX@2@I@Z 005c2d80 f i Unit.obj
 0002:00046de0       ?deallocate@?$_Wrap_alloc@V?$allocator@U?$_Tree_node@U?$pair@$$CBEV?$map@EFU?$less@E@std@@V?$allocator@U?$pair@$$CBEF@std@@@2@@std@@@std@@PAX@std@@@std@@@std@@QAEXPAU?$_Tree_node@U?$pair@$$CBEV?$map@EFU?$less@E@std@@V?$allocator@U?$pair@$$CBEF@std@@@2@@std@@@std@@PAX@2@I@Z 005c2de0 f i Unit.obj
 0002:00046e40       ?deallocate@?$allocator@U?$_Tree_node@U?$pair@$$CBEF@std@@PAX@std@@@std@@QAEXPAU?$_Tree_node@U?$pair@$$CBEF@std@@PAX@2@I@Z 005c2e40 f i Unit.obj
 0002:00046ea0       ?deallocate@?$allocator@U?$_Tree_node@U?$pair@$$CBEU_BUFF_TYPE9_INFO@@@std@@PAX@std@@@std@@QAEXPAU?$_Tree_node@U?$pair@$$CBEU_BUFF_TYPE9_INFO@@@std@@PAX@2@I@Z 005c2ea0 f i Unit.obj
 0002:00046f00       ?deallocate@?$allocator@U?$_Tree_node@U?$pair@$$CBEV?$map@EFU?$less@E@std@@V?$allocator@U?$pair@$$CBEF@std@@@2@@std@@@std@@PAX@std@@@std@@QAEXPAU?$_Tree_node@U?$pair@$$CBEV?$map@EFU?$less@E@std@@V?$allocator@U?$pair@$$CBEF@std@@@2@@std@@@std@@PAX@2@I@Z 005c2f00 f i Unit.obj
 0002:00046f60       ?end@?$_Tree@V?$_Tmap_traits@EFU?$less@E@std@@V?$allocator@U?$pair@$$CBEF@std@@@2@$0A@@std@@@std@@QAE?AV?$_Tree_iterator@V?$_Tree_val@U?$_Tree_simple_types@U?$pair@$$CBEF@std@@@std@@@std@@@2@XZ 005c2f60 f i Unit.obj
 0002:00047010       ?end@?$_Tree@V?$_Tmap_traits@EU_BUFF_TYPE9_INFO@@U?$less@E@std@@V?$allocator@U?$pair@$$CBEU_BUFF_TYPE9_INFO@@@std@@@3@$0A@@std@@@std@@QAE?AV?$_Tree_iterator@V?$_Tree_val@U?$_Tree_simple_types@U?$pair@$$CBEU_BUFF_TYPE9_INFO@@@std@@@std@@@std@@@2@XZ 005c3010 f i Unit.obj
 0002:000470c0       ?end@?$_Tree@V?$_Tmap_traits@EV?$map@EFU?$less@E@std@@V?$allocator@U?$pair@$$CBEF@std@@@2@@std@@U?$less@E@2@V?$allocator@U?$pair@$$CBEV?$map@EFU?$less@E@std@@V?$allocator@U?$pair@$$CBEF@std@@@2@@std@@@std@@@2@$0A@@std@@@std@@QAE?AV?$_Tree_iterator@V?$_Tree_val@U?$_Tree_simple_types@U?$pair@$$CBEV?$map@EFU?$less@E@std@@V?$allocator@U?$pair@$$CBEF@std@@@2@@std@@@std@@@std@@@std@@@2@XZ 005c30c0 f i Unit.obj
 0002:00047170       ?end@?$_Tree@V?$_Tmap_traits@IPAU_MAGIC_TYPE1@@U?$less@I@std@@V?$allocator@U?$pair@$$CBIPAU_MAGIC_TYPE1@@@std@@@3@$0A@@std@@@std@@QAE?AV?$_Tree_iterator@V?$_Tree_val@U?$_Tree_simple_types@U?$pair@$$CBIPAU_MAGIC_TYPE1@@@std@@@std@@@std@@@2@XZ 005c3170 f i Unit.obj
 0002:00047220       ?end@?$_Tree@V?$_Tmap_traits@IPAU_MAGIC_TYPE2@@U?$less@I@std@@V?$allocator@U?$pair@$$CBIPAU_MAGIC_TYPE2@@@std@@@3@$0A@@std@@@std@@QAE?AV?$_Tree_iterator@V?$_Tree_val@U?$_Tree_simple_types@U?$pair@$$CBIPAU_MAGIC_TYPE2@@@std@@@std@@@std@@@2@XZ 005c3220 f i Unit.obj
 0002:000472d0       ?erase@?$_Tree@V?$_Tmap_traits@EFU?$less@E@std@@V?$allocator@U?$pair@$$CBEF@std@@@2@$0A@@std@@@std@@QAE?AV?$_Tree_iterator@V?$_Tree_val@U?$_Tree_simple_types@U?$pair@$$CBEF@std@@@std@@@std@@@2@V?$_Tree_const_iterator@V?$_Tree_val@U?$_Tree_simple_types@U?$pair@$$CBEF@std@@@std@@@std@@@2@0@Z 005c32d0 f i Unit.obj
 0002:000475f0       ?erase@?$_Tree@V?$_Tmap_traits@EFU?$less@E@std@@V?$allocator@U?$pair@$$CBEF@std@@@2@$0A@@std@@@std@@QAE?AV?$_Tree_iterator@V?$_Tree_val@U?$_Tree_simple_types@U?$pair@$$CBEF@std@@@std@@@std@@@2@V?$_Tree_const_iterator@V?$_Tree_val@U?$_Tree_simple_types@U?$pair@$$CBEF@std@@@std@@@std@@@2@@Z 005c35f0 f i Unit.obj
 0002:00048080       ?erase@?$_Tree@V?$_Tmap_traits@EU_BUFF_TYPE4_INFO@@U?$less@E@std@@V?$allocator@U?$pair@$$CBEU_BUFF_TYPE4_INFO@@@std@@@3@$0A@@std@@@std@@QAE?AV?$_Tree_iterator@V?$_Tree_val@U?$_Tree_simple_types@U?$pair@$$CBEU_BUFF_TYPE4_INFO@@@std@@@std@@@std@@@2@V?$_Tree_const_iterator@V?$_Tree_val@U?$_Tree_simple_types@U?$pair@$$CBEU_BUFF_TYPE4_INFO@@@std@@@std@@@std@@@2@0@Z 005c4080 f i Unit.obj
 0002:000483a0       ?erase@?$_Tree@V?$_Tmap_traits@EU_BUFF_TYPE9_INFO@@U?$less@E@std@@V?$allocator@U?$pair@$$CBEU_BUFF_TYPE9_INFO@@@std@@@3@$0A@@std@@@std@@QAE?AV?$_Tree_iterator@V?$_Tree_val@U?$_Tree_simple_types@U?$pair@$$CBEU_BUFF_TYPE9_INFO@@@std@@@std@@@std@@@2@V?$_Tree_const_iterator@V?$_Tree_val@U?$_Tree_simple_types@U?$pair@$$CBEU_BUFF_TYPE9_INFO@@@std@@@std@@@std@@@2@0@Z 005c43a0 f i Unit.obj
 0002:000486c0       ?erase@?$_Tree@V?$_Tmap_traits@EU_BUFF_TYPE9_INFO@@U?$less@E@std@@V?$allocator@U?$pair@$$CBEU_BUFF_TYPE9_INFO@@@std@@@3@$0A@@std@@@std@@QAE?AV?$_Tree_iterator@V?$_Tree_val@U?$_Tree_simple_types@U?$pair@$$CBEU_BUFF_TYPE9_INFO@@@std@@@std@@@std@@@2@V?$_Tree_const_iterator@V?$_Tree_val@U?$_Tree_simple_types@U?$pair@$$CBEU_BUFF_TYPE9_INFO@@@std@@@std@@@std@@@2@@Z 005c46c0 f i Unit.obj
 0002:00049150       ?erase@?$_Tree@V?$_Tmap_traits@EV?$map@EFU?$less@E@std@@V?$allocator@U?$pair@$$CBEF@std@@@2@@std@@U?$less@E@2@V?$allocator@U?$pair@$$CBEV?$map@EFU?$less@E@std@@V?$allocator@U?$pair@$$CBEF@std@@@2@@std@@@std@@@2@$0A@@std@@@std@@QAE?AV?$_Tree_iterator@V?$_Tree_val@U?$_Tree_simple_types@U?$pair@$$CBEV?$map@EFU?$less@E@std@@V?$allocator@U?$pair@$$CBEF@std@@@2@@std@@@std@@@std@@@std@@@2@V?$_Tree_const_iterator@V?$_Tree_val@U?$_Tree_simple_types@U?$pair@$$CBEV?$map@EFU?$less@E@std@@V?$allocator@U?$pair@$$CBEF@std@@@2@@std@@@std@@@std@@@std@@@2@0@Z 005c5150 f i Unit.obj
 0002:00049470       ?erase@?$_Tree@V?$_Tmap_traits@EV?$map@EFU?$less@E@std@@V?$allocator@U?$pair@$$CBEF@std@@@2@@std@@U?$less@E@2@V?$allocator@U?$pair@$$CBEV?$map@EFU?$less@E@std@@V?$allocator@U?$pair@$$CBEF@std@@@2@@std@@@std@@@2@$0A@@std@@@std@@QAE?AV?$_Tree_iterator@V?$_Tree_val@U?$_Tree_simple_types@U?$pair@$$CBEV?$map@EFU?$less@E@std@@V?$allocator@U?$pair@$$CBEF@std@@@2@@std@@@std@@@std@@@std@@@2@V?$_Tree_const_iterator@V?$_Tree_val@U?$_Tree_simple_types@U?$pair@$$CBEV?$map@EFU?$less@E@std@@V?$allocator@U?$pair@$$CBEF@std@@@2@@std@@@std@@@std@@@std@@@2@@Z 005c5470 f i Unit.obj
 0002:00049f00       ?find@?$_Tree@V?$_Tmap_traits@IPAU_MAGIC_TYPE1@@U?$less@I@std@@V?$allocator@U?$pair@$$CBIPAU_MAGIC_TYPE1@@@std@@@3@$0A@@std@@@std@@QAE?AV?$_Tree_iterator@V?$_Tree_val@U?$_Tree_simple_types@U?$pair@$$CBIPAU_MAGIC_TYPE1@@@std@@@std@@@std@@@2@ABI@Z 005c5f00 f i Unit.obj
 0002:0004a210       ?find@?$_Tree@V?$_Tmap_traits@IPAU_MAGIC_TYPE2@@U?$less@I@std@@V?$allocator@U?$pair@$$CBIPAU_MAGIC_TYPE2@@@std@@@3@$0A@@std@@@std@@QAE?AV?$_Tree_iterator@V?$_Tree_val@U?$_Tree_simple_types@U?$pair@$$CBIPAU_MAGIC_TYPE2@@@std@@@std@@@std@@@2@ABI@Z 005c6210 f i Unit.obj
 0002:0004a520       ?isAlive@Unit@@UAE_NXZ     005c6520 f i Unit.obj
 0002:0004a5b0       ?isAttackable@Unit@@UAE_NPAV1@@Z 005c65b0 f   Unit.obj
 0002:0004a630       ?isBlinded@Unit@@QAE_NXZ   005c6630 f i Unit.obj
 0002:0004a670       ?isBlinking@Unit@@UAE_NXZ  005c6670 f i Unit.obj
 0002:0004a6b0       ?isHostileTo@CNpc@@UAE_NPAVUnit@@@Z 005c66b0 f   Unit.obj
 0002:0004a7e0       ?isHostileTo@CUser@@UAE_NPAVUnit@@@Z 005c67e0 f   Unit.obj
 0002:0004a920       ?isInArena@CUser@@QAE_NXZ  005c6920 f   Unit.obj
 0002:0004aac0       ?isInPVPZone@CUser@@QAE_NXZ 005c6ac0 f   Unit.obj
 0002:0004ab30       ?isInRange@Unit@@QAE_NMMM@Z 005c6b30 f   Unit.obj
 0002:0004abe0       ?isInRange@Unit@@QAE_NPAV1@M@Z 005c6be0 f   Unit.obj
 0002:0004ac80       ?isInRange@Unit@@SA_NMMMMM@Z 005c6c80 f   Unit.obj
 0002:0004ad40       ?isInRangeSlow@Unit@@QAE_NMMM@Z 005c6d40 f   Unit.obj
 0002:0004ade0       ?isInRangeSlow@Unit@@QAE_NPAV1@M@Z 005c6de0 f   Unit.obj
 0002:0004ae70       ?isInRangeSlow@Unit@@SA_NMMMMM@Z 005c6e70 f   Unit.obj
 0002:0004af20       ?isInSafetyArea@CUser@@QAE_NXZ 005c6f20 f   Unit.obj
 0002:0004ba80       ?isIncapacitated@Unit@@QAE_NXZ 005c7a80 f i Unit.obj
 0002:0004bb60       ?isKaul@Unit@@QAE_NXZ      005c7b60 f i Unit.obj
 0002:0004bba0       ?isMonster@CNpc@@QAE_NXZ   005c7ba0 f i Unit.obj
 0002:0004bbe0       ?isSameEventRoom@Unit@@UAE_NPAV1@@Z 005c7be0 f   Unit.obj
 0002:0004bc60       ?key_comp@?$_Tree@V?$_Tmap_traits@EU_BUFF_TYPE4_INFO@@U?$less@E@std@@V?$allocator@U?$pair@$$CBEU_BUFF_TYPE4_INFO@@@std@@@3@$0A@@std@@@std@@QBE?AU?$less@E@2@XZ 005c7c60 f i Unit.obj
 0002:0004bcc0       ?lower_bound@?$_Tree@V?$_Tmap_traits@IPAU_MAGIC_TYPE1@@U?$less@I@std@@V?$allocator@U?$pair@$$CBIPAU_MAGIC_TYPE1@@@std@@@3@$0A@@std@@@std@@QAE?AV?$_Tree_iterator@V?$_Tree_val@U?$_Tree_simple_types@U?$pair@$$CBIPAU_MAGIC_TYPE1@@@std@@@std@@@std@@@2@ABI@Z 005c7cc0 f i Unit.obj
 0002:0004bd50       ?lower_bound@?$_Tree@V?$_Tmap_traits@IPAU_MAGIC_TYPE2@@U?$less@I@std@@V?$allocator@U?$pair@$$CBIPAU_MAGIC_TYPE2@@@std@@@3@$0A@@std@@@std@@QAE?AV?$_Tree_iterator@V?$_Tree_val@U?$_Tree_simple_types@U?$pair@$$CBIPAU_MAGIC_TYPE2@@@std@@@std@@@std@@@2@ABI@Z 005c7d50 f i Unit.obj
 0002:0004bde0       ?max_size@?$_Tree@V?$_Tmap_traits@EU_BUFF_TYPE4_INFO@@U?$less@E@std@@V?$allocator@U?$pair@$$CBEU_BUFF_TYPE4_INFO@@@std@@@3@$0A@@std@@@std@@QBEIXZ 005c7de0 f i Unit.obj
 0002:0004be50       ?max_size@?$_Wrap_alloc@V?$allocator@U?$_Tree_node@U?$pair@$$CBEU_BUFF_TYPE4_INFO@@@std@@PAX@std@@@std@@@std@@QBEIU_Nil@2@@Z 005c7e50 f i Unit.obj
 0002:0004beb0       ?max_size@?$allocator@U?$_Tree_node@U?$pair@$$CBEU_BUFF_TYPE4_INFO@@@std@@PAX@std@@@std@@QBEIXZ 005c7eb0 f i Unit.obj
 0002:0004bef0       ?max_size@?$allocator_traits@V?$allocator@U?$_Tree_node@U?$pair@$$CBEU_BUFF_TYPE4_INFO@@@std@@PAX@std@@@std@@@std@@SAIABV?$allocator@U?$_Tree_node@U?$pair@$$CBEU_BUFF_TYPE4_INFO@@@std@@PAX@std@@@2@@Z 005c7ef0 f i Unit.obj
 0002:0004bf40       ?pointer_to@?$pointer_traits@PAU?$pair@$$CBEF@std@@@std@@SAPAU?$pair@$$CBEF@2@AAU32@@Z 005c7f40 f i Unit.obj
 0002:0004bf90       ?pointer_to@?$pointer_traits@PAU?$pair@$$CBEV?$map@EFU?$less@E@std@@V?$allocator@U?$pair@$$CBEF@std@@@2@@std@@@std@@@std@@SAPAU?$pair@$$CBEV?$map@EFU?$less@E@std@@V?$allocator@U?$pair@$$CBEF@std@@@2@@std@@@2@AAU32@@Z 005c7f90 f i Unit.obj
 0002:0004bfe0       ?pointer_to@?$pointer_traits@PAU?$pair@$$CBIPAU_MAGIC_TYPE1@@@std@@@std@@SAPAU?$pair@$$CBIPAU_MAGIC_TYPE1@@@2@AAU32@@Z 005c7fe0 f i Unit.obj
 0002:0004c030       ?pointer_to@?$pointer_traits@PAU?$pair@$$CBIPAU_MAGIC_TYPE2@@@std@@@std@@SAPAU?$pair@$$CBIPAU_MAGIC_TYPE2@@@2@AAU32@@Z 005c8030 f i Unit.obj
 0002:0004c080       ?pow@@YAMMM@Z              005c8080 f i Unit.obj
 0002:0004c0f0       ?select_on_container_copy_construction@?$_Wrap_alloc@V?$allocator@U?$_Tree_node@U?$pair@$$CBEU_BUFF_TYPE4_INFO@@@std@@PAX@std@@@std@@@std@@QBE?AU12@U_Nil@2@@Z 005c80f0 f i Unit.obj
 0002:0004c160       ?select_on_container_copy_construction@?$allocator_traits@V?$allocator@U?$_Tree_node@U?$pair@$$CBEU_BUFF_TYPE4_INFO@@@std@@PAX@std@@@std@@@std@@SA?AV?$allocator@U?$_Tree_node@U?$pair@$$CBEU_BUFF_TYPE4_INFO@@@std@@PAX@std@@@2@ABV32@@Z 005c8160 f i Unit.obj
 0002:0004c1c0       ?size@?$_Tree@V?$_Tmap_traits@EFU?$less@E@std@@V?$allocator@U?$pair@$$CBEF@std@@@2@$0A@@std@@@std@@QBEIXZ 005c81c0 f i Unit.obj
 0002:0004c220       ?size@?$_Tree@V?$_Tmap_traits@EU_BUFF_TYPE4_INFO@@U?$less@E@std@@V?$allocator@U?$pair@$$CBEU_BUFF_TYPE4_INFO@@@std@@@3@$0A@@std@@@std@@QBEIXZ 005c8220 f i Unit.obj
 0002:0004c280       ?size@?$_Tree@V?$_Tmap_traits@EV?$map@EFU?$less@E@std@@V?$allocator@U?$pair@$$CBEF@std@@@2@@std@@U?$less@E@2@V?$allocator@U?$pair@$$CBEV?$map@EFU?$less@E@std@@V?$allocator@U?$pair@$$CBEF@std@@@2@@std@@@std@@@2@$0A@@std@@@std@@QBEIXZ 005c8280 f i Unit.obj
 0002:0004c2e0       _powf                      005c82e0 f i Unit.obj
 0002:0004c360       _sqrtf                     005c8360 f i Unit.obj
 0002:0004c3d0       ??0CN3ShapeMgr@@QAE@XZ     005c83d0 f   N3ShapeMgr.obj
 0002:0004c480       ??0__CellMain@CN3ShapeMgr@@QAE@XZ 005c8480 f i N3ShapeMgr.obj
 0002:0004c500       ??0__CellSub@CN3ShapeMgr@@QAE@XZ 005c8500 f i N3ShapeMgr.obj
 0002:0004c560       ??0__Vector3@@QAE@XZ       005c8560 f i N3ShapeMgr.obj
 0002:0004c5a0       ??1CN3ShapeMgr@@UAE@XZ     005c85a0 f   N3ShapeMgr.obj
 0002:0004c6e0       ??1__CellMain@CN3ShapeMgr@@QAE@XZ 005c86e0 f i N3ShapeMgr.obj
 0002:0004c7a0       ??1__CellSub@CN3ShapeMgr@@QAE@XZ 005c87a0 f i N3ShapeMgr.obj
 0002:0004c810       ??_GCN3ShapeMgr@@UAEPAXI@Z 005c8810 f i N3ShapeMgr.obj
 0002:0004c810       ??_ECN3ShapeMgr@@UAEPAXI@Z 005c8810 f i N3ShapeMgr.obj
 0002:0004c890       ??_G__CellMain@CN3ShapeMgr@@QAEPAXI@Z 005c8890 f i N3ShapeMgr.obj
 0002:0004c910       ?Create@CN3ShapeMgr@@QAE_NMM@Z 005c8910 f   N3ShapeMgr.obj
 0002:0004c9c0       ?Load@__CellMain@CN3ShapeMgr@@QAEXPAU_iobuf@@@Z 005c89c0 f i N3ShapeMgr.obj
 0002:0004cb80       ?Load@__CellSub@CN3ShapeMgr@@QAEXPAU_iobuf@@@Z 005c8b80 f i N3ShapeMgr.obj
 0002:0004ccd0       ?LoadCollisionData@CN3ShapeMgr@@QAE_NPAU_iobuf@@@Z 005c8cd0 f   N3ShapeMgr.obj
 0002:0004d240       ?unlock@CN3ShapeMgr@@QAEXXZ 005c9240 f   N3ShapeMgr.obj
 0002:0004d3e0       ??$?0$$V@?$_Compressed_pair@U?$_Wrap_alloc@V?$allocator@D@std@@@std@@V?$_String_val@U?$_Simple_types@D@std@@@2@$00@std@@QAE@U_Zero_then_variadic_args_t@1@@Z 005c93e0 f i GameSocket.obj
 0002:0004d440       ??$?0$$V@?$_Compressed_pair@U?$_Wrap_alloc@V?$allocator@U?$_Tree_node@U?$pair@$$CBEF@std@@PAX@std@@@std@@@std@@V?$_Tree_val@U?$_Tree_simple_types@U?$pair@$$CBEF@std@@@std@@@2@$00@std@@QAE@U_Zero_then_variadic_args_t@1@@Z 005c9440 f i GameSocket.obj
 0002:0004d4a0       ??$?0AAEAAFX$0A@@?$pair@EF@std@@QAE@AAEAAF@Z 005c94a0 f i GameSocket.obj
 0002:0004d520       ??$?0AAIAAPAU_PARTY_GROUP@@X$0A@@?$pair@IPAU_PARTY_GROUP@@@std@@QAE@AAIAAPAU_PARTY_GROUP@@@Z 005c9520 f i GameSocket.obj
 0002:0004d5a0       ??$?0AAU?$_Wrap_alloc@V?$allocator@D@std@@@std@@@?$_Wrap_alloc@V?$allocator@U_Container_proxy@std@@@std@@@std@@QAE@AAU?$_Wrap_alloc@V?$allocator@D@std@@@1@@Z 005c95a0 f i GameSocket.obj
 0002:0004d610       ??$?0AAV?$_Tree_iterator@V?$_Tree_val@U?$_Tree_simple_types@U?$pair@$$CBEF@std@@@std@@@std@@@std@@_NX$0A@@?$pair@V?$_Tree_iterator@V?$_Tree_val@U?$_Tree_simple_types@U?$pair@$$CBEF@std@@@std@@@std@@@std@@_N@std@@QAE@AAV?$_Tree_iterator@V?$_Tree_val@U?$_Tree_simple_types@U?$pair@$$CBEF@std@@@std@@@std@@@1@$$QA_N@Z 005c9610 f i GameSocket.obj
 0002:0004d690       ??$?0AAV?$_Tree_iterator@V?$_Tree_val@U?$_Tree_simple_types@U?$pair@$$CBEV?$map@EFU?$less@E@std@@V?$allocator@U?$pair@$$CBEF@std@@@2@@std@@@std@@@std@@@std@@@std@@_NX$0A@@?$pair@V?$_Tree_iterator@V?$_Tree_val@U?$_Tree_simple_types@U?$pair@$$CBEV?$map@EFU?$less@E@std@@V?$allocator@U?$pair@$$CBEF@std@@@2@@std@@@std@@@std@@@std@@@std@@_N@std@@QAE@AAV?$_Tree_iterator@V?$_Tree_val@U?$_Tree_simple_types@U?$pair@$$CBEV?$map@EFU?$less@E@std@@V?$allocator@U?$pair@$$CBEF@std@@@2@@std@@@std@@@std@@@std@@@1@$$QA_N@Z 005c9690 f i GameSocket.obj
 0002:0004d710       ??$?0AAV?$_Tree_iterator@V?$_Tree_val@U?$_Tree_simple_types@U?$pair@$$CBIPAU_PARTY_GROUP@@@std@@@std@@@std@@@std@@_NX$0A@@?$pair@V?$_Tree_iterator@V?$_Tree_val@U?$_Tree_simple_types@U?$pair@$$CBIPAU_PARTY_GROUP@@@std@@@std@@@std@@@std@@_N@std@@QAE@AAV?$_Tree_iterator@V?$_Tree_val@U?$_Tree_simple_types@U?$pair@$$CBIPAU_PARTY_GROUP@@@std@@@std@@@std@@@1@$$QA_N@Z 005c9710 f i GameSocket.obj
 0002:0004d790       ??$?0ABE$$Z$$V@?$pair@$$CBEV?$map@EFU?$less@E@std@@V?$allocator@U?$pair@$$CBEF@std@@@2@@std@@@std@@QAE@Upiecewise_construct_t@1@V?$tuple@ABE@1@V?$tuple@$$V@1@@Z 005c9790 f i GameSocket.obj
 0002:0004d810       ??$?0ABE$0A@@?$tuple@ABE@std@@QAE@ABE@Z 005c9810 f i GameSocket.obj
 0002:0004d890       ??$?0ABE@?$_Tuple_val@ABE@std@@QAE@ABE@Z 005c9890 f i GameSocket.obj
 0002:0004d8f0       ??$?0ABU?$less@E@std@@U_Zero_then_variadic_args_t@1@@?$_Compressed_pair@U?$less@E@std@@V?$_Compressed_pair@U?$_Wrap_alloc@V?$allocator@U?$_Tree_node@U?$pair@$$CBEF@std@@PAX@std@@@std@@@std@@V?$_Tree_val@U?$_Tree_simple_types@U?$pair@$$CBEF@std@@@std@@@2@$00@2@$00@std@@QAE@U_One_then_variadic_args_t@1@ABU?$less@E@1@$$QAU_Zero_then_variadic_args_t@1@@Z 005c98f0 f i GameSocket.obj
 0002:0004d970       ??$?0D@?$allocator@U_Container_proxy@std@@@std@@QAE@ABV?$allocator@D@1@@Z 005c9970 f i GameSocket.obj
 0002:0004d9b0       ??$?0EFX$0A@@?$pair@$$CBEF@std@@QAE@$$QAU?$pair@EF@1@@Z 005c99b0 f i GameSocket.obj
 0002:0004da40       ??$?0IPAU_PARTY_GROUP@@X$0A@@?$pair@$$CBIPAU_PARTY_GROUP@@@std@@QAE@$$QAU?$pair@IPAU_PARTY_GROUP@@@1@@Z 005c9a40 f i GameSocket.obj
 0002:0004dac0       ??$?0U_Exact_args_t@std@@$0A@@?$tuple@$$V@std@@QAE@U_Exact_args_t@1@@Z 005c9ac0 f i GameSocket.obj
 0002:0004db00       ??$?0V?$_Tree_iterator@V?$_Tree_val@U?$_Tree_simple_types@U?$pair@$$CBEF@std@@@std@@@std@@@std@@_NX$0A@@?$pair@V?$_Tree_iterator@V?$_Tree_val@U?$_Tree_simple_types@U?$pair@$$CBEF@std@@@std@@@std@@@std@@_N@std@@QAE@$$QAV?$_Tree_iterator@V?$_Tree_val@U?$_Tree_simple_types@U?$pair@$$CBEF@std@@@std@@@std@@@1@$$QA_N@Z 005c9b00 f i GameSocket.obj
 0002:0004db80       ??$?0V?$_Tree_iterator@V?$_Tree_val@U?$_Tree_simple_types@U?$pair@$$CBEV?$map@EFU?$less@E@std@@V?$allocator@U?$pair@$$CBEF@std@@@2@@std@@@std@@@std@@@std@@@std@@_NX$0A@@?$pair@V?$_Tree_iterator@V?$_Tree_val@U?$_Tree_simple_types@U?$pair@$$CBEV?$map@EFU?$less@E@std@@V?$allocator@U?$pair@$$CBEF@std@@@2@@std@@@std@@@std@@@std@@@std@@_N@std@@QAE@$$QAV?$_Tree_iterator@V?$_Tree_val@U?$_Tree_simple_types@U?$pair@$$CBEV?$map@EFU?$less@E@std@@V?$allocator@U?$pair@$$CBEF@std@@@2@@std@@@std@@@std@@@std@@@1@$$QA_N@Z 005c9b80 f i GameSocket.obj
 0002:0004dc00       ??$?0V?$_Tree_iterator@V?$_Tree_val@U?$_Tree_simple_types@U?$pair@$$CBIPAU_PARTY_GROUP@@@std@@@std@@@std@@@std@@_NX$0A@@?$pair@V?$_Tree_iterator@V?$_Tree_val@U?$_Tree_simple_types@U?$pair@$$CBIPAU_PARTY_GROUP@@@std@@@std@@@std@@@std@@_N@std@@QAE@$$QAV?$_Tree_iterator@V?$_Tree_val@U?$_Tree_simple_types@U?$pair@$$CBIPAU_PARTY_GROUP@@@std@@@std@@@std@@@1@$$QA_N@Z 005c9c00 f i GameSocket.obj
 0002:0004dc80       ??$?0V?$tuple@ABE@std@@V?$tuple@$$V@1@$0A@$$Z$S@?$pair@$$CBEV?$map@EFU?$less@E@std@@V?$allocator@U?$pair@$$CBEF@std@@@2@@std@@@std@@QAE@AAV?$tuple@ABE@1@AAV?$tuple@$$V@1@U?$integer_sequence@I$0A@@1@U?$integer_sequence@I$S@1@@Z 005c9c80 f i GameSocket.obj
 0002:0004dd00       ??$?8U?$_Tree_node@U?$pair@$$CBEF@std@@PAX@std@@U01@@std@@YA_NABV?$allocator@U?$_Tree_node@U?$pair@$$CBEF@std@@PAX@std@@@0@0@Z 005c9d00 f i GameSocket.obj
 0002:0004dd30       ??$?8V?$allocator@U?$_Tree_node@U?$pair@$$CBEF@std@@PAX@std@@@std@@V01@@std@@YA_NABU?$_Wrap_alloc@V?$allocator@U?$_Tree_node@U?$pair@$$CBEF@std@@PAX@std@@@std@@@0@0@Z 005c9d30 f i GameSocket.obj
 0002:0004dd90       ??$?9V?$allocator@U?$_Tree_node@U?$pair@$$CBEF@std@@PAX@std@@@std@@V01@@std@@YA_NABU?$_Wrap_alloc@V?$allocator@U?$_Tree_node@U?$pair@$$CBEF@std@@PAX@std@@@std@@@0@0@Z 005c9d90 f i GameSocket.obj
 0002:0004de10       ??$_Addressof@D@std@@YAPADAADU?$integral_constant@_N$0A@@0@@Z 005c9e10 f i GameSocket.obj
 0002:0004de50       ??$_Addressof@PAU?$_Tree_node@U?$pair@$$CBIPAU_PARTY_GROUP@@@std@@PAX@std@@@std@@YAPAPAU?$_Tree_node@U?$pair@$$CBIPAU_PARTY_GROUP@@@std@@PAX@0@AAPAU10@U?$integral_constant@_N$0A@@0@@Z 005c9e50 f i GameSocket.obj
 0002:0004de90       ??$_Addressof@U?$pair@$$CBIPAU_PARTY_GROUP@@@std@@@std@@YAPAU?$pair@$$CBIPAU_PARTY_GROUP@@@0@AAU10@U?$integral_constant@_N$0A@@0@@Z 005c9e90 f i GameSocket.obj
 0002:0004ded0       ??$_Addressof@U?$pair@$$CBIPAVCNpc@@@std@@@std@@YAPAU?$pair@$$CBIPAVCNpc@@@0@AAU10@U?$integral_constant@_N$0A@@0@@Z 005c9ed0 f i GameSocket.obj
 0002:0004df10       ??$_Buynode@AAU?$pair@$$CBEF@std@@@?$_Tree_comp_alloc@V?$_Tmap_traits@EFU?$less@E@std@@V?$allocator@U?$pair@$$CBEF@std@@@2@$0A@@std@@@std@@QAEPAU?$_Tree_node@U?$pair@$$CBEF@std@@PAX@1@AAU?$pair@$$CBEF@1@@Z 005c9f10 f i GameSocket.obj
 0002:0004e060       ??$_Buynode@ABUpiecewise_construct_t@std@@V?$tuple@ABE@2@V?$tuple@$$V@2@@?$_Tree_comp_alloc@V?$_Tmap_traits@EV?$map@EFU?$less@E@std@@V?$allocator@U?$pair@$$CBEF@std@@@2@@std@@U?$less@E@2@V?$allocator@U?$pair@$$CBEV?$map@EFU?$less@E@std@@V?$allocator@U?$pair@$$CBEF@std@@@2@@std@@@std@@@2@$0A@@std@@@std@@QAEPAU?$_Tree_node@U?$pair@$$CBEV?$map@EFU?$less@E@std@@V?$allocator@U?$pair@$$CBEF@std@@@2@@std@@@std@@PAX@1@ABUpiecewise_construct_t@1@$$QAV?$tuple@ABE@1@$$QAV?$tuple@$$V@1@@Z 005ca060 f i GameSocket.obj
 0002:0004e1d0       ??$_Buynode@U?$pair@EF@std@@@?$_Tree_comp_alloc@V?$_Tmap_traits@EFU?$less@E@std@@V?$allocator@U?$pair@$$CBEF@std@@@2@$0A@@std@@@std@@QAEPAU?$_Tree_node@U?$pair@$$CBEF@std@@PAX@1@$$QAU?$pair@EF@1@@Z 005ca1d0 f i GameSocket.obj
 0002:0004e320       ??$_Buynode@U?$pair@IPAU_PARTY_GROUP@@@std@@@?$_Tree_comp_alloc@V?$_Tmap_traits@IPAU_PARTY_GROUP@@U?$less@I@std@@V?$allocator@U?$pair@$$CBIPAU_PARTY_GROUP@@@std@@@3@$0A@@std@@@std@@QAEPAU?$_Tree_node@U?$pair@$$CBIPAU_PARTY_GROUP@@@std@@PAX@1@$$QAU?$pair@IPAU_PARTY_GROUP@@@1@@Z 005ca320 f i GameSocket.obj
 0002:0004e470       ??$_Buynode_if_nil@AAU?$pair@$$CBEF@std@@@?$_Tree@V?$_Tmap_traits@EFU?$less@E@std@@V?$allocator@U?$pair@$$CBEF@std@@@2@$0A@@std@@@std@@IAEPAU?$_Tree_node@U?$pair@$$CBEF@std@@PAX@1@PAU21@AAU?$pair@$$CBEF@1@@Z 005ca470 f i GameSocket.obj
 0002:0004e4b0       ??$_Buynode_if_nil@AAU?$pair@$$CBEV?$map@EFU?$less@E@std@@V?$allocator@U?$pair@$$CBEF@std@@@2@@std@@@std@@@?$_Tree@V?$_Tmap_traits@EV?$map@EFU?$less@E@std@@V?$allocator@U?$pair@$$CBEF@std@@@2@@std@@U?$less@E@2@V?$allocator@U?$pair@$$CBEV?$map@EFU?$less@E@std@@V?$allocator@U?$pair@$$CBEF@std@@@2@@std@@@std@@@2@$0A@@std@@@std@@IAEPAU?$_Tree_node@U?$pair@$$CBEV?$map@EFU?$less@E@std@@V?$allocator@U?$pair@$$CBEF@std@@@2@@std@@@std@@PAX@1@PAU21@AAU?$pair@$$CBEV?$map@EFU?$less@E@std@@V?$allocator@U?$pair@$$CBEF@std@@@2@@std@@@1@@Z 005ca4b0 f i GameSocket.obj
 0002:0004e4f0       ??$_Buynode_if_nil@AAU?$pair@$$CBIPAU_PARTY_GROUP@@@std@@@?$_Tree@V?$_Tmap_traits@IPAU_PARTY_GROUP@@U?$less@I@std@@V?$allocator@U?$pair@$$CBIPAU_PARTY_GROUP@@@std@@@3@$0A@@std@@@std@@IAEPAU?$_Tree_node@U?$pair@$$CBIPAU_PARTY_GROUP@@@std@@PAX@1@PAU21@AAU?$pair@$$CBIPAU_PARTY_GROUP@@@1@@Z 005ca4f0 f i GameSocket.obj
 0002:0004e530       ??$_Copy@U_Copy_tag@?$_Tree@V?$_Tmap_traits@EFU?$less@E@std@@V?$allocator@U?$pair@$$CBEF@std@@@2@$0A@@std@@@std@@@?$_Tree@V?$_Tmap_traits@EFU?$less@E@std@@V?$allocator@U?$pair@$$CBEF@std@@@2@$0A@@std@@@std@@IAEXABV01@U_Copy_tag@01@@Z 005ca530 f i GameSocket.obj
 0002:0004e680       ??$_Copy_nodes@U_Copy_tag@?$_Tree@V?$_Tmap_traits@EFU?$less@E@std@@V?$allocator@U?$pair@$$CBEF@std@@@2@$0A@@std@@@std@@@?$_Tree@V?$_Tmap_traits@EFU?$less@E@std@@V?$allocator@U?$pair@$$CBEF@std@@@2@$0A@@std@@@std@@IAEPAU?$_Tree_node@U?$pair@$$CBEF@std@@PAX@1@PAU21@0U_Copy_tag@01@@Z 005ca680 f i GameSocket.obj
 0002:0004e8f0       ??$_Copy_or_move@U?$pair@$$CBEF@std@@U?$integral_constant@_N$0A@@2@@?$_Tree@V?$_Tmap_traits@EFU?$less@E@std@@V?$allocator@U?$pair@$$CBEF@std@@@2@$0A@@std@@@std@@IAEPAU?$_Tree_node@U?$pair@$$CBEF@std@@PAX@1@AAU?$pair@$$CBEF@1@U_Copy_tag@01@U?$integral_constant@_N$0A@@1@@Z 005ca8f0 f i GameSocket.obj
 0002:0004e950       ??$_Insert_at@AAU?$pair@$$CBEF@std@@PAU?$_Tree_node@U?$pair@$$CBEF@std@@PAX@2@@?$_Tree@V?$_Tmap_traits@EFU?$less@E@std@@V?$allocator@U?$pair@$$CBEF@std@@@2@$0A@@std@@@std@@IAE?AV?$_Tree_iterator@V?$_Tree_val@U?$_Tree_simple_types@U?$pair@$$CBEF@std@@@std@@@std@@@1@_NPAU?$_Tree_node@U?$pair@$$CBEF@std@@PAX@1@AAU?$pair@$$CBEF@1@1@Z 005ca950 f i GameSocket.obj
 0002:0004ef00       ??$_Insert_at@AAU?$pair@$$CBEV?$map@EFU?$less@E@std@@V?$allocator@U?$pair@$$CBEF@std@@@2@@std@@@std@@PAU?$_Tree_node@U?$pair@$$CBEV?$map@EFU?$less@E@std@@V?$allocator@U?$pair@$$CBEF@std@@@2@@std@@@std@@PAX@2@@?$_Tree@V?$_Tmap_traits@EV?$map@EFU?$less@E@std@@V?$allocator@U?$pair@$$CBEF@std@@@2@@std@@U?$less@E@2@V?$allocator@U?$pair@$$CBEV?$map@EFU?$less@E@std@@V?$allocator@U?$pair@$$CBEF@std@@@2@@std@@@std@@@2@$0A@@std@@@std@@IAE?AV?$_Tree_iterator@V?$_Tree_val@U?$_Tree_simple_types@U?$pair@$$CBEV?$map@EFU?$less@E@std@@V?$allocator@U?$pair@$$CBEF@std@@@2@@std@@@std@@@std@@@std@@@1@_NPAU?$_Tree_node@U?$pair@$$CBEV?$map@EFU?$less@E@std@@V?$allocator@U?$pair@$$CBEF@std@@@2@@std@@@std@@PAX@1@AAU?$pair@$$CBEV?$map@EFU?$less@E@std@@V?$allocator@U?$pair@$$CBEF@std@@@2@@std@@@1@1@Z 005caf00 f i GameSocket.obj
 0002:0004f4b0       ??$_Insert_at@AAU?$pair@$$CBIPAU_PARTY_GROUP@@@std@@PAU?$_Tree_node@U?$pair@$$CBIPAU_PARTY_GROUP@@@std@@PAX@2@@?$_Tree@V?$_Tmap_traits@IPAU_PARTY_GROUP@@U?$less@I@std@@V?$allocator@U?$pair@$$CBIPAU_PARTY_GROUP@@@std@@@3@$0A@@std@@@std@@IAE?AV?$_Tree_iterator@V?$_Tree_val@U?$_Tree_simple_types@U?$pair@$$CBIPAU_PARTY_GROUP@@@std@@@std@@@std@@@1@_NPAU?$_Tree_node@U?$pair@$$CBIPAU_PARTY_GROUP@@@std@@PAX@1@AAU?$pair@$$CBIPAU_PARTY_GROUP@@@1@1@Z 005cb4b0 f i GameSocket.obj
 0002:0004fa60       ??$_Insert_hint@AAU?$pair@$$CBEV?$map@EFU?$less@E@std@@V?$allocator@U?$pair@$$CBEF@std@@@2@@std@@@std@@PAU?$_Tree_node@U?$pair@$$CBEV?$map@EFU?$less@E@std@@V?$allocator@U?$pair@$$CBEF@std@@@2@@std@@@std@@PAX@2@@?$_Tree@V?$_Tmap_traits@EV?$map@EFU?$less@E@std@@V?$allocator@U?$pair@$$CBEF@std@@@2@@std@@U?$less@E@2@V?$allocator@U?$pair@$$CBEV?$map@EFU?$less@E@std@@V?$allocator@U?$pair@$$CBEF@std@@@2@@std@@@std@@@2@$0A@@std@@@std@@IAE?AV?$_Tree_iterator@V?$_Tree_val@U?$_Tree_simple_types@U?$pair@$$CBEV?$map@EFU?$less@E@std@@V?$allocator@U?$pair@$$CBEF@std@@@2@@std@@@std@@@std@@@std@@@1@V?$_Tree_const_iterator@V?$_Tree_val@U?$_Tree_simple_types@U?$pair@$$CBEV?$map@EFU?$less@E@std@@V?$allocator@U?$pair@$$CBEF@std@@@2@@std@@@std@@@std@@@std@@@1@AAU?$pair@$$CBEV?$map@EFU?$less@E@std@@V?$allocator@U?$pair@$$CBEF@std@@@2@@std@@@1@PAU?$_Tree_node@U?$pair@$$CBEV?$map@EFU?$less@E@std@@V?$allocator@U?$pair@$$CBEF@std@@@2@@std@@@std@@PAX@1@@Z 005cba60 f i GameSocket.obj
 0002:00050ff0       ??$_Insert_nohint@AAU?$pair@$$CBEF@std@@PAU?$_Tree_node@U?$pair@$$CBEF@std@@PAX@2@@?$_Tree@V?$_Tmap_traits@EFU?$less@E@std@@V?$allocator@U?$pair@$$CBEF@std@@@2@$0A@@std@@@std@@IAE?AU?$pair@V?$_Tree_iterator@V?$_Tree_val@U?$_Tree_simple_types@U?$pair@$$CBEF@std@@@std@@@std@@@std@@_N@1@_NAAU?$pair@$$CBEF@1@PAU?$_Tree_node@U?$pair@$$CBEF@std@@PAX@1@@Z 005ccff0 f i GameSocket.obj
 0002:000516d0       ??$_Insert_nohint@AAU?$pair@$$CBEV?$map@EFU?$less@E@std@@V?$allocator@U?$pair@$$CBEF@std@@@2@@std@@@std@@PAU?$_Tree_node@U?$pair@$$CBEV?$map@EFU?$less@E@std@@V?$allocator@U?$pair@$$CBEF@std@@@2@@std@@@std@@PAX@2@@?$_Tree@V?$_Tmap_traits@EV?$map@EFU?$less@E@std@@V?$allocator@U?$pair@$$CBEF@std@@@2@@std@@U?$less@E@2@V?$allocator@U?$pair@$$CBEV?$map@EFU?$less@E@std@@V?$allocator@U?$pair@$$CBEF@std@@@2@@std@@@std@@@2@$0A@@std@@@std@@IAE?AU?$pair@V?$_Tree_iterator@V?$_Tree_val@U?$_Tree_simple_types@U?$pair@$$CBEV?$map@EFU?$less@E@std@@V?$allocator@U?$pair@$$CBEF@std@@@2@@std@@@std@@@std@@@std@@@std@@_N@1@_NAAU?$pair@$$CBEV?$map@EFU?$less@E@std@@V?$allocator@U?$pair@$$CBEF@std@@@2@@std@@@1@PAU?$_Tree_node@U?$pair@$$CBEV?$map@EFU?$less@E@std@@V?$allocator@U?$pair@$$CBEF@std@@@2@@std@@@std@@PAX@1@@Z 005cd6d0 f i GameSocket.obj
 0002:00051db0       ??$_Insert_nohint@AAU?$pair@$$CBIPAU_PARTY_GROUP@@@std@@PAU?$_Tree_node@U?$pair@$$CBIPAU_PARTY_GROUP@@@std@@PAX@2@@?$_Tree@V?$_Tmap_traits@IPAU_PARTY_GROUP@@U?$less@I@std@@V?$allocator@U?$pair@$$CBIPAU_PARTY_GROUP@@@std@@@3@$0A@@std@@@std@@IAE?AU?$pair@V?$_Tree_iterator@V?$_Tree_val@U?$_Tree_simple_types@U?$pair@$$CBIPAU_PARTY_GROUP@@@std@@@std@@@std@@@std@@_N@1@_NAAU?$pair@$$CBIPAU_PARTY_GROUP@@@1@PAU?$_Tree_node@U?$pair@$$CBIPAU_PARTY_GROUP@@@std@@PAX@1@@Z 005cddb0 f i GameSocket.obj
 0002:00052490       ??$_Kfn@$$CBEF@?$_Tmap_traits@EFU?$less@E@std@@V?$allocator@U?$pair@$$CBEF@std@@@2@$0A@@std@@SAABEABU?$pair@$$CBEF@1@@Z 005ce490 f i GameSocket.obj
 0002:000524d0       ??$_Kfn@$$CBEV?$map@EFU?$less@E@std@@V?$allocator@U?$pair@$$CBEF@std@@@2@@std@@@?$_Tmap_traits@EV?$map@EFU?$less@E@std@@V?$allocator@U?$pair@$$CBEF@std@@@2@@std@@U?$less@E@2@V?$allocator@U?$pair@$$CBEV?$map@EFU?$less@E@std@@V?$allocator@U?$pair@$$CBEF@std@@@2@@std@@@std@@@2@$0A@@std@@SAABEABU?$pair@$$CBEV?$map@EFU?$less@E@std@@V?$allocator@U?$pair@$$CBEF@std@@@2@@std@@@1@@Z 005ce4d0 f i GameSocket.obj
 0002:00052510       ??$_Kfn@$$CBIPAU_PARTY_GROUP@@@?$_Tmap_traits@IPAU_PARTY_GROUP@@U?$less@I@std@@V?$allocator@U?$pair@$$CBIPAU_PARTY_GROUP@@@std@@@3@$0A@@std@@SAABIABU?$pair@$$CBIPAU_PARTY_GROUP@@@1@@Z 005ce510 f i GameSocket.obj
 0002:00052550       ??$_Lbound@E@?$_Tree@V?$_Tmap_traits@EV?$map@EFU?$less@E@std@@V?$allocator@U?$pair@$$CBEF@std@@@2@@std@@U?$less@E@2@V?$allocator@U?$pair@$$CBEV?$map@EFU?$less@E@std@@V?$allocator@U?$pair@$$CBEF@std@@@2@@std@@@std@@@2@$0A@@std@@@std@@IBEPAU?$_Tree_node@U?$pair@$$CBEV?$map@EFU?$less@E@std@@V?$allocator@U?$pair@$$CBEF@std@@@2@@std@@@std@@PAX@1@ABE@Z 005ce550 f i GameSocket.obj
 0002:00052640       ??$_Pocca@U?$_Wrap_alloc@V?$allocator@U?$_Tree_node@U?$pair@$$CBEF@std@@PAX@std@@@std@@@std@@@std@@YAXAAU?$_Wrap_alloc@V?$allocator@U?$_Tree_node@U?$pair@$$CBEF@std@@PAX@std@@@std@@@0@ABU10@@Z 005ce640 f i GameSocket.obj
 0002:000526d0       ??$_Pocca@U?$_Wrap_alloc@V?$allocator@U?$_Tree_node@U?$pair@$$CBEF@std@@PAX@std@@@std@@@std@@@std@@YAXAAU?$_Wrap_alloc@V?$allocator@U?$_Tree_node@U?$pair@$$CBEF@std@@PAX@std@@@std@@@0@ABU10@U?$integral_constant@_N$0A@@0@@Z 005ce6d0 f i GameSocket.obj
 0002:00052700       ??$_Try_emplace@ABE$$V@?$map@EV?$map@EFU?$less@E@std@@V?$allocator@U?$pair@$$CBEF@std@@@2@@std@@U?$less@E@2@V?$allocator@U?$pair@$$CBEV?$map@EFU?$less@E@std@@V?$allocator@U?$pair@$$CBEF@std@@@2@@std@@@std@@@2@@std@@QAE?AU?$pair@V?$_Tree_iterator@V?$_Tree_val@U?$_Tree_simple_types@U?$pair@$$CBEV?$map@EFU?$less@E@std@@V?$allocator@U?$pair@$$CBEF@std@@@2@@std@@@std@@@std@@@std@@@std@@_N@1@ABE@Z 005ce700 f i GameSocket.obj
 0002:00052a50       ??$addressof@D@std@@YAPADAAD@Z 005cea50 f i GameSocket.obj
 0002:00052ab0       ??$addressof@PAU?$_Tree_node@U?$pair@$$CBIPAU_PARTY_GROUP@@@std@@PAX@std@@@std@@YAPAPAU?$_Tree_node@U?$pair@$$CBIPAU_PARTY_GROUP@@@std@@PAX@0@AAPAU10@@Z 005ceab0 f i GameSocket.obj
 0002:00052b10       ??$addressof@U?$pair@$$CBIPAU_PARTY_GROUP@@@std@@@std@@YAPAU?$pair@$$CBIPAU_PARTY_GROUP@@@0@AAU10@@Z 005ceb10 f i GameSocket.obj
 0002:00052b70       ??$addressof@U?$pair@$$CBIPAVCNpc@@@std@@@std@@YAPAU?$pair@$$CBIPAVCNpc@@@0@AAU10@@Z 005ceb70 f i GameSocket.obj
 0002:00052bd0       ??$construct@PADAAPAD@?$_Wrap_alloc@V?$allocator@D@std@@@std@@QAEXPAPADAAPAD@Z 005cebd0 f i GameSocket.obj
 0002:00052c40       ??$construct@PADAAPAD@?$allocator@D@std@@QAEXPAPADAAPAD@Z 005cec40 f i GameSocket.obj
 0002:00052cf0       ??$construct@PADAAPAD@?$allocator_traits@V?$allocator@D@std@@@std@@SAXAAV?$allocator@D@1@PAPADAAPAD@Z 005cecf0 f i GameSocket.obj
 0002:00052d50       ??$construct@PAU?$_Tree_node@U?$pair@$$CBEF@std@@PAX@std@@AAPAU12@@?$_Wrap_alloc@V?$allocator@U?$_Tree_node@U?$pair@$$CBEF@std@@PAX@std@@@std@@@std@@QAEXPAPAU?$_Tree_node@U?$pair@$$CBEF@std@@PAX@1@AAPAU21@@Z 005ced50 f i GameSocket.obj
 0002:00052dc0       ??$construct@PAU?$_Tree_node@U?$pair@$$CBEF@std@@PAX@std@@AAPAU12@@?$allocator@U?$_Tree_node@U?$pair@$$CBEF@std@@PAX@std@@@std@@QAEXPAPAU?$_Tree_node@U?$pair@$$CBEF@std@@PAX@1@AAPAU21@@Z 005cedc0 f i GameSocket.obj
 0002:00052e70       ??$construct@PAU?$_Tree_node@U?$pair@$$CBEF@std@@PAX@std@@AAPAU12@@?$allocator_traits@V?$allocator@U?$_Tree_node@U?$pair@$$CBEF@std@@PAX@std@@@std@@@std@@SAXAAV?$allocator@U?$_Tree_node@U?$pair@$$CBEF@std@@PAX@std@@@1@PAPAU?$_Tree_node@U?$pair@$$CBEF@std@@PAX@1@AAPAU31@@Z 005cee70 f i GameSocket.obj
 0002:00052ed0       ??$construct@PAU?$_Tree_node@U?$pair@$$CBIPAU_PARTY_GROUP@@@std@@PAX@std@@AAPAU12@@?$_Wrap_alloc@V?$allocator@U?$_Tree_node@U?$pair@$$CBIPAU_PARTY_GROUP@@@std@@PAX@std@@@std@@@std@@QAEXPAPAU?$_Tree_node@U?$pair@$$CBIPAU_PARTY_GROUP@@@std@@PAX@1@AAPAU21@@Z 005ceed0 f i GameSocket.obj
 0002:00052f40       ??$construct@PAU?$_Tree_node@U?$pair@$$CBIPAU_PARTY_GROUP@@@std@@PAX@std@@AAPAU12@@?$allocator@U?$_Tree_node@U?$pair@$$CBIPAU_PARTY_GROUP@@@std@@PAX@std@@@std@@QAEXPAPAU?$_Tree_node@U?$pair@$$CBIPAU_PARTY_GROUP@@@std@@PAX@1@AAPAU21@@Z 005cef40 f i GameSocket.obj
 0002:00052ff0       ??$construct@PAU?$_Tree_node@U?$pair@$$CBIPAU_PARTY_GROUP@@@std@@PAX@std@@AAPAU12@@?$allocator_traits@V?$allocator@U?$_Tree_node@U?$pair@$$CBIPAU_PARTY_GROUP@@@std@@PAX@std@@@std@@@std@@SAXAAV?$allocator@U?$_Tree_node@U?$pair@$$CBIPAU_PARTY_GROUP@@@std@@PAX@std@@@1@PAPAU?$_Tree_node@U?$pair@$$CBIPAU_PARTY_GROUP@@@std@@PAX@1@AAPAU31@@Z 005ceff0 f i GameSocket.obj
 0002:00053050       ??$construct@U?$pair@$$CBEF@std@@AAU12@@?$_Wrap_alloc@V?$allocator@U?$_Tree_node@U?$pair@$$CBEF@std@@PAX@std@@@std@@@std@@QAEXPAU?$pair@$$CBEF@1@AAU21@@Z 005cf050 f i GameSocket.obj
 0002:000530c0       ??$construct@U?$pair@$$CBEF@std@@AAU12@@?$allocator@U?$_Tree_node@U?$pair@$$CBEF@std@@PAX@std@@@std@@QAEXPAU?$pair@$$CBEF@1@AAU21@@Z 005cf0c0 f i GameSocket.obj
 0002:00053170       ??$construct@U?$pair@$$CBEF@std@@AAU12@@?$allocator_traits@V?$allocator@U?$_Tree_node@U?$pair@$$CBEF@std@@PAX@std@@@std@@@std@@SAXAAV?$allocator@U?$_Tree_node@U?$pair@$$CBEF@std@@PAX@std@@@1@PAU?$pair@$$CBEF@1@AAU31@@Z 005cf170 f i GameSocket.obj
 0002:000531d0       ??$construct@U?$pair@$$CBEF@std@@U?$pair@EF@2@@?$_Wrap_alloc@V?$allocator@U?$_Tree_node@U?$pair@$$CBEF@std@@PAX@std@@@std@@@std@@QAEXPAU?$pair@$$CBEF@1@$$QAU?$pair@EF@1@@Z 005cf1d0 f i GameSocket.obj
 0002:00053240       ??$construct@U?$pair@$$CBEF@std@@U?$pair@EF@2@@?$allocator@U?$_Tree_node@U?$pair@$$CBEF@std@@PAX@std@@@std@@QAEXPAU?$pair@$$CBEF@1@$$QAU?$pair@EF@1@@Z 005cf240 f i GameSocket.obj
 0002:000532e0       ??$construct@U?$pair@$$CBEF@std@@U?$pair@EF@2@@?$allocator_traits@V?$allocator@U?$_Tree_node@U?$pair@$$CBEF@std@@PAX@std@@@std@@@std@@SAXAAV?$allocator@U?$_Tree_node@U?$pair@$$CBEF@std@@PAX@std@@@1@PAU?$pair@$$CBEF@1@$$QAU?$pair@EF@1@@Z 005cf2e0 f i GameSocket.obj
 0002:00053340       ??$construct@U?$pair@$$CBEV?$map@EFU?$less@E@std@@V?$allocator@U?$pair@$$CBEF@std@@@2@@std@@@std@@ABUpiecewise_construct_t@2@V?$tuple@ABE@2@V?$tuple@$$V@2@@?$_Wrap_alloc@V?$allocator@U?$_Tree_node@U?$pair@$$CBEV?$map@EFU?$less@E@std@@V?$allocator@U?$pair@$$CBEF@std@@@2@@std@@@std@@PAX@std@@@std@@@std@@QAEXPAU?$pair@$$CBEV?$map@EFU?$less@E@std@@V?$allocator@U?$pair@$$CBEF@std@@@2@@std@@@1@ABUpiecewise_construct_t@1@$$QAV?$tuple@ABE@1@$$QAV?$tuple@$$V@1@@Z 005cf340 f i GameSocket.obj
 0002:000533d0       ??$construct@U?$pair@$$CBEV?$map@EFU?$less@E@std@@V?$allocator@U?$pair@$$CBEF@std@@@2@@std@@@std@@ABUpiecewise_construct_t@2@V?$tuple@ABE@2@V?$tuple@$$V@2@@?$allocator@U?$_Tree_node@U?$pair@$$CBEV?$map@EFU?$less@E@std@@V?$allocator@U?$pair@$$CBEF@std@@@2@@std@@@std@@PAX@std@@@std@@QAEXPAU?$pair@$$CBEV?$map@EFU?$less@E@std@@V?$allocator@U?$pair@$$CBEF@std@@@2@@std@@@1@ABUpiecewise_construct_t@1@$$QAV?$tuple@ABE@1@$$QAV?$tuple@$$V@1@@Z 005cf3d0 f i GameSocket.obj
 0002:00053510       ??$construct@U?$pair@$$CBEV?$map@EFU?$less@E@std@@V?$allocator@U?$pair@$$CBEF@std@@@2@@std@@@std@@ABUpiecewise_construct_t@2@V?$tuple@ABE@2@V?$tuple@$$V@2@@?$allocator_traits@V?$allocator@U?$_Tree_node@U?$pair@$$CBEV?$map@EFU?$less@E@std@@V?$allocator@U?$pair@$$CBEF@std@@@2@@std@@@std@@PAX@std@@@std@@@std@@SAXAAV?$allocator@U?$_Tree_node@U?$pair@$$CBEV?$map@EFU?$less@E@std@@V?$allocator@U?$pair@$$CBEF@std@@@2@@std@@@std@@PAX@std@@@1@PAU?$pair@$$CBEV?$map@EFU?$less@E@std@@V?$allocator@U?$pair@$$CBEF@std@@@2@@std@@@1@ABUpiecewise_construct_t@1@$$QAV?$tuple@ABE@1@$$QAV?$tuple@$$V@1@@Z 005cf510 f i GameSocket.obj
 0002:00053590       ??$construct@U?$pair@$$CBIPAU_PARTY_GROUP@@@std@@U?$pair@IPAU_PARTY_GROUP@@@2@@?$_Wrap_alloc@V?$allocator@U?$_Tree_node@U?$pair@$$CBIPAU_PARTY_GROUP@@@std@@PAX@std@@@std@@@std@@QAEXPAU?$pair@$$CBIPAU_PARTY_GROUP@@@1@$$QAU?$pair@IPAU_PARTY_GROUP@@@1@@Z 005cf590 f i GameSocket.obj
 0002:00053600       ??$construct@U?$pair@$$CBIPAU_PARTY_GROUP@@@std@@U?$pair@IPAU_PARTY_GROUP@@@2@@?$allocator@U?$_Tree_node@U?$pair@$$CBIPAU_PARTY_GROUP@@@std@@PAX@std@@@std@@QAEXPAU?$pair@$$CBIPAU_PARTY_GROUP@@@1@$$QAU?$pair@IPAU_PARTY_GROUP@@@1@@Z 005cf600 f i GameSocket.obj
 0002:000536a0       ??$construct@U?$pair@$$CBIPAU_PARTY_GROUP@@@std@@U?$pair@IPAU_PARTY_GROUP@@@2@@?$allocator_traits@V?$allocator@U?$_Tree_node@U?$pair@$$CBIPAU_PARTY_GROUP@@@std@@PAX@std@@@std@@@std@@SAXAAV?$allocator@U?$_Tree_node@U?$pair@$$CBIPAU_PARTY_GROUP@@@std@@PAX@std@@@1@PAU?$pair@$$CBIPAU_PARTY_GROUP@@@1@$$QAU?$pair@IPAU_PARTY_GROUP@@@1@@Z 005cf6a0 f i GameSocket.obj
 0002:00053700       ??$destroy@PAD@?$_Wrap_alloc@V?$allocator@D@std@@@std@@QAEXPAPAD@Z 005cf700 f i GameSocket.obj
 0002:00053760       ??$destroy@PAD@?$allocator@D@std@@QAEXPAPAD@Z 005cf760 f i GameSocket.obj
 0002:000537a0       ??$destroy@PAD@?$allocator_traits@V?$allocator@D@std@@@std@@SAXAAV?$allocator@D@1@PAPAD@Z 005cf7a0 f i GameSocket.obj
 0002:000537f0       ??$destroy@PAU?$_Tree_node@U?$pair@$$CBIPAU_PARTY_GROUP@@@std@@PAX@std@@@?$_Wrap_alloc@V?$allocator@U?$_Tree_node@U?$pair@$$CBIPAU_PARTY_GROUP@@@std@@PAX@std@@@std@@@std@@QAEXPAPAU?$_Tree_node@U?$pair@$$CBIPAU_PARTY_GROUP@@@std@@PAX@1@@Z 005cf7f0 f i GameSocket.obj
 0002:00053850       ??$destroy@PAU?$_Tree_node@U?$pair@$$CBIPAU_PARTY_GROUP@@@std@@PAX@std@@@?$allocator@U?$_Tree_node@U?$pair@$$CBIPAU_PARTY_GROUP@@@std@@PAX@std@@@std@@QAEXPAPAU?$_Tree_node@U?$pair@$$CBIPAU_PARTY_GROUP@@@std@@PAX@1@@Z 005cf850 f i GameSocket.obj
 0002:00053890       ??$destroy@PAU?$_Tree_node@U?$pair@$$CBIPAU_PARTY_GROUP@@@std@@PAX@std@@@?$allocator_traits@V?$allocator@U?$_Tree_node@U?$pair@$$CBIPAU_PARTY_GROUP@@@std@@PAX@std@@@std@@@std@@SAXAAV?$allocator@U?$_Tree_node@U?$pair@$$CBIPAU_PARTY_GROUP@@@std@@PAX@std@@@1@PAPAU?$_Tree_node@U?$pair@$$CBIPAU_PARTY_GROUP@@@std@@PAX@1@@Z 005cf890 f i GameSocket.obj
 0002:000538e0       ??$destroy@U?$pair@$$CBIPAU_PARTY_GROUP@@@std@@@?$_Wrap_alloc@V?$allocator@U?$_Tree_node@U?$pair@$$CBIPAU_PARTY_GROUP@@@std@@PAX@std@@@std@@@std@@QAEXPAU?$pair@$$CBIPAU_PARTY_GROUP@@@1@@Z 005cf8e0 f i GameSocket.obj
 0002:00053940       ??$destroy@U?$pair@$$CBIPAU_PARTY_GROUP@@@std@@@?$allocator@U?$_Tree_node@U?$pair@$$CBIPAU_PARTY_GROUP@@@std@@PAX@std@@@std@@QAEXPAU?$pair@$$CBIPAU_PARTY_GROUP@@@1@@Z 005cf940 f i GameSocket.obj
 0002:00053980       ??$destroy@U?$pair@$$CBIPAU_PARTY_GROUP@@@std@@@?$allocator_traits@V?$allocator@U?$_Tree_node@U?$pair@$$CBIPAU_PARTY_GROUP@@@std@@PAX@std@@@std@@@std@@SAXAAV?$allocator@U?$_Tree_node@U?$pair@$$CBIPAU_PARTY_GROUP@@@std@@PAX@std@@@1@PAU?$pair@$$CBIPAU_PARTY_GROUP@@@1@@Z 005cf980 f i GameSocket.obj
 0002:000539d0       ??$emplace@U?$pair@EF@std@@@?$_Tree@V?$_Tmap_traits@EFU?$less@E@std@@V?$allocator@U?$pair@$$CBEF@std@@@2@$0A@@std@@@std@@QAE?AU?$pair@V?$_Tree_iterator@V?$_Tree_val@U?$_Tree_simple_types@U?$pair@$$CBEF@std@@@std@@@std@@@std@@_N@1@$$QAU?$pair@EF@1@@Z 005cf9d0 f i GameSocket.obj
 0002:00053a80       ??$emplace@U?$pair@IPAU_PARTY_GROUP@@@std@@@?$_Tree@V?$_Tmap_traits@IPAU_PARTY_GROUP@@U?$less@I@std@@V?$allocator@U?$pair@$$CBIPAU_PARTY_GROUP@@@std@@@3@$0A@@std@@@std@@QAE?AU?$pair@V?$_Tree_iterator@V?$_Tree_val@U?$_Tree_simple_types@U?$pair@$$CBIPAU_PARTY_GROUP@@@std@@@std@@@std@@@std@@_N@1@$$QAU?$pair@IPAU_PARTY_GROUP@@@1@@Z 005cfa80 f i GameSocket.obj
 0002:00053b30       ??$emplace_hint@ABUpiecewise_construct_t@std@@V?$tuple@ABE@2@V?$tuple@$$V@2@@?$_Tree@V?$_Tmap_traits@EV?$map@EFU?$less@E@std@@V?$allocator@U?$pair@$$CBEF@std@@@2@@std@@U?$less@E@2@V?$allocator@U?$pair@$$CBEV?$map@EFU?$less@E@std@@V?$allocator@U?$pair@$$CBEF@std@@@2@@std@@@std@@@2@$0A@@std@@@std@@QAE?AV?$_Tree_iterator@V?$_Tree_val@U?$_Tree_simple_types@U?$pair@$$CBEV?$map@EFU?$less@E@std@@V?$allocator@U?$pair@$$CBEF@std@@@2@@std@@@std@@@std@@@std@@@1@V?$_Tree_const_iterator@V?$_Tree_val@U?$_Tree_simple_types@U?$pair@$$CBEV?$map@EFU?$less@E@std@@V?$allocator@U?$pair@$$CBEF@std@@@2@@std@@@std@@@std@@@std@@@1@ABUpiecewise_construct_t@1@$$QAV?$tuple@ABE@1@$$QAV?$tuple@$$V@1@@Z 005cfb30 f i GameSocket.obj
 0002:00053c80       ??$forward@AAF@std@@YAAAFAAF@Z 005cfc80 f i GameSocket.obj
 0002:00053cc0       ??$forward@AAI@std@@YAAAIAAI@Z 005cfcc0 f i GameSocket.obj
 0002:00053d00       ??$forward@AAPAD@std@@YAAAPADAAPAD@Z 005cfd00 f i GameSocket.obj
 0002:00053d40       ??$forward@AAPAU?$_Tree_node@U?$pair@$$CBEF@std@@PAX@std@@@std@@YAAAPAU?$_Tree_node@U?$pair@$$CBEF@std@@PAX@0@AAPAU10@@Z 005cfd40 f i GameSocket.obj
 0002:00053d80       ??$forward@AAPAU?$_Tree_node@U?$pair@$$CBIPAU_PARTY_GROUP@@@std@@PAX@std@@@std@@YAAAPAU?$_Tree_node@U?$pair@$$CBIPAU_PARTY_GROUP@@@std@@PAX@0@AAPAU10@@Z 005cfd80 f i GameSocket.obj
 0002:00053dc0       ??$forward@AAPAU_PARTY_GROUP@@@std@@YAAAPAU_PARTY_GROUP@@AAPAU1@@Z 005cfdc0 f i GameSocket.obj
 0002:00053e00       ??$forward@AAU?$_Wrap_alloc@V?$allocator@D@std@@@std@@@std@@YAAAU?$_Wrap_alloc@V?$allocator@D@std@@@0@AAU10@@Z 005cfe00 f i GameSocket.obj
 0002:00053e40       ??$forward@AAU?$pair@$$CBEF@std@@@std@@YAAAU?$pair@$$CBEF@0@AAU10@@Z 005cfe40 f i GameSocket.obj
 0002:00053e80       ??$forward@AAU?$pair@$$CBEV?$map@EFU?$less@E@std@@V?$allocator@U?$pair@$$CBEF@std@@@2@@std@@@std@@@std@@YAAAU?$pair@$$CBEV?$map@EFU?$less@E@std@@V?$allocator@U?$pair@$$CBEF@std@@@2@@std@@@0@AAU10@@Z 005cfe80 f i GameSocket.obj
 0002:00053ec0       ??$forward@AAU?$pair@$$CBIPAU_PARTY_GROUP@@@std@@@std@@YAAAU?$pair@$$CBIPAU_PARTY_GROUP@@@0@AAU10@@Z 005cfec0 f i GameSocket.obj
 0002:00053f00       ??$forward@AAV?$_Tree_iterator@V?$_Tree_val@U?$_Tree_simple_types@U?$pair@$$CBEF@std@@@std@@@std@@@std@@@std@@YAAAV?$_Tree_iterator@V?$_Tree_val@U?$_Tree_simple_types@U?$pair@$$CBEF@std@@@std@@@std@@@0@AAV10@@Z 005cff00 f i GameSocket.obj
 0002:00053f40       ??$forward@AAV?$_Tree_iterator@V?$_Tree_val@U?$_Tree_simple_types@U?$pair@$$CBEV?$map@EFU?$less@E@std@@V?$allocator@U?$pair@$$CBEF@std@@@2@@std@@@std@@@std@@@std@@@std@@@std@@YAAAV?$_Tree_iterator@V?$_Tree_val@U?$_Tree_simple_types@U?$pair@$$CBEV?$map@EFU?$less@E@std@@V?$allocator@U?$pair@$$CBEF@std@@@2@@std@@@std@@@std@@@std@@@0@AAV10@@Z 005cff40 f i GameSocket.obj
 0002:00053f80       ??$forward@AAV?$_Tree_iterator@V?$_Tree_val@U?$_Tree_simple_types@U?$pair@$$CBIPAU_PARTY_GROUP@@@std@@@std@@@std@@@std@@@std@@YAAAV?$_Tree_iterator@V?$_Tree_val@U?$_Tree_simple_types@U?$pair@$$CBIPAU_PARTY_GROUP@@@std@@@std@@@std@@@0@AAV10@@Z 005cff80 f i GameSocket.obj
 0002:00053fc0       ??$forward@ABE@std@@YAABEABE@Z 005cffc0 f i GameSocket.obj
 0002:00054000       ??$forward@ABUpiecewise_construct_t@std@@@std@@YAABUpiecewise_construct_t@0@ABU10@@Z 005d0000 f i GameSocket.obj
 0002:00054040       ??$forward@F@std@@YA$$QAFAAF@Z 005d0040 f i GameSocket.obj
 0002:00054080       ??$forward@I@std@@YA$$QAIAAI@Z 005d0080 f i GameSocket.obj
 0002:000540c0       ??$forward@PAU_PARTY_GROUP@@@std@@YA$$QAPAU_PARTY_GROUP@@AAPAU1@@Z 005d00c0 f i GameSocket.obj
 0002:00054100       ??$forward@U?$pair@EF@std@@@std@@YA$$QAU?$pair@EF@0@AAU10@@Z 005d0100 f i GameSocket.obj
 0002:00054140       ??$forward@U?$pair@IPAU_PARTY_GROUP@@@std@@@std@@YA$$QAU?$pair@IPAU_PARTY_GROUP@@@0@AAU10@@Z 005d0140 f i GameSocket.obj
 0002:00054180       ??$forward@V?$_Tree_iterator@V?$_Tree_val@U?$_Tree_simple_types@U?$pair@$$CBEF@std@@@std@@@std@@@std@@@std@@YA$$QAV?$_Tree_iterator@V?$_Tree_val@U?$_Tree_simple_types@U?$pair@$$CBEF@std@@@std@@@std@@@0@AAV10@@Z 005d0180 f i GameSocket.obj
 0002:000541c0       ??$forward@V?$_Tree_iterator@V?$_Tree_val@U?$_Tree_simple_types@U?$pair@$$CBEV?$map@EFU?$less@E@std@@V?$allocator@U?$pair@$$CBEF@std@@@2@@std@@@std@@@std@@@std@@@std@@@std@@YA$$QAV?$_Tree_iterator@V?$_Tree_val@U?$_Tree_simple_types@U?$pair@$$CBEV?$map@EFU?$less@E@std@@V?$allocator@U?$pair@$$CBEF@std@@@2@@std@@@std@@@std@@@std@@@0@AAV10@@Z 005d01c0 f i GameSocket.obj
 0002:00054200       ??$forward@V?$_Tree_iterator@V?$_Tree_val@U?$_Tree_simple_types@U?$pair@$$CBIPAU_PARTY_GROUP@@@std@@@std@@@std@@@std@@@std@@YA$$QAV?$_Tree_iterator@V?$_Tree_val@U?$_Tree_simple_types@U?$pair@$$CBIPAU_PARTY_GROUP@@@std@@@std@@@std@@@0@AAV10@@Z 005d0200 f i GameSocket.obj
 0002:00054240       ??$forward@V?$tuple@$$V@std@@@std@@YA$$QAV?$tuple@$$V@0@AAV10@@Z 005d0240 f i GameSocket.obj
 0002:00054280       ??$forward@V?$tuple@ABE@std@@@std@@YA$$QAV?$tuple@ABE@0@AAV10@@Z 005d0280 f i GameSocket.obj
 0002:000542c0       ??$forward_as_tuple@$$V@std@@YA?AV?$tuple@$$V@0@XZ 005d02c0 f i GameSocket.obj
 0002:00054310       ??$forward_as_tuple@ABE@std@@YA?AV?$tuple@ABE@0@ABE@Z 005d0310 f i GameSocket.obj
 0002:000543b0       ??$get@$0A@ABE@std@@YAABE$$QAV?$tuple@ABE@0@@Z 005d03b0 f i GameSocket.obj
 0002:00054400       ??$insert@U?$pair@EF@std@@X@?$map@EFU?$less@E@std@@V?$allocator@U?$pair@$$CBEF@std@@@2@@std@@QAE?AU?$pair@V?$_Tree_iterator@V?$_Tree_val@U?$_Tree_simple_types@U?$pair@$$CBEF@std@@@std@@@std@@@std@@_N@1@$$QAU?$pair@EF@1@@Z 005d0400 f i GameSocket.obj
 0002:00054490       ??$insert@U?$pair@IPAU_PARTY_GROUP@@@std@@X@?$map@IPAU_PARTY_GROUP@@U?$less@I@std@@V?$allocator@U?$pair@$$CBIPAU_PARTY_GROUP@@@std@@@3@@std@@QAE?AU?$pair@V?$_Tree_iterator@V?$_Tree_val@U?$_Tree_simple_types@U?$pair@$$CBIPAU_PARTY_GROUP@@@std@@@std@@@std@@@std@@_N@1@$$QAU?$pair@IPAU_PARTY_GROUP@@@1@@Z 005d0490 f i GameSocket.obj
 0002:00054520       ??$make_pair@AAEAAF@std@@YA?AU?$pair@EF@0@AAEAAF@Z 005d0520 f i GameSocket.obj
 0002:00054590       ??$make_pair@AAIAAPAU_PARTY_GROUP@@@std@@YA?AU?$pair@IPAU_PARTY_GROUP@@@0@AAIAAPAU_PARTY_GROUP@@@Z 005d0590 f i GameSocket.obj
 0002:00054600       ??$move@AAV?$tuple@ABE@std@@@std@@YA$$QAV?$tuple@ABE@0@AAV10@@Z 005d0600 f i GameSocket.obj
 0002:00054640       ??$read@F@ByteBuffer@@QAEFXZ 005d0640 f i GameSocket.obj
 0002:000546c0       ??$read@F@ByteBuffer@@QBEFI@Z 005d06c0 f i GameSocket.obj
 0002:00054740       ??$read@H@ByteBuffer@@QAEHXZ 005d0740 f i GameSocket.obj
 0002:000547c0       ??$read@H@ByteBuffer@@QBEHI@Z 005d07c0 f i GameSocket.obj
 0002:00054840       ??$read@M@ByteBuffer@@QAEMXZ 005d0840 f i GameSocket.obj
 0002:000548c0       ??$read@M@ByteBuffer@@QBEMI@Z 005d08c0 f i GameSocket.obj
 0002:00054940       ??$try_emplace@$$V@?$map@EV?$map@EFU?$less@E@std@@V?$allocator@U?$pair@$$CBEF@std@@@2@@std@@U?$less@E@2@V?$allocator@U?$pair@$$CBEV?$map@EFU?$less@E@std@@V?$allocator@U?$pair@$$CBEF@std@@@2@@std@@@std@@@2@@std@@QAE?AU?$pair@V?$_Tree_iterator@V?$_Tree_val@U?$_Tree_simple_types@U?$pair@$$CBEV?$map@EFU?$less@E@std@@V?$allocator@U?$pair@$$CBEF@std@@@2@@std@@@std@@@std@@@std@@@std@@_N@1@ABE@Z 005d0940 f i GameSocket.obj
 0002:000549c0       ??0?$_Iterator012@Ubidirectional_iterator_tag@std@@U?$pair@$$CBIPAU_PARTY_GROUP@@@2@HPBU32@ABU32@U_Iterator_base12@2@@std@@QAE@$$QAU01@@Z 005d09c0 f i GameSocket.obj
 0002:00054a20       ??0?$_Iterator012@Ubidirectional_iterator_tag@std@@U?$pair@$$CBIPAU_PARTY_GROUP@@@2@HPBU32@ABU32@U_Iterator_base12@2@@std@@QAE@ABU01@@Z 005d0a20 f i GameSocket.obj
 0002:00054a80       ??0?$_Iterator012@Ubidirectional_iterator_tag@std@@U?$pair@$$CBIPAU_PARTY_GROUP@@@2@HPBU32@ABU32@U_Iterator_base12@2@@std@@QAE@XZ 005d0a80 f i GameSocket.obj
 0002:00054ae0       ??0?$_Iterator012@Ubidirectional_iterator_tag@std@@U?$pair@$$CBIPAVCNpc@@@2@HPBU32@ABU32@U_Iterator_base12@2@@std@@QAE@$$QAU01@@Z 005d0ae0 f i GameSocket.obj
 0002:00054b40       ??0?$_Iterator012@Ubidirectional_iterator_tag@std@@U?$pair@$$CBIPAVCNpc@@@2@HPBU32@ABU32@U_Iterator_base12@2@@std@@QAE@ABU01@@Z 005d0b40 f i GameSocket.obj
 0002:00054ba0       ??0?$_Iterator012@Ubidirectional_iterator_tag@std@@U?$pair@$$CBIPAVCNpc@@@2@HPBU32@ABU32@U_Iterator_base12@2@@std@@QAE@XZ 005d0ba0 f i GameSocket.obj
 0002:00054c00       ??0?$_String_alloc@U?$_String_base_types@DV?$allocator@D@std@@@std@@@std@@QAE@XZ 005d0c00 f i GameSocket.obj
 0002:00054cb0       ??0?$_String_val@U?$_Simple_types@D@std@@@std@@QAE@XZ 005d0cb0 f i GameSocket.obj
 0002:00054d20       ??0?$_Tree@V?$_Tmap_traits@EFU?$less@E@std@@V?$allocator@U?$pair@$$CBEF@std@@@2@$0A@@std@@@std@@QAE@ABU?$less@E@1@@Z 005d0d20 f i GameSocket.obj
 0002:00054d80       ??0?$_Tree_comp_alloc@V?$_Tmap_traits@EFU?$less@E@std@@V?$allocator@U?$pair@$$CBEF@std@@@2@$0A@@std@@@std@@QAE@ABU?$less@E@1@@Z 005d0d80 f i GameSocket.obj
 0002:00054e40       ??0?$_Tree_const_iterator@V?$_Tree_val@U?$_Tree_simple_types@U?$pair@$$CBEV?$map@EFU?$less@E@std@@V?$allocator@U?$pair@$$CBEF@std@@@2@@std@@@std@@@std@@@std@@@std@@QAE@XZ 005d0e40 f i GameSocket.obj
 0002:00054ea0       ??0?$_Tree_const_iterator@V?$_Tree_val@U?$_Tree_simple_types@U?$pair@$$CBIPAU_PARTY_GROUP@@@std@@@std@@@std@@@std@@QAE@$$QAV01@@Z 005d0ea0 f i GameSocket.obj
 0002:00054f00       ??0?$_Tree_const_iterator@V?$_Tree_val@U?$_Tree_simple_types@U?$pair@$$CBIPAU_PARTY_GROUP@@@std@@@std@@@std@@@std@@QAE@ABV01@@Z 005d0f00 f i GameSocket.obj
 0002:00054f60       ??0?$_Tree_const_iterator@V?$_Tree_val@U?$_Tree_simple_types@U?$pair@$$CBIPAU_PARTY_GROUP@@@std@@@std@@@std@@@std@@QAE@PAU?$_Tree_node@U?$pair@$$CBIPAU_PARTY_GROUP@@@std@@PAX@1@PBV?$_Tree_val@U?$_Tree_simple_types@U?$pair@$$CBIPAU_PARTY_GROUP@@@std@@@std@@@1@@Z 005d0f60 f i GameSocket.obj
 0002:00054fc0       ??0?$_Tree_const_iterator@V?$_Tree_val@U?$_Tree_simple_types@U?$pair@$$CBIPAVCNpc@@@std@@@std@@@std@@@std@@QAE@$$QAV01@@Z 005d0fc0 f i GameSocket.obj
 0002:00055020       ??0?$_Tree_const_iterator@V?$_Tree_val@U?$_Tree_simple_types@U?$pair@$$CBIPAVCNpc@@@std@@@std@@@std@@@std@@QAE@ABV01@@Z 005d1020 f i GameSocket.obj
 0002:00055080       ??0?$_Tree_const_iterator@V?$_Tree_val@U?$_Tree_simple_types@U?$pair@$$CBIPAVCNpc@@@std@@@std@@@std@@@std@@QAE@PAU?$_Tree_node@U?$pair@$$CBIPAVCNpc@@@std@@PAX@1@PBV?$_Tree_val@U?$_Tree_simple_types@U?$pair@$$CBIPAVCNpc@@@std@@@std@@@1@@Z 005d1080 f i GameSocket.obj
 0002:000550e0       ??0?$_Tree_iterator@V?$_Tree_val@U?$_Tree_simple_types@U?$pair@$$CBIPAU_PARTY_GROUP@@@std@@@std@@@std@@@std@@QAE@$$QAV01@@Z 005d10e0 f i GameSocket.obj
 0002:00055140       ??0?$_Tree_iterator@V?$_Tree_val@U?$_Tree_simple_types@U?$pair@$$CBIPAU_PARTY_GROUP@@@std@@@std@@@std@@@std@@QAE@ABV01@@Z 005d1140 f i GameSocket.obj
 0002:000551a0       ??0?$_Tree_iterator@V?$_Tree_val@U?$_Tree_simple_types@U?$pair@$$CBIPAU_PARTY_GROUP@@@std@@@std@@@std@@@std@@QAE@PAU?$_Tree_node@U?$pair@$$CBIPAU_PARTY_GROUP@@@std@@PAX@1@PBV?$_Tree_val@U?$_Tree_simple_types@U?$pair@$$CBIPAU_PARTY_GROUP@@@std@@@std@@@1@@Z 005d11a0 f i GameSocket.obj
 0002:00055200       ??0?$_Tree_iterator@V?$_Tree_val@U?$_Tree_simple_types@U?$pair@$$CBIPAVCNpc@@@std@@@std@@@std@@@std@@QAE@$$QAV01@@Z 005d1200 f i GameSocket.obj
 0002:00055260       ??0?$_Tree_iterator@V?$_Tree_val@U?$_Tree_simple_types@U?$pair@$$CBIPAVCNpc@@@std@@@std@@@std@@@std@@QAE@ABV01@@Z 005d1260 f i GameSocket.obj
 0002:000552c0       ??0?$_Tree_iterator@V?$_Tree_val@U?$_Tree_simple_types@U?$pair@$$CBIPAVCNpc@@@std@@@std@@@std@@@std@@QAE@PAU?$_Tree_node@U?$pair@$$CBIPAVCNpc@@@std@@PAX@1@PBV?$_Tree_val@U?$_Tree_simple_types@U?$pair@$$CBIPAVCNpc@@@std@@@std@@@1@@Z 005d12c0 f i GameSocket.obj
 0002:00055320       ??0?$_Tree_unchecked_const_iterator@V?$_Tree_val@U?$_Tree_simple_types@U?$pair@$$CBEV?$map@EFU?$less@E@std@@V?$allocator@U?$pair@$$CBEF@std@@@2@@std@@@std@@@std@@@std@@U_Iterator_base12@2@@std@@QAE@XZ 005d1320 f i GameSocket.obj
 0002:00055380       ??0?$_Tree_unchecked_const_iterator@V?$_Tree_val@U?$_Tree_simple_types@U?$pair@$$CBIPAU_PARTY_GROUP@@@std@@@std@@@std@@U_Iterator_base12@2@@std@@QAE@$$QAV01@@Z 005d1380 f i GameSocket.obj
 0002:000553f0       ??0?$_Tree_unchecked_const_iterator@V?$_Tree_val@U?$_Tree_simple_types@U?$pair@$$CBIPAU_PARTY_GROUP@@@std@@@std@@@std@@U_Iterator_base12@2@@std@@QAE@ABV01@@Z 005d13f0 f i GameSocket.obj
 0002:00055460       ??0?$_Tree_unchecked_const_iterator@V?$_Tree_val@U?$_Tree_simple_types@U?$pair@$$CBIPAU_PARTY_GROUP@@@std@@@std@@@std@@U_Iterator_base12@2@@std@@QAE@PAU?$_Tree_node@U?$pair@$$CBIPAU_PARTY_GROUP@@@std@@PAX@1@PBV?$_Tree_val@U?$_Tree_simple_types@U?$pair@$$CBIPAU_PARTY_GROUP@@@std@@@std@@@1@@Z 005d1460 f i GameSocket.obj
 0002:00055520       ??0?$_Tree_unchecked_const_iterator@V?$_Tree_val@U?$_Tree_simple_types@U?$pair@$$CBIPAVCNpc@@@std@@@std@@@std@@U_Iterator_base12@2@@std@@QAE@$$QAV01@@Z 005d1520 f i GameSocket.obj
 0002:00055590       ??0?$_Tree_unchecked_const_iterator@V?$_Tree_val@U?$_Tree_simple_types@U?$pair@$$CBIPAVCNpc@@@std@@@std@@@std@@U_Iterator_base12@2@@std@@QAE@ABV01@@Z 005d1590 f i GameSocket.obj
 0002:00055600       ??0?$_Tree_unchecked_const_iterator@V?$_Tree_val@U?$_Tree_simple_types@U?$pair@$$CBIPAVCNpc@@@std@@@std@@@std@@U_Iterator_base12@2@@std@@QAE@PAU?$_Tree_node@U?$pair@$$CBIPAVCNpc@@@std@@PAX@1@PBV?$_Tree_val@U?$_Tree_simple_types@U?$pair@$$CBIPAVCNpc@@@std@@@std@@@1@@Z 005d1600 f i GameSocket.obj
 0002:000556c0       ??0?$_Tree_val@U?$_Tree_simple_types@U?$pair@$$CBEF@std@@@std@@@std@@QAE@XZ 005d16c0 f i GameSocket.obj
 0002:00055730       ??0?$_Wrap_alloc@V?$allocator@D@std@@@std@@QAE@XZ 005d1730 f i GameSocket.obj
 0002:00055790       ??0?$_Wrap_alloc@V?$allocator@U?$_Tree_node@U?$pair@$$CBEF@std@@PAX@std@@@std@@@std@@QAE@XZ 005d1790 f i GameSocket.obj
 0002:000557f0       ??0?$allocator@D@std@@QAE@XZ 005d17f0 f i GameSocket.obj
 0002:00055830       ??0?$allocator@U?$_Tree_node@U?$pair@$$CBEF@std@@PAX@std@@@std@@QAE@XZ 005d1830 f i GameSocket.obj
 0002:00055870       ??0?$basic_string@DU?$char_traits@D@std@@V?$allocator@D@2@@std@@QAE@XZ 005d1870 f i GameSocket.obj
 0002:00055910       ??0?$map@EFU?$less@E@std@@V?$allocator@U?$pair@$$CBEF@std@@@2@@std@@QAE@XZ 005d1910 f i GameSocket.obj
 0002:00055970       ??0?$tuple@$$V@std@@QAE@ABV01@@Z 005d1970 f i GameSocket.obj
 0002:000559b0       ??0?$tuple@$$V@std@@QAE@XZ 005d19b0 f i GameSocket.obj
 0002:000559f0       ??0?$tuple@ABE@std@@QAE@$$QAV01@@Z 005d19f0 f i GameSocket.obj
 0002:00055a60       ??0_PARTY_GROUP@@QAE@XZ    005d1a60 f i GameSocket.obj
 0002:00055ad0       ??1?$_Compressed_pair@U?$_Wrap_alloc@V?$allocator@D@std@@@std@@V?$_String_val@U?$_Simple_types@D@std@@@2@$00@std@@QAE@XZ 005d1ad0 f i GameSocket.obj
 0002:00055b20       ??1?$_Iterator012@Ubidirectional_iterator_tag@std@@U?$pair@$$CBIPAU_PARTY_GROUP@@@2@HPBU32@ABU32@U_Iterator_base12@2@@std@@QAE@XZ 005d1b20 f i GameSocket.obj
 0002:00055b70       ??1?$_Iterator012@Ubidirectional_iterator_tag@std@@U?$pair@$$CBIPAVCNpc@@@2@HPBU32@ABU32@U_Iterator_base12@2@@std@@QAE@XZ 005d1b70 f i GameSocket.obj
 0002:00055bc0       ??1?$_String_alloc@U?$_String_base_types@DV?$allocator@D@std@@@std@@@std@@QAE@XZ 005d1bc0 f i GameSocket.obj
 0002:00055c50       ??1?$_String_val@U?$_Simple_types@D@std@@@std@@QAE@XZ 005d1c50 f i GameSocket.obj
 0002:00055ca0       ??1?$_Tree_const_iterator@V?$_Tree_val@U?$_Tree_simple_types@U?$pair@$$CBIPAU_PARTY_GROUP@@@std@@@std@@@std@@@std@@QAE@XZ 005d1ca0 f i GameSocket.obj
 0002:00055cf0       ??1?$_Tree_const_iterator@V?$_Tree_val@U?$_Tree_simple_types@U?$pair@$$CBIPAVCNpc@@@std@@@std@@@std@@@std@@QAE@XZ 005d1cf0 f i GameSocket.obj
 0002:00055d40       ??1?$_Tree_iterator@V?$_Tree_val@U?$_Tree_simple_types@U?$pair@$$CBIPAU_PARTY_GROUP@@@std@@@std@@@std@@@std@@QAE@XZ 005d1d40 f i GameSocket.obj
 0002:00055d90       ??1?$_Tree_iterator@V?$_Tree_val@U?$_Tree_simple_types@U?$pair@$$CBIPAVCNpc@@@std@@@std@@@std@@@std@@QAE@XZ 005d1d90 f i GameSocket.obj
 0002:00055de0       ??1?$_Tree_unchecked_const_iterator@V?$_Tree_val@U?$_Tree_simple_types@U?$pair@$$CBIPAU_PARTY_GROUP@@@std@@@std@@@std@@U_Iterator_base12@2@@std@@QAE@XZ 005d1de0 f i GameSocket.obj
 0002:00055e30       ??1?$_Tree_unchecked_const_iterator@V?$_Tree_val@U?$_Tree_simple_types@U?$pair@$$CBIPAVCNpc@@@std@@@std@@@std@@U_Iterator_base12@2@@std@@QAE@XZ 005d1e30 f i GameSocket.obj
 0002:00055e80       ??1?$basic_string@DU?$char_traits@D@std@@V?$allocator@D@2@@std@@QAE@XZ 005d1e80 f i GameSocket.obj
 0002:00055f20       ??1?$pair@V?$_Tree_iterator@V?$_Tree_val@U?$_Tree_simple_types@U?$pair@$$CBEF@std@@@std@@@std@@@std@@_N@std@@QAE@XZ 005d1f20 f i GameSocket.obj
 0002:00055f70       ??1?$pair@V?$_Tree_iterator@V?$_Tree_val@U?$_Tree_simple_types@U?$pair@$$CBEV?$map@EFU?$less@E@std@@V?$allocator@U?$pair@$$CBEF@std@@@2@@std@@@std@@@std@@@std@@@std@@_N@std@@QAE@XZ 005d1f70 f i GameSocket.obj
 0002:00055fc0       ??1?$pair@V?$_Tree_iterator@V?$_Tree_val@U?$_Tree_simple_types@U?$pair@$$CBIPAU_PARTY_GROUP@@@std@@@std@@@std@@@std@@_N@std@@QAE@XZ 005d1fc0 f i GameSocket.obj
 0002:00056010       ??1CGameSocket@@UAE@XZ     005d2010 f   GameSocket.obj
 0002:00056080       ??1KOSocket@@UAE@XZ        005d2080 f i GameSocket.obj
 0002:000560d0       ??3@YAXPAX0@Z              005d20d0 f i GameSocket.obj
 0002:00056100       ??4?$_Iterator012@Ubidirectional_iterator_tag@std@@U?$pair@$$CBEV?$map@EFU?$less@E@std@@V?$allocator@U?$pair@$$CBEF@std@@@2@@std@@@2@HPBU32@ABU32@U_Iterator_base12@2@@std@@QAEAAU01@ABU01@@Z 005d2100 f i GameSocket.obj
 0002:00056160       ??4?$_Tree@V?$_Tmap_traits@EFU?$less@E@std@@V?$allocator@U?$pair@$$CBEF@std@@@2@$0A@@std@@@std@@QAEAAV01@ABV01@@Z 005d2160 f i GameSocket.obj
 0002:00056230       ??4?$_Tree_const_iterator@V?$_Tree_val@U?$_Tree_simple_types@U?$pair@$$CBEV?$map@EFU?$less@E@std@@V?$allocator@U?$pair@$$CBEF@std@@@2@@std@@@std@@@std@@@std@@@std@@QAEAAV01@ABV01@@Z 005d2230 f i GameSocket.obj
 0002:00056290       ??4?$_Tree_unchecked_const_iterator@V?$_Tree_val@U?$_Tree_simple_types@U?$pair@$$CBEV?$map@EFU?$less@E@std@@V?$allocator@U?$pair@$$CBEF@std@@@2@@std@@@std@@@std@@@std@@U_Iterator_base12@2@@std@@QAEAAV01@ABV01@@Z 005d2290 f i GameSocket.obj
 0002:00056300       ??4?$map@EFU?$less@E@std@@V?$allocator@U?$pair@$$CBEF@std@@@2@@std@@QAEAAV01@ABV01@@Z 005d2300 f i GameSocket.obj
 0002:00056360       ??5ByteBuffer@@QAEAAV0@AAF@Z 005d2360 f i GameSocket.obj
 0002:000563c0       ??5ByteBuffer@@QAEAAV0@AAH@Z 005d23c0 f i GameSocket.obj
 0002:00056420       ??5ByteBuffer@@QAEAAV0@AAM@Z 005d2420 f i GameSocket.obj
 0002:00056480       ??5ByteBuffer@@QAEAAV0@AAV?$basic_string@DU?$char_traits@D@std@@V?$allocator@D@2@@std@@@Z 005d2480 f i GameSocket.obj
 0002:00056570       ??8?$_Tree_const_iterator@V?$_Tree_val@U?$_Tree_simple_types@U?$pair@$$CBIPAU_PARTY_GROUP@@@std@@@std@@@std@@@std@@QBE_NABV01@@Z 005d2570 f i GameSocket.obj
 0002:00056690       ??8?$_Tree_const_iterator@V?$_Tree_val@U?$_Tree_simple_types@U?$pair@$$CBIPAVCNpc@@@std@@@std@@@std@@@std@@QBE_NABV01@@Z 005d2690 f i GameSocket.obj
 0002:000567b0       ??9?$_Tree_const_iterator@V?$_Tree_val@U?$_Tree_simple_types@U?$pair@$$CBIPAVCNpc@@@std@@@std@@@std@@@std@@QBE_NABV01@@Z 005d27b0 f i GameSocket.obj
 0002:00056840       ??A?$map@EV?$map@EFU?$less@E@std@@V?$allocator@U?$pair@$$CBEF@std@@@2@@std@@U?$less@E@2@V?$allocator@U?$pair@$$CBEV?$map@EFU?$less@E@std@@V?$allocator@U?$pair@$$CBEF@std@@@2@@std@@@std@@@2@@std@@QAEAAV?$map@EFU?$less@E@std@@V?$allocator@U?$pair@$$CBEF@std@@@2@@1@ABE@Z 005d2840 f i GameSocket.obj
 0002:00056930       ??C?$_Tree_iterator@V?$_Tree_val@U?$_Tree_simple_types@U?$pair@$$CBIPAVCNpc@@@std@@@std@@@std@@@std@@QBEPAU?$pair@$$CBIPAVCNpc@@@1@XZ 005d2930 f i GameSocket.obj
 0002:00056990       ??D?$_Tree_const_iterator@V?$_Tree_val@U?$_Tree_simple_types@U?$pair@$$CBIPAVCNpc@@@std@@@std@@@std@@@std@@QBEABU?$pair@$$CBIPAVCNpc@@@1@XZ 005d2990 f i GameSocket.obj
 0002:00056aa0       ??D?$_Tree_iterator@V?$_Tree_val@U?$_Tree_simple_types@U?$pair@$$CBIPAVCNpc@@@std@@@std@@@std@@@std@@QBEAAU?$pair@$$CBIPAVCNpc@@@1@XZ 005d2aa0 f i GameSocket.obj
 0002:00056af0       ??E?$_Tree_const_iterator@V?$_Tree_val@U?$_Tree_simple_types@U?$pair@$$CBIPAVCNpc@@@std@@@std@@@std@@@std@@QAEAAV01@XZ 005d2af0 f i GameSocket.obj
 0002:00056c00       ??E?$_Tree_iterator@V?$_Tree_val@U?$_Tree_simple_types@U?$pair@$$CBIPAVCNpc@@@std@@@std@@@std@@@std@@QAE?AV01@H@Z 005d2c00 f i GameSocket.obj
 0002:00056d20       ??E?$_Tree_iterator@V?$_Tree_val@U?$_Tree_simple_types@U?$pair@$$CBIPAVCNpc@@@std@@@std@@@std@@@std@@QAEAAV01@XZ 005d2d20 f i GameSocket.obj
 0002:00056d80       ??E?$_Tree_unchecked_const_iterator@V?$_Tree_val@U?$_Tree_simple_types@U?$pair@$$CBIPAVCNpc@@@std@@@std@@@std@@U_Iterator_base12@2@@std@@QAEAAV01@XZ 005d2d80 f i GameSocket.obj
 0002:00056eb0       ??F?$_Tree_const_iterator@V?$_Tree_val@U?$_Tree_simple_types@U?$pair@$$CBEF@std@@@std@@@std@@@std@@QAEAAV01@XZ 005d2eb0 f i GameSocket.obj
 0002:00057040       ??F?$_Tree_const_iterator@V?$_Tree_val@U?$_Tree_simple_types@U?$pair@$$CBEV?$map@EFU?$less@E@std@@V?$allocator@U?$pair@$$CBEF@std@@@2@@std@@@std@@@std@@@std@@@std@@QAEAAV01@XZ 005d3040 f i GameSocket.obj
 0002:000571d0       ??F?$_Tree_const_iterator@V?$_Tree_val@U?$_Tree_simple_types@U?$pair@$$CBIPAU_PARTY_GROUP@@@std@@@std@@@std@@@std@@QAEAAV01@XZ 005d31d0 f i GameSocket.obj
 0002:00057360       ??F?$_Tree_iterator@V?$_Tree_val@U?$_Tree_simple_types@U?$pair@$$CBEF@std@@@std@@@std@@@std@@QAEAAV01@XZ 005d3360 f i GameSocket.obj
 0002:000573c0       ??F?$_Tree_iterator@V?$_Tree_val@U?$_Tree_simple_types@U?$pair@$$CBEV?$map@EFU?$less@E@std@@V?$allocator@U?$pair@$$CBEF@std@@@2@@std@@@std@@@std@@@std@@@std@@QAEAAV01@XZ 005d33c0 f i GameSocket.obj
 0002:00057420       ??F?$_Tree_iterator@V?$_Tree_val@U?$_Tree_simple_types@U?$pair@$$CBIPAU_PARTY_GROUP@@@std@@@std@@@std@@@std@@QAEAAV01@XZ 005d3420 f i GameSocket.obj
 0002:00057480       ??F?$_Tree_unchecked_const_iterator@V?$_Tree_val@U?$_Tree_simple_types@U?$pair@$$CBEF@std@@@std@@@std@@U_Iterator_base12@2@@std@@QAEAAV01@XZ 005d3480 f i GameSocket.obj
 0002:000575e0       ??F?$_Tree_unchecked_const_iterator@V?$_Tree_val@U?$_Tree_simple_types@U?$pair@$$CBEV?$map@EFU?$less@E@std@@V?$allocator@U?$pair@$$CBEF@std@@@2@@std@@@std@@@std@@@std@@U_Iterator_base12@2@@std@@QAEAAV01@XZ 005d35e0 f i GameSocket.obj
 0002:00057740       ??F?$_Tree_unchecked_const_iterator@V?$_Tree_val@U?$_Tree_simple_types@U?$pair@$$CBIPAU_PARTY_GROUP@@@std@@@std@@@std@@U_Iterator_base12@2@@std@@QAEAAV01@XZ 005d3740 f i GameSocket.obj
 0002:000578a0       ??_ECGameSocket@@UAEPAXI@Z 005d38a0 f i GameSocket.obj
 0002:000578a0       ??_GCGameSocket@@UAEPAXI@Z 005d38a0 f i GameSocket.obj
 0002:00057920       ?GetOpcode@Packet@@QBEEXZ  005d3920 f i GameSocket.obj
 0002:00057960       ?GetSocketID@KOSocket@@QAEGXZ 005d3960 f i GameSocket.obj
 0002:000579b0       ?HandlePacket@CGameSocket@@UAE_NAAVPacket@@@Z 005d39b0 f   GameSocket.obj
 0002:00057d10       ?Initialize@CGameSocket@@QAEXXZ 005d3d10 f   GameSocket.obj
 0002:00057d70       ?OnConnect@CGameSocket@@UAEXXZ 005d3d70 f   GameSocket.obj
 0002:00057dd0       ?OnDisconnect@CGameSocket@@UAEXXZ 005d3dd0 f   GameSocket.obj
 0002:00057ef0       ?PutData@?$CSTLMap@U_PARTY_GROUP@@@@QAE_NIPAU_PARTY_GROUP@@@Z 005d3ef0 f i GameSocket.obj
 0002:00058040       ?ReadUserInfo@CGameSocket@@QAEXAAVPacket@@PAVCUser@@@Z 005d4040 f   GameSocket.obj
 0002:00058450       ?RecvBattleEvent@CGameSocket@@QAEXAAVPacket@@@Z 005d4450 f   GameSocket.obj
 0002:00058710       ?RecvGateOpen@CGameSocket@@QAEXAAVPacket@@@Z 005d4710 f   GameSocket.obj
 0002:00058870       ?RecvHealMagic@CGameSocket@@QAEXAAVPacket@@@Z 005d4870 f   GameSocket.obj
 0002:00058920       ?RecvNpcHpChange@CGameSocket@@QAEXAAVPacket@@@Z 005d4920 f   GameSocket.obj
 0002:00058af0       ?RecvNpcKillRequest@CGameSocket@@QAEXAAVPacket@@@Z 005d4af0 f   GameSocket.obj
 0002:00058d70       ?RecvNpcSpawnRequest@CGameSocket@@QAEXAAVPacket@@@Z 005d4d70 f   GameSocket.obj
 0002:00059110       ?RecvNpcUpdate@CGameSocket@@QAEXAAVPacket@@@Z 005d5110 f   GameSocket.obj
 0002:00059250       ?RecvPartyInfoAllData@CGameSocket@@QAEXAAVPacket@@@Z 005d5250 f   GameSocket.obj
 0002:00059400       ?RecvServerConnect@CGameSocket@@QAEXAAVPacket@@@Z 005d5400 f   GameSocket.obj
 0002:00059670       ?RecvTimeAndWeather@CGameSocket@@QAEXAAVPacket@@@Z 005d5670 f   GameSocket.obj
 0002:000597c0       ?RecvUserInOut@CGameSocket@@QAEXAAVPacket@@@Z 005d57c0 f   GameSocket.obj
 0002:00059d00       ?RecvUserInfo@CGameSocket@@QAEXAAVPacket@@@Z 005d5d00 f   GameSocket.obj
 0002:0005a010       ?RecvUserInfoAllData@CGameSocket@@QAEXAAVPacket@@@Z 005d6010 f   GameSocket.obj
 0002:0005a0a0       ?RecvUserLogOut@CGameSocket@@QAEXAAVPacket@@@Z 005d60a0 f   GameSocket.obj
 0002:0005a200       ?RecvUserMove@CGameSocket@@QAEXAAVPacket@@@Z 005d6200 f   GameSocket.obj
 0002:0005a350       ?RecvUserRegene@CGameSocket@@QAEXAAVPacket@@@Z 005d6350 f   GameSocket.obj
 0002:0005a4a0       ?RecvUserSetHP@CGameSocket@@QAEXAAVPacket@@@Z 005d64a0 f   GameSocket.obj
 0002:0005a5f0       ?RecvUserUpdate@CGameSocket@@QAEXAAVPacket@@@Z 005d65f0 f   GameSocket.obj
 0002:0005a680       ?RecvUserVisibility@CGameSocket@@QAEXAAVPacket@@@Z 005d6680 f   GameSocket.obj
 0002:0005a770       ?RecvZoneChange@CGameSocket@@QAEXAAVPacket@@@Z 005d6770 f   GameSocket.obj
 0002:0005a880       ?SByte@ByteBuffer@@QAEXXZ  005d6880 f i GameSocket.obj
 0002:0005a8c0       ?SetUid@CGameSocket@@QAE_NMMHH@Z 005d68c0 f   GameSocket.obj
 0002:0005ac40       ?_Alloc_proxy@?$_String_alloc@U?$_String_base_types@DV?$allocator@D@std@@@std@@@std@@QAEXXZ 005d6c40 f i GameSocket.obj
 0002:0005ad40       ?_Alloc_proxy@?$_Tree_comp_alloc@V?$_Tmap_traits@EFU?$less@E@std@@V?$allocator@U?$pair@$$CBEF@std@@@2@$0A@@std@@@std@@QAEXXZ 005d6d40 f i GameSocket.obj
 0002:0005ae40       ?_Buyheadnode@?$_Tree_comp_alloc@V?$_Tmap_traits@EFU?$less@E@std@@V?$allocator@U?$pair@$$CBEF@std@@@2@$0A@@std@@@std@@QAEPAU?$_Tree_node@U?$pair@$$CBEF@std@@PAX@2@XZ 005d6e40 f i GameSocket.obj
 0002:0005b050       ?_Buynode0@?$_Tree_comp_alloc@V?$_Tmap_traits@EFU?$less@E@std@@V?$allocator@U?$pair@$$CBEF@std@@@2@$0A@@std@@@std@@QAEPAU?$_Tree_node@U?$pair@$$CBEF@std@@PAX@2@XZ 005d7050 f i GameSocket.obj
 0002:0005b210       ?_Buynode0@?$_Tree_comp_alloc@V?$_Tmap_traits@EV?$map@EFU?$less@E@std@@V?$allocator@U?$pair@$$CBEF@std@@@2@@std@@U?$less@E@2@V?$allocator@U?$pair@$$CBEV?$map@EFU?$less@E@std@@V?$allocator@U?$pair@$$CBEF@std@@@2@@std@@@std@@@2@$0A@@std@@@std@@QAEPAU?$_Tree_node@U?$pair@$$CBEV?$map@EFU?$less@E@std@@V?$allocator@U?$pair@$$CBEF@std@@@2@@std@@@std@@PAX@2@XZ 005d7210 f i GameSocket.obj
 0002:0005b3d0       ?_Buynode0@?$_Tree_comp_alloc@V?$_Tmap_traits@IPAU_PARTY_GROUP@@U?$less@I@std@@V?$allocator@U?$pair@$$CBIPAU_PARTY_GROUP@@@std@@@3@$0A@@std@@@std@@QAEPAU?$_Tree_node@U?$pair@$$CBIPAU_PARTY_GROUP@@@std@@PAX@2@XZ 005d73d0 f i GameSocket.obj
 0002:0005b590       ?_Bx@?$_String_alloc@U?$_String_base_types@DV?$allocator@D@std@@@std@@@std@@QAEAAT_Bxty@?$_String_val@U?$_Simple_types@D@std@@@2@XZ 005d7590 f i GameSocket.obj
 0002:0005b5f0       ?_Chassign@?$basic_string@DU?$char_traits@D@std@@V?$allocator@D@2@@std@@QAEXIID@Z 005d75f0 f i GameSocket.obj
 0002:0005b690       ?_Color@?$_Tree_comp_alloc@V?$_Tmap_traits@IPAU_PARTY_GROUP@@U?$less@I@std@@V?$allocator@U?$pair@$$CBIPAU_PARTY_GROUP@@@std@@@3@$0A@@std@@@std@@SAAADPAU?$_Tree_node@U?$pair@$$CBIPAU_PARTY_GROUP@@@std@@PAX@2@@Z 005d7690 f i GameSocket.obj
 0002:0005b6e0       ?_Color@?$_Tree_val@U?$_Tree_simple_types@U?$pair@$$CBIPAU_PARTY_GROUP@@@std@@@std@@@std@@SAAADPAU?$_Tree_node@U?$pair@$$CBIPAU_PARTY_GROUP@@@std@@PAX@2@@Z 005d76e0 f i GameSocket.obj
 0002:0005b720       ?_Compare@?$_Tree@V?$_Tmap_traits@EV?$map@EFU?$less@E@std@@V?$allocator@U?$pair@$$CBEF@std@@@2@@std@@U?$less@E@2@V?$allocator@U?$pair@$$CBEV?$map@EFU?$less@E@std@@V?$allocator@U?$pair@$$CBEF@std@@@2@@std@@@std@@@2@$0A@@std@@@std@@IBE_NABE0@Z 005d7720 f i GameSocket.obj
 0002:0005b7a0       ?_Construct@?$_Tree_comp_alloc@V?$_Tmap_traits@EFU?$less@E@std@@V?$allocator@U?$pair@$$CBEF@std@@@2@$0A@@std@@@std@@QAEXXZ 005d77a0 f i GameSocket.obj
 0002:0005b890       ?_Copy@?$basic_string@DU?$char_traits@D@std@@V?$allocator@D@2@@std@@QAEXII@Z 005d7890 f i GameSocket.obj
 0002:0005bb40       ?_Copy_alloc@?$_Tree_comp_alloc@V?$_Tmap_traits@EFU?$less@E@std@@V?$allocator@U?$pair@$$CBEF@std@@@2@$0A@@std@@@std@@QAEXABU?$_Wrap_alloc@V?$allocator@U?$_Tree_node@U?$pair@$$CBEF@std@@PAX@std@@@std@@@2@@Z 005d7b40 f i GameSocket.obj
 0002:0005bbc0       ?_Destroy_if_not_nil@?$_Tree@V?$_Tmap_traits@EFU?$less@E@std@@V?$allocator@U?$pair@$$CBEF@std@@@2@$0A@@std@@@std@@IAEXPAU?$_Tree_node@U?$pair@$$CBEF@std@@PAX@2@@Z 005d7bc0 f i GameSocket.obj
 0002:0005bc50       ?_Destroy_if_not_nil@?$_Tree@V?$_Tmap_traits@EV?$map@EFU?$less@E@std@@V?$allocator@U?$pair@$$CBEF@std@@@2@@std@@U?$less@E@2@V?$allocator@U?$pair@$$CBEV?$map@EFU?$less@E@std@@V?$allocator@U?$pair@$$CBEF@std@@@2@@std@@@std@@@2@$0A@@std@@@std@@IAEXPAU?$_Tree_node@U?$pair@$$CBEV?$map@EFU?$less@E@std@@V?$allocator@U?$pair@$$CBEF@std@@@2@@std@@@std@@PAX@2@@Z 005d7c50 f i GameSocket.obj
 0002:0005bce0       ?_Destroy_if_not_nil@?$_Tree@V?$_Tmap_traits@IPAU_PARTY_GROUP@@U?$less@I@std@@V?$allocator@U?$pair@$$CBIPAU_PARTY_GROUP@@@std@@@3@$0A@@std@@@std@@IAEXPAU?$_Tree_node@U?$pair@$$CBIPAU_PARTY_GROUP@@@std@@PAX@2@@Z 005d7ce0 f i GameSocket.obj
 0002:0005bd70       ?_Eos@?$basic_string@DU?$char_traits@D@std@@V?$allocator@D@2@@std@@QAEXI@Z 005d7d70 f i GameSocket.obj
 0002:0005be00       ?_Free_proxy@?$_String_alloc@U?$_String_base_types@DV?$allocator@D@std@@@std@@@std@@QAEXXZ 005d7e00 f i GameSocket.obj
 0002:0005bef0       ?_Freenode0@?$_Tree_comp_alloc@V?$_Tmap_traits@EFU?$less@E@std@@V?$allocator@U?$pair@$$CBEF@std@@@2@$0A@@std@@@std@@QAEXPAU?$_Tree_node@U?$pair@$$CBEF@std@@PAX@2@@Z 005d7ef0 f i GameSocket.obj
 0002:0005bfe0       ?_Freenode0@?$_Tree_comp_alloc@V?$_Tmap_traits@EV?$map@EFU?$less@E@std@@V?$allocator@U?$pair@$$CBEF@std@@@2@@std@@U?$less@E@2@V?$allocator@U?$pair@$$CBEV?$map@EFU?$less@E@std@@V?$allocator@U?$pair@$$CBEF@std@@@2@@std@@@std@@@2@$0A@@std@@@std@@QAEXPAU?$_Tree_node@U?$pair@$$CBEV?$map@EFU?$less@E@std@@V?$allocator@U?$pair@$$CBEF@std@@@2@@std@@@std@@PAX@2@@Z 005d7fe0 f i GameSocket.obj
 0002:0005c0d0       ?_Freenode0@?$_Tree_comp_alloc@V?$_Tmap_traits@IPAU_PARTY_GROUP@@U?$less@I@std@@V?$allocator@U?$pair@$$CBIPAU_PARTY_GROUP@@@std@@@3@$0A@@std@@@std@@QAEXPAU?$_Tree_node@U?$pair@$$CBIPAU_PARTY_GROUP@@@std@@PAX@2@@Z 005d80d0 f i GameSocket.obj
 0002:0005c1c0       ?_Get_data@?$_String_alloc@U?$_String_base_types@DV?$allocator@D@std@@@std@@@std@@QAEAAV?$_String_val@U?$_Simple_types@D@std@@@2@XZ 005d81c0 f i GameSocket.obj
 0002:0005c210       ?_Get_data@?$_String_alloc@U?$_String_base_types@DV?$allocator@D@std@@@std@@@std@@QBEABV?$_String_val@U?$_Simple_types@D@std@@@2@XZ 005d8210 f i GameSocket.obj
 0002:0005c260       ?_Get_data@?$_Tree_comp_alloc@V?$_Tmap_traits@IPAU_PARTY_GROUP@@U?$less@I@std@@V?$allocator@U?$pair@$$CBIPAU_PARTY_GROUP@@@std@@@3@$0A@@std@@@std@@QAEAAV?$_Tree_val@U?$_Tree_simple_types@U?$pair@$$CBIPAU_PARTY_GROUP@@@std@@@std@@@2@XZ 005d8260 f i GameSocket.obj
 0002:0005c2c0       ?_Get_data@?$_Tree_comp_alloc@V?$_Tmap_traits@IPAU_PARTY_GROUP@@U?$less@I@std@@V?$allocator@U?$pair@$$CBIPAU_PARTY_GROUP@@@std@@@3@$0A@@std@@@std@@QBEABV?$_Tree_val@U?$_Tree_simple_types@U?$pair@$$CBIPAU_PARTY_GROUP@@@std@@@std@@@2@XZ 005d82c0 f i GameSocket.obj
 0002:0005c320       ?_Get_data@?$_Tree_comp_alloc@V?$_Tmap_traits@IPAVCNpc@@U?$less@I@std@@V?$allocator@U?$pair@$$CBIPAVCNpc@@@std@@@3@$0A@@std@@@std@@QAEAAV?$_Tree_val@U?$_Tree_simple_types@U?$pair@$$CBIPAVCNpc@@@std@@@std@@@2@XZ 005d8320 f i GameSocket.obj
 0002:0005c380       ?_Get_data@?$_Tree_comp_alloc@V?$_Tmap_traits@IPAVCNpc@@U?$less@I@std@@V?$allocator@U?$pair@$$CBIPAVCNpc@@@std@@@3@$0A@@std@@@std@@QBEABV?$_Tree_val@U?$_Tree_simple_types@U?$pair@$$CBIPAVCNpc@@@std@@@std@@@2@XZ 005d8380 f i GameSocket.obj
 0002:0005c3e0       ?_Get_first@?$_Compressed_pair@U?$_Wrap_alloc@V?$allocator@D@std@@@std@@V?$_String_val@U?$_Simple_types@D@std@@@2@$00@std@@QAEAAU?$_Wrap_alloc@V?$allocator@D@std@@@2@XZ 005d83e0 f i GameSocket.obj
 0002:0005c420       ?_Get_first@?$_Compressed_pair@U?$_Wrap_alloc@V?$allocator@D@std@@@std@@V?$_String_val@U?$_Simple_types@D@std@@@2@$00@std@@QBEABU?$_Wrap_alloc@V?$allocator@D@std@@@2@XZ 005d8420 f i GameSocket.obj
 0002:0005c460       ?_Get_first@?$_Compressed_pair@U?$_Wrap_alloc@V?$allocator@U?$_Tree_node@U?$pair@$$CBEF@std@@PAX@std@@@std@@@std@@V?$_Tree_val@U?$_Tree_simple_types@U?$pair@$$CBEF@std@@@std@@@2@$00@std@@QBEABU?$_Wrap_alloc@V?$allocator@U?$_Tree_node@U?$pair@$$CBEF@std@@PAX@std@@@std@@@2@XZ 005d8460 f i GameSocket.obj
 0002:0005c4a0       ?_Get_first@?$_Compressed_pair@U?$_Wrap_alloc@V?$allocator@U?$_Tree_node@U?$pair@$$CBEV?$map@EFU?$less@E@std@@V?$allocator@U?$pair@$$CBEF@std@@@2@@std@@@std@@PAX@std@@@std@@@std@@V?$_Tree_val@U?$_Tree_simple_types@U?$pair@$$CBEV?$map@EFU?$less@E@std@@V?$allocator@U?$pair@$$CBEF@std@@@2@@std@@@std@@@std@@@2@$00@std@@QBEABU?$_Wrap_alloc@V?$allocator@U?$_Tree_node@U?$pair@$$CBEV?$map@EFU?$less@E@std@@V?$allocator@U?$pair@$$CBEF@std@@@2@@std@@@std@@PAX@std@@@std@@@2@XZ 005d84a0 f i GameSocket.obj
 0002:0005c4e0       ?_Get_first@?$_Compressed_pair@U?$_Wrap_alloc@V?$allocator@U?$_Tree_node@U?$pair@$$CBIPAU_PARTY_GROUP@@@std@@PAX@std@@@std@@@std@@V?$_Tree_val@U?$_Tree_simple_types@U?$pair@$$CBIPAU_PARTY_GROUP@@@std@@@std@@@2@$00@std@@QAEAAU?$_Wrap_alloc@V?$allocator@U?$_Tree_node@U?$pair@$$CBIPAU_PARTY_GROUP@@@std@@PAX@std@@@std@@@2@XZ 005d84e0 f i GameSocket.obj
 0002:0005c520       ?_Get_first@?$_Compressed_pair@U?$_Wrap_alloc@V?$allocator@U?$_Tree_node@U?$pair@$$CBIPAU_PARTY_GROUP@@@std@@PAX@std@@@std@@@std@@V?$_Tree_val@U?$_Tree_simple_types@U?$pair@$$CBIPAU_PARTY_GROUP@@@std@@@std@@@2@$00@std@@QBEABU?$_Wrap_alloc@V?$allocator@U?$_Tree_node@U?$pair@$$CBIPAU_PARTY_GROUP@@@std@@PAX@std@@@std@@@2@XZ 005d8520 f i GameSocket.obj
 0002:0005c560       ?_Get_first@?$_Compressed_pair@U?$less@E@std@@V?$_Compressed_pair@U?$_Wrap_alloc@V?$allocator@U?$_Tree_node@U?$pair@$$CBEF@std@@PAX@std@@@std@@@std@@V?$_Tree_val@U?$_Tree_simple_types@U?$pair@$$CBEF@std@@@std@@@2@$00@2@$00@std@@QAEAAU?$less@E@2@XZ 005d8560 f i GameSocket.obj
 0002:0005c5a0       ?_Get_first@?$_Compressed_pair@U?$less@E@std@@V?$_Compressed_pair@U?$_Wrap_alloc@V?$allocator@U?$_Tree_node@U?$pair@$$CBEF@std@@PAX@std@@@std@@@std@@V?$_Tree_val@U?$_Tree_simple_types@U?$pair@$$CBEF@std@@@std@@@2@$00@2@$00@std@@QBEABU?$less@E@2@XZ 005d85a0 f i GameSocket.obj
 0002:0005c5e0       ?_Get_first@?$_Compressed_pair@U?$less@E@std@@V?$_Compressed_pair@U?$_Wrap_alloc@V?$allocator@U?$_Tree_node@U?$pair@$$CBEV?$map@EFU?$less@E@std@@V?$allocator@U?$pair@$$CBEF@std@@@2@@std@@@std@@PAX@std@@@std@@@std@@V?$_Tree_val@U?$_Tree_simple_types@U?$pair@$$CBEV?$map@EFU?$less@E@std@@V?$allocator@U?$pair@$$CBEF@std@@@2@@std@@@std@@@std@@@2@$00@2@$00@std@@QAEAAU?$less@E@2@XZ 005d85e0 f i GameSocket.obj
 0002:0005c620       ?_Get_first@?$_Compressed_pair@U?$less@E@std@@V?$_Compressed_pair@U?$_Wrap_alloc@V?$allocator@U?$_Tree_node@U?$pair@$$CBEV?$map@EFU?$less@E@std@@V?$allocator@U?$pair@$$CBEF@std@@@2@@std@@@std@@PAX@std@@@std@@@std@@V?$_Tree_val@U?$_Tree_simple_types@U?$pair@$$CBEV?$map@EFU?$less@E@std@@V?$allocator@U?$pair@$$CBEF@std@@@2@@std@@@std@@@std@@@2@$00@2@$00@std@@QBEABU?$less@E@2@XZ 005d8620 f i GameSocket.obj
 0002:0005c660       ?_Get_first@?$_Compressed_pair@U?$less@I@std@@V?$_Compressed_pair@U?$_Wrap_alloc@V?$allocator@U?$_Tree_node@U?$pair@$$CBIPAU_PARTY_GROUP@@@std@@PAX@std@@@std@@@std@@V?$_Tree_val@U?$_Tree_simple_types@U?$pair@$$CBIPAU_PARTY_GROUP@@@std@@@std@@@2@$00@2@$00@std@@QAEAAU?$less@I@2@XZ 005d8660 f i GameSocket.obj
 0002:0005c6a0       ?_Get_second@?$_Compressed_pair@U?$_Wrap_alloc@V?$allocator@D@std@@@std@@V?$_String_val@U?$_Simple_types@D@std@@@2@$00@std@@QAEAAV?$_String_val@U?$_Simple_types@D@std@@@2@XZ 005d86a0 f i GameSocket.obj
 0002:0005c6e0       ?_Get_second@?$_Compressed_pair@U?$_Wrap_alloc@V?$allocator@D@std@@@std@@V?$_String_val@U?$_Simple_types@D@std@@@2@$00@std@@QBEABV?$_String_val@U?$_Simple_types@D@std@@@2@XZ 005d86e0 f i GameSocket.obj
 0002:0005c720       ?_Get_second@?$_Compressed_pair@U?$_Wrap_alloc@V?$allocator@U?$_Tree_node@U?$pair@$$CBIPAU_PARTY_GROUP@@@std@@PAX@std@@@std@@@std@@V?$_Tree_val@U?$_Tree_simple_types@U?$pair@$$CBIPAU_PARTY_GROUP@@@std@@@std@@@2@$00@std@@QAEAAV?$_Tree_val@U?$_Tree_simple_types@U?$pair@$$CBIPAU_PARTY_GROUP@@@std@@@std@@@2@XZ 005d8720 f i GameSocket.obj
 0002:0005c760       ?_Get_second@?$_Compressed_pair@U?$_Wrap_alloc@V?$allocator@U?$_Tree_node@U?$pair@$$CBIPAU_PARTY_GROUP@@@std@@PAX@std@@@std@@@std@@V?$_Tree_val@U?$_Tree_simple_types@U?$pair@$$CBIPAU_PARTY_GROUP@@@std@@@std@@@2@$00@std@@QBEABV?$_Tree_val@U?$_Tree_simple_types@U?$pair@$$CBIPAU_PARTY_GROUP@@@std@@@std@@@2@XZ 005d8760 f i GameSocket.obj
 0002:0005c7a0       ?_Get_second@?$_Compressed_pair@U?$_Wrap_alloc@V?$allocator@U?$_Tree_node@U?$pair@$$CBIPAVCNpc@@@std@@PAX@std@@@std@@@std@@V?$_Tree_val@U?$_Tree_simple_types@U?$pair@$$CBIPAVCNpc@@@std@@@std@@@2@$00@std@@QAEAAV?$_Tree_val@U?$_Tree_simple_types@U?$pair@$$CBIPAVCNpc@@@std@@@std@@@2@XZ 005d87a0 f i GameSocket.obj
 0002:0005c7e0       ?_Get_second@?$_Compressed_pair@U?$_Wrap_alloc@V?$allocator@U?$_Tree_node@U?$pair@$$CBIPAVCNpc@@@std@@PAX@std@@@std@@@std@@V?$_Tree_val@U?$_Tree_simple_types@U?$pair@$$CBIPAVCNpc@@@std@@@std@@@2@$00@std@@QBEABV?$_Tree_val@U?$_Tree_simple_types@U?$pair@$$CBIPAVCNpc@@@std@@@std@@@2@XZ 005d87e0 f i GameSocket.obj
 0002:0005c820       ?_Get_second@?$_Compressed_pair@U?$less@I@std@@V?$_Compressed_pair@U?$_Wrap_alloc@V?$allocator@U?$_Tree_node@U?$pair@$$CBIPAU_PARTY_GROUP@@@std@@PAX@std@@@std@@@std@@V?$_Tree_val@U?$_Tree_simple_types@U?$pair@$$CBIPAU_PARTY_GROUP@@@std@@@std@@@2@$00@2@$00@std@@QAEAAV?$_Compressed_pair@U?$_Wrap_alloc@V?$allocator@U?$_Tree_node@U?$pair@$$CBIPAU_PARTY_GROUP@@@std@@PAX@std@@@std@@@std@@V?$_Tree_val@U?$_Tree_simple_types@U?$pair@$$CBIPAU_PARTY_GROUP@@@std@@@std@@@2@$00@2@XZ 005d8820 f i GameSocket.obj
 0002:0005c860       ?_Get_second@?$_Compressed_pair@U?$less@I@std@@V?$_Compressed_pair@U?$_Wrap_alloc@V?$allocator@U?$_Tree_node@U?$pair@$$CBIPAU_PARTY_GROUP@@@std@@PAX@std@@@std@@@std@@V?$_Tree_val@U?$_Tree_simple_types@U?$pair@$$CBIPAU_PARTY_GROUP@@@std@@@std@@@2@$00@2@$00@std@@QBEABV?$_Compressed_pair@U?$_Wrap_alloc@V?$allocator@U?$_Tree_node@U?$pair@$$CBIPAU_PARTY_GROUP@@@std@@PAX@std@@@std@@@std@@V?$_Tree_val@U?$_Tree_simple_types@U?$pair@$$CBIPAU_PARTY_GROUP@@@std@@@std@@@2@$00@2@XZ 005d8860 f i GameSocket.obj
 0002:0005c8a0       ?_Get_second@?$_Compressed_pair@U?$less@I@std@@V?$_Compressed_pair@U?$_Wrap_alloc@V?$allocator@U?$_Tree_node@U?$pair@$$CBIPAVCNpc@@@std@@PAX@std@@@std@@@std@@V?$_Tree_val@U?$_Tree_simple_types@U?$pair@$$CBIPAVCNpc@@@std@@@std@@@2@$00@2@$00@std@@QAEAAV?$_Compressed_pair@U?$_Wrap_alloc@V?$allocator@U?$_Tree_node@U?$pair@$$CBIPAVCNpc@@@std@@PAX@std@@@std@@@std@@V?$_Tree_val@U?$_Tree_simple_types@U?$pair@$$CBIPAVCNpc@@@std@@@std@@@2@$00@2@XZ 005d88a0 f i GameSocket.obj
 0002:0005c8e0       ?_Get_second@?$_Compressed_pair@U?$less@I@std@@V?$_Compressed_pair@U?$_Wrap_alloc@V?$allocator@U?$_Tree_node@U?$pair@$$CBIPAVCNpc@@@std@@PAX@std@@@std@@@std@@V?$_Tree_val@U?$_Tree_simple_types@U?$pair@$$CBIPAVCNpc@@@std@@@std@@@2@$00@2@$00@std@@QBEABV?$_Compressed_pair@U?$_Wrap_alloc@V?$allocator@U?$_Tree_node@U?$pair@$$CBIPAVCNpc@@@std@@PAX@std@@@std@@@std@@V?$_Tree_val@U?$_Tree_simple_types@U?$pair@$$CBIPAVCNpc@@@std@@@std@@@2@$00@2@XZ 005d88e0 f i GameSocket.obj
 0002:0005c920       ?_Getal@?$_String_alloc@U?$_String_base_types@DV?$allocator@D@std@@@std@@@std@@QAEAAU?$_Wrap_alloc@V?$allocator@D@std@@@2@XZ 005d8920 f i GameSocket.obj
 0002:0005c970       ?_Getal@?$_String_alloc@U?$_String_base_types@DV?$allocator@D@std@@@std@@@std@@QBEABU?$_Wrap_alloc@V?$allocator@D@std@@@2@XZ 005d8970 f i GameSocket.obj
 0002:0005c9c0       ?_Getal@?$_Tree_comp_alloc@V?$_Tmap_traits@EFU?$less@E@std@@V?$allocator@U?$pair@$$CBEF@std@@@2@$0A@@std@@@std@@QBEABU?$_Wrap_alloc@V?$allocator@U?$_Tree_node@U?$pair@$$CBEF@std@@PAX@std@@@std@@@2@XZ 005d89c0 f i GameSocket.obj
 0002:0005ca20       ?_Getal@?$_Tree_comp_alloc@V?$_Tmap_traits@EV?$map@EFU?$less@E@std@@V?$allocator@U?$pair@$$CBEF@std@@@2@@std@@U?$less@E@2@V?$allocator@U?$pair@$$CBEV?$map@EFU?$less@E@std@@V?$allocator@U?$pair@$$CBEF@std@@@2@@std@@@std@@@2@$0A@@std@@@std@@QBEABU?$_Wrap_alloc@V?$allocator@U?$_Tree_node@U?$pair@$$CBEV?$map@EFU?$less@E@std@@V?$allocator@U?$pair@$$CBEF@std@@@2@@std@@@std@@PAX@std@@@std@@@2@XZ 005d8a20 f i GameSocket.obj
 0002:0005ca80       ?_Getal@?$_Tree_comp_alloc@V?$_Tmap_traits@IPAU_PARTY_GROUP@@U?$less@I@std@@V?$allocator@U?$pair@$$CBIPAU_PARTY_GROUP@@@std@@@3@$0A@@std@@@std@@QAEAAU?$_Wrap_alloc@V?$allocator@U?$_Tree_node@U?$pair@$$CBIPAU_PARTY_GROUP@@@std@@PAX@std@@@std@@@2@XZ 005d8a80 f i GameSocket.obj
 0002:0005cae0       ?_Getal@?$_Tree_comp_alloc@V?$_Tmap_traits@IPAU_PARTY_GROUP@@U?$less@I@std@@V?$allocator@U?$pair@$$CBIPAU_PARTY_GROUP@@@std@@@3@$0A@@std@@@std@@QBEABU?$_Wrap_alloc@V?$allocator@U?$_Tree_node@U?$pair@$$CBIPAU_PARTY_GROUP@@@std@@PAX@std@@@std@@@2@XZ 005d8ae0 f i GameSocket.obj
 0002:0005cb40       ?_Getcomp@?$_Tree_comp_alloc@V?$_Tmap_traits@EFU?$less@E@std@@V?$allocator@U?$pair@$$CBEF@std@@@2@$0A@@std@@@std@@QAEAAU?$less@E@2@XZ 005d8b40 f i GameSocket.obj
 0002:0005cb90       ?_Getcomp@?$_Tree_comp_alloc@V?$_Tmap_traits@EFU?$less@E@std@@V?$allocator@U?$pair@$$CBEF@std@@@2@$0A@@std@@@std@@QBEABU?$less@E@2@XZ 005d8b90 f i GameSocket.obj
 0002:0005cbe0       ?_Getcomp@?$_Tree_comp_alloc@V?$_Tmap_traits@EV?$map@EFU?$less@E@std@@V?$allocator@U?$pair@$$CBEF@std@@@2@@std@@U?$less@E@2@V?$allocator@U?$pair@$$CBEV?$map@EFU?$less@E@std@@V?$allocator@U?$pair@$$CBEF@std@@@2@@std@@@std@@@2@$0A@@std@@@std@@QAEAAU?$less@E@2@XZ 005d8be0 f i GameSocket.obj
 0002:0005cc30       ?_Getcomp@?$_Tree_comp_alloc@V?$_Tmap_traits@EV?$map@EFU?$less@E@std@@V?$allocator@U?$pair@$$CBEF@std@@@2@@std@@U?$less@E@2@V?$allocator@U?$pair@$$CBEV?$map@EFU?$less@E@std@@V?$allocator@U?$pair@$$CBEF@std@@@2@@std@@@std@@@2@$0A@@std@@@std@@QBEABU?$less@E@2@XZ 005d8c30 f i GameSocket.obj
 0002:0005cc80       ?_Getcomp@?$_Tree_comp_alloc@V?$_Tmap_traits@IPAU_PARTY_GROUP@@U?$less@I@std@@V?$allocator@U?$pair@$$CBIPAU_PARTY_GROUP@@@std@@@3@$0A@@std@@@std@@QAEAAU?$less@I@2@XZ 005d8c80 f i GameSocket.obj
 0002:0005ccd0       ?_Grow@?$basic_string@DU?$char_traits@D@std@@V?$allocator@D@2@@std@@QAE_NI_N@Z 005d8cd0 f i GameSocket.obj
 0002:0005ce00       ?_Isnil@?$_Tree_comp_alloc@V?$_Tmap_traits@IPAU_PARTY_GROUP@@U?$less@I@std@@V?$allocator@U?$pair@$$CBIPAU_PARTY_GROUP@@@std@@@3@$0A@@std@@@std@@SAAADPAU?$_Tree_node@U?$pair@$$CBIPAU_PARTY_GROUP@@@std@@PAX@2@@Z 005d8e00 f i GameSocket.obj
 0002:0005ce50       ?_Isnil@?$_Tree_val@U?$_Tree_simple_types@U?$pair@$$CBIPAU_PARTY_GROUP@@@std@@@std@@@std@@SAAADPAU?$_Tree_node@U?$pair@$$CBIPAU_PARTY_GROUP@@@std@@PAX@2@@Z 005d8e50 f i GameSocket.obj
 0002:0005ce90       ?_Isnil@?$_Tree_val@U?$_Tree_simple_types@U?$pair@$$CBIPAVCNpc@@@std@@@std@@@std@@SAAADPAU?$_Tree_node@U?$pair@$$CBIPAVCNpc@@@std@@PAX@2@@Z 005d8e90 f i GameSocket.obj
 0002:0005ced0       ?_Key@?$_Tree@V?$_Tmap_traits@EFU?$less@E@std@@V?$allocator@U?$pair@$$CBEF@std@@@2@$0A@@std@@@std@@IBEABEPAU?$_Tree_node@U?$pair@$$CBEF@std@@PAX@2@@Z 005d8ed0 f i GameSocket.obj
 0002:0005cf40       ?_Key@?$_Tree@V?$_Tmap_traits@EV?$map@EFU?$less@E@std@@V?$allocator@U?$pair@$$CBEF@std@@@2@@std@@U?$less@E@2@V?$allocator@U?$pair@$$CBEV?$map@EFU?$less@E@std@@V?$allocator@U?$pair@$$CBEF@std@@@2@@std@@@std@@@2@$0A@@std@@@std@@IBEABEPAU?$_Tree_node@U?$pair@$$CBEV?$map@EFU?$less@E@std@@V?$allocator@U?$pair@$$CBEF@std@@@2@@std@@@std@@PAX@2@@Z 005d8f40 f i GameSocket.obj
 0002:0005cfb0       ?_Key@?$_Tree@V?$_Tmap_traits@IPAU_PARTY_GROUP@@U?$less@I@std@@V?$allocator@U?$pair@$$CBIPAU_PARTY_GROUP@@@std@@@3@$0A@@std@@@std@@IBEABIPAU?$_Tree_node@U?$pair@$$CBIPAU_PARTY_GROUP@@@std@@PAX@2@@Z 005d8fb0 f i GameSocket.obj
 0002:0005d020       ?_Kfn@?$_Tree@V?$_Tmap_traits@EFU?$less@E@std@@V?$allocator@U?$pair@$$CBEF@std@@@2@$0A@@std@@@std@@IBEABEABU?$pair@$$CBEF@2@@Z 005d9020 f i GameSocket.obj
 0002:0005d080       ?_Kfn@?$_Tree@V?$_Tmap_traits@EV?$map@EFU?$less@E@std@@V?$allocator@U?$pair@$$CBEF@std@@@2@@std@@U?$less@E@2@V?$allocator@U?$pair@$$CBEV?$map@EFU?$less@E@std@@V?$allocator@U?$pair@$$CBEF@std@@@2@@std@@@std@@@2@$0A@@std@@@std@@IBEABEABU?$pair@$$CBEV?$map@EFU?$less@E@std@@V?$allocator@U?$pair@$$CBEF@std@@@2@@std@@@2@@Z 005d9080 f i GameSocket.obj
 0002:0005d0e0       ?_Kfn@?$_Tree@V?$_Tmap_traits@IPAU_PARTY_GROUP@@U?$less@I@std@@V?$allocator@U?$pair@$$CBIPAU_PARTY_GROUP@@@std@@@3@$0A@@std@@@std@@IBEABIABU?$pair@$$CBIPAU_PARTY_GROUP@@@2@@Z 005d90e0 f i GameSocket.obj
 0002:0005d140       ?_Left@?$_Tree_comp_alloc@V?$_Tmap_traits@IPAU_PARTY_GROUP@@U?$less@I@std@@V?$allocator@U?$pair@$$CBIPAU_PARTY_GROUP@@@std@@@3@$0A@@std@@@std@@SAAAPAU?$_Tree_node@U?$pair@$$CBIPAU_PARTY_GROUP@@@std@@PAX@2@PAU32@@Z 005d9140 f i GameSocket.obj
 0002:0005d190       ?_Left@?$_Tree_comp_alloc@V?$_Tmap_traits@IPAVCNpc@@U?$less@I@std@@V?$allocator@U?$pair@$$CBIPAVCNpc@@@std@@@3@$0A@@std@@@std@@SAAAPAU?$_Tree_node@U?$pair@$$CBIPAVCNpc@@@std@@PAX@2@PAU32@@Z 005d9190 f i GameSocket.obj
 0002:0005d1e0       ?_Left@?$_Tree_val@U?$_Tree_simple_types@U?$pair@$$CBIPAU_PARTY_GROUP@@@std@@@std@@@std@@SAAAPAU?$_Tree_node@U?$pair@$$CBIPAU_PARTY_GROUP@@@std@@PAX@2@PAU32@@Z 005d91e0 f i GameSocket.obj
 0002:0005d220       ?_Left@?$_Tree_val@U?$_Tree_simple_types@U?$pair@$$CBIPAVCNpc@@@std@@@std@@@std@@SAAAPAU?$_Tree_node@U?$pair@$$CBIPAVCNpc@@@std@@PAX@2@PAU32@@Z 005d9220 f i GameSocket.obj
 0002:0005d260       ?_Lmost@?$_Tree@V?$_Tmap_traits@IPAU_PARTY_GROUP@@U?$less@I@std@@V?$allocator@U?$pair@$$CBIPAU_PARTY_GROUP@@@std@@@3@$0A@@std@@@std@@IBEAAPAU?$_Tree_node@U?$pair@$$CBIPAU_PARTY_GROUP@@@std@@PAX@2@XZ 005d9260 f i GameSocket.obj
 0002:0005d2c0       ?_Lmost@?$_Tree@V?$_Tmap_traits@IPAVCNpc@@U?$less@I@std@@V?$allocator@U?$pair@$$CBIPAVCNpc@@@std@@@3@$0A@@std@@@std@@IBEAAPAU?$_Tree_node@U?$pair@$$CBIPAVCNpc@@@std@@PAX@2@XZ 005d92c0 f i GameSocket.obj
 0002:0005d320       ?_Lrotate@?$_Tree@V?$_Tmap_traits@IPAU_PARTY_GROUP@@U?$less@I@std@@V?$allocator@U?$pair@$$CBIPAU_PARTY_GROUP@@@std@@@3@$0A@@std@@@std@@IAEXPAU?$_Tree_node@U?$pair@$$CBIPAU_PARTY_GROUP@@@std@@PAX@2@@Z 005d9320 f i GameSocket.obj
 0002:0005d4d0       ?_Max@?$_Tree_val@U?$_Tree_simple_types@U?$pair@$$CBIPAU_PARTY_GROUP@@@std@@@std@@@std@@SAPAU?$_Tree_node@U?$pair@$$CBIPAU_PARTY_GROUP@@@std@@PAX@2@PAU32@@Z 005d94d0 f i GameSocket.obj
 0002:0005d550       ?_Min@?$_Tree_val@U?$_Tree_simple_types@U?$pair@$$CBIPAVCNpc@@@std@@@std@@@std@@SAPAU?$_Tree_node@U?$pair@$$CBIPAVCNpc@@@std@@PAX@2@PAU32@@Z 005d9550 f i GameSocket.obj
 0002:0005d5d0       ?_Myhead@?$_Tree_comp_alloc@V?$_Tmap_traits@IPAU_PARTY_GROUP@@U?$less@I@std@@V?$allocator@U?$pair@$$CBIPAU_PARTY_GROUP@@@std@@@3@$0A@@std@@@std@@QAEAAPAU?$_Tree_node@U?$pair@$$CBIPAU_PARTY_GROUP@@@std@@PAX@2@XZ 005d95d0 f i GameSocket.obj
 0002:0005d630       ?_Myhead@?$_Tree_comp_alloc@V?$_Tmap_traits@IPAU_PARTY_GROUP@@U?$less@I@std@@V?$allocator@U?$pair@$$CBIPAU_PARTY_GROUP@@@std@@@3@$0A@@std@@@std@@QBEABQAU?$_Tree_node@U?$pair@$$CBIPAU_PARTY_GROUP@@@std@@PAX@2@XZ 005d9630 f i GameSocket.obj
 0002:0005d690       ?_Myhead@?$_Tree_comp_alloc@V?$_Tmap_traits@IPAVCNpc@@U?$less@I@std@@V?$allocator@U?$pair@$$CBIPAVCNpc@@@std@@@3@$0A@@std@@@std@@QAEAAPAU?$_Tree_node@U?$pair@$$CBIPAVCNpc@@@std@@PAX@2@XZ 005d9690 f i GameSocket.obj
 0002:0005d6f0       ?_Myhead@?$_Tree_comp_alloc@V?$_Tmap_traits@IPAVCNpc@@U?$less@I@std@@V?$allocator@U?$pair@$$CBIPAVCNpc@@@std@@@3@$0A@@std@@@std@@QBEABQAU?$_Tree_node@U?$pair@$$CBIPAVCNpc@@@std@@PAX@2@XZ 005d96f0 f i GameSocket.obj
 0002:0005d750       ?_Mynode@?$_Tree_unchecked_const_iterator@V?$_Tree_val@U?$_Tree_simple_types@U?$pair@$$CBIPAU_PARTY_GROUP@@@std@@@std@@@std@@U_Iterator_base12@2@@std@@QBEPAU?$_Tree_node@U?$pair@$$CBIPAU_PARTY_GROUP@@@std@@PAX@2@XZ 005d9750 f i GameSocket.obj
 0002:0005d790       ?_Myproxy@?$_String_alloc@U?$_String_base_types@DV?$allocator@D@std@@@std@@@std@@QAEAAPAU_Container_proxy@2@XZ 005d9790 f i GameSocket.obj
 0002:0005d7e0       ?_Myptr@?$_String_alloc@U?$_String_base_types@DV?$allocator@D@std@@@std@@@std@@QAEPADXZ 005d97e0 f i GameSocket.obj
 0002:0005d840       ?_Myptr@?$_String_alloc@U?$_String_base_types@DV?$allocator@D@std@@@std@@@std@@QBEPBDXZ 005d9840 f i GameSocket.obj
 0002:0005d8a0       ?_Myptr@?$_String_val@U?$_Simple_types@D@std@@@std@@QAEPADXZ 005d98a0 f i GameSocket.obj
 0002:0005d930       ?_Myptr@?$_String_val@U?$_Simple_types@D@std@@@std@@QBEPBDXZ 005d9930 f i GameSocket.obj
 0002:0005d9c0       ?_Myres@?$_String_alloc@U?$_String_base_types@DV?$allocator@D@std@@@std@@@std@@QAEAAIXZ 005d99c0 f i GameSocket.obj
 0002:0005da20       ?_Mysize@?$_String_alloc@U?$_String_base_types@DV?$allocator@D@std@@@std@@@std@@QAEAAIXZ 005d9a20 f i GameSocket.obj
 0002:0005da80       ?_Mysize@?$_String_alloc@U?$_String_base_types@DV?$allocator@D@std@@@std@@@std@@QBEABIXZ 005d9a80 f i GameSocket.obj
 0002:0005dae0       ?_Mysize@?$_Tree_comp_alloc@V?$_Tmap_traits@IPAU_PARTY_GROUP@@U?$less@I@std@@V?$allocator@U?$pair@$$CBIPAU_PARTY_GROUP@@@std@@@3@$0A@@std@@@std@@QAEAAIXZ 005d9ae0 f i GameSocket.obj
 0002:0005db40       ?_Myval@?$_Tree_comp_alloc@V?$_Tmap_traits@IPAU_PARTY_GROUP@@U?$less@I@std@@V?$allocator@U?$pair@$$CBIPAU_PARTY_GROUP@@@std@@@3@$0A@@std@@@std@@SAAAU?$pair@$$CBIPAU_PARTY_GROUP@@@2@PAU?$_Tree_node@U?$pair@$$CBIPAU_PARTY_GROUP@@@std@@PAX@2@@Z 005d9b40 f i GameSocket.obj
 0002:0005db90       ?_Myval@?$_Tree_val@U?$_Tree_simple_types@U?$pair@$$CBIPAU_PARTY_GROUP@@@std@@@std@@@std@@SAAAU?$pair@$$CBIPAU_PARTY_GROUP@@@2@PAU?$_Tree_node@U?$pair@$$CBIPAU_PARTY_GROUP@@@std@@PAX@2@@Z 005d9b90 f i GameSocket.obj
 0002:0005dbd0       ?_Myval@?$_Tree_val@U?$_Tree_simple_types@U?$pair@$$CBIPAVCNpc@@@std@@@std@@@std@@SAAAU?$pair@$$CBIPAVCNpc@@@2@PAU?$_Tree_node@U?$pair@$$CBIPAVCNpc@@@std@@PAX@2@@Z 005d9bd0 f i GameSocket.obj
 0002:0005dc10       ?_Orphan_all@?$_String_alloc@U?$_String_base_types@DV?$allocator@D@std@@@std@@@std@@QAEXXZ 005d9c10 f i GameSocket.obj
 0002:0005dc70       ?_Parent@?$_Tree_comp_alloc@V?$_Tmap_traits@IPAU_PARTY_GROUP@@U?$less@I@std@@V?$allocator@U?$pair@$$CBIPAU_PARTY_GROUP@@@std@@@3@$0A@@std@@@std@@SAAAPAU?$_Tree_node@U?$pair@$$CBIPAU_PARTY_GROUP@@@std@@PAX@2@PAU32@@Z 005d9c70 f i GameSocket.obj
 0002:0005dcc0       ?_Parent@?$_Tree_val@U?$_Tree_simple_types@U?$pair@$$CBIPAU_PARTY_GROUP@@@std@@@std@@@std@@SAAAPAU?$_Tree_node@U?$pair@$$CBIPAU_PARTY_GROUP@@@std@@PAX@2@PAU32@@Z 005d9cc0 f i GameSocket.obj
 0002:0005dd00       ?_Parent@?$_Tree_val@U?$_Tree_simple_types@U?$pair@$$CBIPAVCNpc@@@std@@@std@@@std@@SAAAPAU?$_Tree_node@U?$pair@$$CBIPAVCNpc@@@std@@PAX@2@PAU32@@Z 005d9d00 f i GameSocket.obj
 0002:0005dd40       ?_Right@?$_Tree_comp_alloc@V?$_Tmap_traits@IPAU_PARTY_GROUP@@U?$less@I@std@@V?$allocator@U?$pair@$$CBIPAU_PARTY_GROUP@@@std@@@3@$0A@@std@@@std@@SAAAPAU?$_Tree_node@U?$pair@$$CBIPAU_PARTY_GROUP@@@std@@PAX@2@PAU32@@Z 005d9d40 f i GameSocket.obj
 0002:0005dd90       ?_Right@?$_Tree_val@U?$_Tree_simple_types@U?$pair@$$CBIPAU_PARTY_GROUP@@@std@@@std@@@std@@SAAAPAU?$_Tree_node@U?$pair@$$CBIPAU_PARTY_GROUP@@@std@@PAX@2@PAU32@@Z 005d9d90 f i GameSocket.obj
 0002:0005ddd0       ?_Right@?$_Tree_val@U?$_Tree_simple_types@U?$pair@$$CBIPAVCNpc@@@std@@@std@@@std@@SAAAPAU?$_Tree_node@U?$pair@$$CBIPAVCNpc@@@std@@PAX@2@PAU32@@Z 005d9dd0 f i GameSocket.obj
 0002:0005de10       ?_Rmost@?$_Tree@V?$_Tmap_traits@IPAU_PARTY_GROUP@@U?$less@I@std@@V?$allocator@U?$pair@$$CBIPAU_PARTY_GROUP@@@std@@@3@$0A@@std@@@std@@IBEAAPAU?$_Tree_node@U?$pair@$$CBIPAU_PARTY_GROUP@@@std@@PAX@2@XZ 005d9e10 f i GameSocket.obj
 0002:0005de70       ?_Root@?$_Tree@V?$_Tmap_traits@IPAU_PARTY_GROUP@@U?$less@I@std@@V?$allocator@U?$pair@$$CBIPAU_PARTY_GROUP@@@std@@@3@$0A@@std@@@std@@IBEAAPAU?$_Tree_node@U?$pair@$$CBIPAU_PARTY_GROUP@@@std@@PAX@2@XZ 005d9e70 f i GameSocket.obj
 0002:0005ded0       ?_Rrotate@?$_Tree@V?$_Tmap_traits@IPAU_PARTY_GROUP@@U?$less@I@std@@V?$allocator@U?$pair@$$CBIPAU_PARTY_GROUP@@@std@@@3@$0A@@std@@@std@@IAEXPAU?$_Tree_node@U?$pair@$$CBIPAU_PARTY_GROUP@@@std@@PAX@2@@Z 005d9ed0 f i GameSocket.obj
 0002:0005e080       ?_Tidy@?$basic_string@DU?$char_traits@D@std@@V?$allocator@D@2@@std@@QAEX_NI@Z 005da080 f i GameSocket.obj
 0002:0005e190       ?_Xlen@?$basic_string@DU?$char_traits@D@std@@V?$allocator@D@2@@std@@QBEXXZ 005da190 f i GameSocket.obj
 0002:0005e1f0       ?allocate@?$_Wrap_alloc@V?$allocator@D@std@@@std@@QAEPADI@Z 005da1f0 f i GameSocket.obj
 0002:0005e250       ?allocate@?$_Wrap_alloc@V?$allocator@U?$_Tree_node@U?$pair@$$CBEF@std@@PAX@std@@@std@@@std@@QAEPAU?$_Tree_node@U?$pair@$$CBEF@std@@PAX@2@I@Z 005da250 f i GameSocket.obj
 0002:0005e2b0       ?allocate@?$_Wrap_alloc@V?$allocator@U?$_Tree_node@U?$pair@$$CBIPAU_PARTY_GROUP@@@std@@PAX@std@@@std@@@std@@QAEPAU?$_Tree_node@U?$pair@$$CBIPAU_PARTY_GROUP@@@std@@PAX@2@I@Z 005da2b0 f i GameSocket.obj
 0002:0005e310       ?allocate@?$allocator@D@std@@QAEPADI@Z 005da310 f i GameSocket.obj
 0002:0005e370       ?allocate@?$allocator@U?$_Tree_node@U?$pair@$$CBEF@std@@PAX@std@@@std@@QAEPAU?$_Tree_node@U?$pair@$$CBEF@std@@PAX@2@I@Z 005da370 f i GameSocket.obj
 0002:0005e3d0       ?allocate@?$allocator@U?$_Tree_node@U?$pair@$$CBIPAU_PARTY_GROUP@@@std@@PAX@std@@@std@@QAEPAU?$_Tree_node@U?$pair@$$CBIPAU_PARTY_GROUP@@@std@@PAX@2@I@Z 005da3d0 f i GameSocket.obj
 0002:0005e430       ?append@?$basic_string@DU?$char_traits@D@std@@V?$allocator@D@2@@std@@QAEAAV12@ID@Z 005da430 f i GameSocket.obj
 0002:0005e510       ?assign@?$char_traits@D@std@@SAPADPADID@Z 005da510 f i GameSocket.obj
 0002:0005e570       ?assign@?$char_traits@D@std@@SAXAADABD@Z 005da570 f i GameSocket.obj
 0002:0005e5b0       ?begin@?$_Tree@V?$_Tmap_traits@IPAU_PARTY_GROUP@@U?$less@I@std@@V?$allocator@U?$pair@$$CBIPAU_PARTY_GROUP@@@std@@@3@$0A@@std@@@std@@QAE?AV?$_Tree_iterator@V?$_Tree_val@U?$_Tree_simple_types@U?$pair@$$CBIPAU_PARTY_GROUP@@@std@@@std@@@std@@@2@XZ 005da5b0 f i GameSocket.obj
 0002:0005e660       ?begin@?$_Tree@V?$_Tmap_traits@IPAVCNpc@@U?$less@I@std@@V?$allocator@U?$pair@$$CBIPAVCNpc@@@std@@@3@$0A@@std@@@std@@QAE?AV?$_Tree_iterator@V?$_Tree_val@U?$_Tree_simple_types@U?$pair@$$CBIPAVCNpc@@@std@@@std@@@std@@@2@XZ 005da660 f i GameSocket.obj
 0002:0005e710       ?c_str@?$basic_string@DU?$char_traits@D@std@@V?$allocator@D@2@@std@@QBEPBDXZ 005da710 f i GameSocket.obj
 0002:0005e7a0       ?clear@?$basic_string@DU?$char_traits@D@std@@V?$allocator@D@2@@std@@QAEXXZ 005da7a0 f i GameSocket.obj
 0002:0005e830       ?copy@?$char_traits@D@std@@SAPADPADPBDI@Z 005da830 f i GameSocket.obj
 0002:0005e8b0       ?deallocate@?$_Wrap_alloc@V?$allocator@D@std@@@std@@QAEXPADI@Z 005da8b0 f i GameSocket.obj
 0002:0005e910       ?deallocate@?$_Wrap_alloc@V?$allocator@U?$_Tree_node@U?$pair@$$CBIPAU_PARTY_GROUP@@@std@@PAX@std@@@std@@@std@@QAEXPAU?$_Tree_node@U?$pair@$$CBIPAU_PARTY_GROUP@@@std@@PAX@2@I@Z 005da910 f i GameSocket.obj
 0002:0005e970       ?deallocate@?$allocator@D@std@@QAEXPADI@Z 005da970 f i GameSocket.obj
 0002:0005e9d0       ?deallocate@?$allocator@U?$_Tree_node@U?$pair@$$CBIPAU_PARTY_GROUP@@@std@@PAX@std@@@std@@QAEXPAU?$_Tree_node@U?$pair@$$CBIPAU_PARTY_GROUP@@@std@@PAX@2@I@Z 005da9d0 f i GameSocket.obj
 0002:0005ea30       ?empty@?$basic_string@DU?$char_traits@D@std@@V?$allocator@D@2@@std@@QBE_NXZ 005daa30 f i GameSocket.obj
 0002:0005eab0       ?end@?$_Tree@V?$_Tmap_traits@IPAVCNpc@@U?$less@I@std@@V?$allocator@U?$pair@$$CBIPAVCNpc@@@std@@@3@$0A@@std@@@std@@QAE?AV?$_Tree_iterator@V?$_Tree_val@U?$_Tree_simple_types@U?$pair@$$CBIPAVCNpc@@@std@@@std@@@std@@@2@XZ 005daab0 f i GameSocket.obj
 0002:0005eb60       ?isGate@CNpc@@QAE_NXZ      005dab60 f i GameSocket.obj
 0002:0005ec50       ?length@?$basic_string@DU?$char_traits@D@std@@V?$allocator@D@2@@std@@QBEIXZ 005dac50 f i GameSocket.obj
 0002:0005ecb0       ?lower_bound@?$_Tree@V?$_Tmap_traits@EV?$map@EFU?$less@E@std@@V?$allocator@U?$pair@$$CBEF@std@@@2@@std@@U?$less@E@2@V?$allocator@U?$pair@$$CBEV?$map@EFU?$less@E@std@@V?$allocator@U?$pair@$$CBEF@std@@@2@@std@@@std@@@2@$0A@@std@@@std@@QAE?AV?$_Tree_iterator@V?$_Tree_val@U?$_Tree_simple_types@U?$pair@$$CBEV?$map@EFU?$less@E@std@@V?$allocator@U?$pair@$$CBEF@std@@@2@@std@@@std@@@std@@@std@@@2@ABE@Z 005dacb0 f i GameSocket.obj
 0002:0005ed40       ?max_size@?$_Tree@V?$_Tmap_traits@EFU?$less@E@std@@V?$allocator@U?$pair@$$CBEF@std@@@2@$0A@@std@@@std@@QBEIXZ 005dad40 f i GameSocket.obj
 0002:0005edb0       ?max_size@?$_Tree@V?$_Tmap_traits@EV?$map@EFU?$less@E@std@@V?$allocator@U?$pair@$$CBEF@std@@@2@@std@@U?$less@E@2@V?$allocator@U?$pair@$$CBEV?$map@EFU?$less@E@std@@V?$allocator@U?$pair@$$CBEF@std@@@2@@std@@@std@@@2@$0A@@std@@@std@@QBEIXZ 005dadb0 f i GameSocket.obj
 0002:0005ee20       ?max_size@?$_Tree@V?$_Tmap_traits@IPAU_PARTY_GROUP@@U?$less@I@std@@V?$allocator@U?$pair@$$CBIPAU_PARTY_GROUP@@@std@@@3@$0A@@std@@@std@@QBEIXZ 005dae20 f i GameSocket.obj
 0002:0005ee90       ?max_size@?$_Wrap_alloc@V?$allocator@D@std@@@std@@QBEIU_Nil@2@@Z 005dae90 f i GameSocket.obj
 0002:0005eef0       ?max_size@?$_Wrap_alloc@V?$allocator@U?$_Tree_node@U?$pair@$$CBEF@std@@PAX@std@@@std@@@std@@QBEIU_Nil@2@@Z 005daef0 f i GameSocket.obj
 0002:0005ef50       ?max_size@?$_Wrap_alloc@V?$allocator@U?$_Tree_node@U?$pair@$$CBEV?$map@EFU?$less@E@std@@V?$allocator@U?$pair@$$CBEF@std@@@2@@std@@@std@@PAX@std@@@std@@@std@@QBEIU_Nil@2@@Z 005daf50 f i GameSocket.obj
 0002:0005efb0       ?max_size@?$_Wrap_alloc@V?$allocator@U?$_Tree_node@U?$pair@$$CBIPAU_PARTY_GROUP@@@std@@PAX@std@@@std@@@std@@QBEIU_Nil@2@@Z 005dafb0 f i GameSocket.obj
 0002:0005f010       ?max_size@?$allocator@D@std@@QBEIXZ 005db010 f i GameSocket.obj
 0002:0005f050       ?max_size@?$allocator@U?$_Tree_node@U?$pair@$$CBEF@std@@PAX@std@@@std@@QBEIXZ 005db050 f i GameSocket.obj
 0002:0005f090       ?max_size@?$allocator@U?$_Tree_node@U?$pair@$$CBEV?$map@EFU?$less@E@std@@V?$allocator@U?$pair@$$CBEF@std@@@2@@std@@@std@@PAX@std@@@std@@QBEIXZ 005db090 f i GameSocket.obj
 0002:0005f0d0       ?max_size@?$allocator@U?$_Tree_node@U?$pair@$$CBIPAU_PARTY_GROUP@@@std@@PAX@std@@@std@@QBEIXZ 005db0d0 f i GameSocket.obj
 0002:0005f110       ?max_size@?$allocator_traits@V?$allocator@D@std@@@std@@SAIABV?$allocator@D@2@@Z 005db110 f i GameSocket.obj
 0002:0005f160       ?max_size@?$allocator_traits@V?$allocator@U?$_Tree_node@U?$pair@$$CBEF@std@@PAX@std@@@std@@@std@@SAIABV?$allocator@U?$_Tree_node@U?$pair@$$CBEF@std@@PAX@std@@@2@@Z 005db160 f i GameSocket.obj
 0002:0005f1b0       ?max_size@?$allocator_traits@V?$allocator@U?$_Tree_node@U?$pair@$$CBEV?$map@EFU?$less@E@std@@V?$allocator@U?$pair@$$CBEF@std@@@2@@std@@@std@@PAX@std@@@std@@@std@@SAIABV?$allocator@U?$_Tree_node@U?$pair@$$CBEV?$map@EFU?$less@E@std@@V?$allocator@U?$pair@$$CBEF@std@@@2@@std@@@std@@PAX@std@@@2@@Z 005db1b0 f i GameSocket.obj
 0002:0005f200       ?max_size@?$allocator_traits@V?$allocator@U?$_Tree_node@U?$pair@$$CBIPAU_PARTY_GROUP@@@std@@PAX@std@@@std@@@std@@SAIABV?$allocator@U?$_Tree_node@U?$pair@$$CBIPAU_PARTY_GROUP@@@std@@PAX@std@@@2@@Z 005db200 f i GameSocket.obj
 0002:0005f250       ?max_size@?$basic_string@DU?$char_traits@D@std@@V?$allocator@D@2@@std@@QBEIXZ 005db250 f i GameSocket.obj
 0002:0005f2f0       ?pointer_to@?$pointer_traits@PAU?$pair@$$CBIPAVCNpc@@@std@@@std@@SAPAU?$pair@$$CBIPAVCNpc@@@2@AAU32@@Z 005db2f0 f i GameSocket.obj
 0002:0005f340       ?push_back@?$basic_string@DU?$char_traits@D@std@@V?$allocator@D@2@@std@@QAEXD@Z 005db340 f i GameSocket.obj
 0002:0005f3a0       ??_GCServerDlg@@QAEPAXI@Z  005db3a0 f i main.obj
 0002:0005f420       ?_ConsoleHandler@@YGHK@Z   005db420 f   main.obj
 0002:0005f4b0       _main                      005db4b0 f   main.obj
 0002:0005f6b0       ??$?0$$V@?$_Compressed_pair@U?$_Wrap_alloc@V?$allocator@U?$_Tree_node@U?$pair@$$CBIPAH@std@@PAX@std@@@std@@@std@@V?$_Tree_val@U?$_Tree_simple_types@U?$pair@$$CBIPAH@std@@@std@@@2@$00@std@@QAE@U_Zero_then_variadic_args_t@1@@Z 005db6b0 f i MAP.obj
 0002:0005f710       ??$?0$$V@?$_Compressed_pair@U?$_Wrap_alloc@V?$allocator@U?$_Tree_node@U?$pair@$$CBIPAVCRoomEvent@@@std@@PAX@std@@@std@@@std@@V?$_Tree_val@U?$_Tree_simple_types@U?$pair@$$CBIPAVCRoomEvent@@@std@@@std@@@2@$00@std@@QAE@U_Zero_then_variadic_args_t@1@@Z 005db710 f i MAP.obj
 0002:0005f770       ??$?0AAIAAPAHX$0A@@?$pair@IPAH@std@@QAE@AAIAAPAH@Z 005db770 f i MAP.obj
 0002:0005f7f0       ??$?0AAIAAPAU_OBJECT_EVENT@@X$0A@@?$pair@IPAU_OBJECT_EVENT@@@std@@QAE@AAIAAPAU_OBJECT_EVENT@@@Z 005db7f0 f i MAP.obj
 0002:0005f870       ??$?0AAIAAPAVCRoomEvent@@X$0A@@?$pair@IPAVCRoomEvent@@@std@@QAE@AAIAAPAVCRoomEvent@@@Z 005db870 f i MAP.obj
 0002:0005f8f0       ??$?0AAU?$_Wrap_alloc@V?$allocator@U?$_Tree_node@U?$pair@$$CBIPAH@std@@PAX@std@@@std@@@std@@@?$_Wrap_alloc@V?$allocator@U_Container_proxy@std@@@std@@@std@@QAE@AAU?$_Wrap_alloc@V?$allocator@U?$_Tree_node@U?$pair@$$CBIPAH@std@@PAX@std@@@std@@@1@@Z 005db8f0 f i MAP.obj
 0002:0005f960       ??$?0AAU?$_Wrap_alloc@V?$allocator@U?$_Tree_node@U?$pair@$$CBIPAVCRoomEvent@@@std@@PAX@std@@@std@@@std@@@?$_Wrap_alloc@V?$allocator@U_Container_proxy@std@@@std@@@std@@QAE@AAU?$_Wrap_alloc@V?$allocator@U?$_Tree_node@U?$pair@$$CBIPAVCRoomEvent@@@std@@PAX@std@@@std@@@1@@Z 005db960 f i MAP.obj
 0002:0005f9d0       ??$?0AAV?$_Tree_iterator@V?$_Tree_val@U?$_Tree_simple_types@U?$pair@$$CBIPAH@std@@@std@@@std@@@std@@_NX$0A@@?$pair@V?$_Tree_iterator@V?$_Tree_val@U?$_Tree_simple_types@U?$pair@$$CBIPAH@std@@@std@@@std@@@std@@_N@std@@QAE@AAV?$_Tree_iterator@V?$_Tree_val@U?$_Tree_simple_types@U?$pair@$$CBIPAH@std@@@std@@@std@@@1@$$QA_N@Z 005db9d0 f i MAP.obj
 0002:0005fa50       ??$?0AAV?$_Tree_iterator@V?$_Tree_val@U?$_Tree_simple_types@U?$pair@$$CBIPAU_OBJECT_EVENT@@@std@@@std@@@std@@@std@@_NX$0A@@?$pair@V?$_Tree_iterator@V?$_Tree_val@U?$_Tree_simple_types@U?$pair@$$CBIPAU_OBJECT_EVENT@@@std@@@std@@@std@@@std@@_N@std@@QAE@AAV?$_Tree_iterator@V?$_Tree_val@U?$_Tree_simple_types@U?$pair@$$CBIPAU_OBJECT_EVENT@@@std@@@std@@@std@@@1@$$QA_N@Z 005dba50 f i MAP.obj
 0002:0005fad0       ??$?0AAV?$_Tree_iterator@V?$_Tree_val@U?$_Tree_simple_types@U?$pair@$$CBIPAVCRoomEvent@@@std@@@std@@@std@@@std@@_NX$0A@@?$pair@V?$_Tree_iterator@V?$_Tree_val@U?$_Tree_simple_types@U?$pair@$$CBIPAVCRoomEvent@@@std@@@std@@@std@@@std@@_N@std@@QAE@AAV?$_Tree_iterator@V?$_Tree_val@U?$_Tree_simple_types@U?$pair@$$CBIPAVCRoomEvent@@@std@@@std@@@std@@@1@$$QA_N@Z 005dbad0 f i MAP.obj
 0002:0005fb50       ??$?0ABU?$less@I@std@@U_Zero_then_variadic_args_t@1@@?$_Compressed_pair@U?$less@I@std@@V?$_Compressed_pair@U?$_Wrap_alloc@V?$allocator@U?$_Tree_node@U?$pair@$$CBIPAH@std@@PAX@std@@@std@@@std@@V?$_Tree_val@U?$_Tree_simple_types@U?$pair@$$CBIPAH@std@@@std@@@2@$00@2@$00@std@@QAE@U_One_then_variadic_args_t@1@ABU?$less@I@1@$$QAU_Zero_then_variadic_args_t@1@@Z 005dbb50 f i MAP.obj
 0002:0005fbd0       ??$?0ABU?$less@I@std@@U_Zero_then_variadic_args_t@1@@?$_Compressed_pair@U?$less@I@std@@V?$_Compressed_pair@U?$_Wrap_alloc@V?$allocator@U?$_Tree_node@U?$pair@$$CBIPAVCRoomEvent@@@std@@PAX@std@@@std@@@std@@V?$_Tree_val@U?$_Tree_simple_types@U?$pair@$$CBIPAVCRoomEvent@@@std@@@std@@@2@$00@2@$00@std@@QAE@U_One_then_variadic_args_t@1@ABU?$less@I@1@$$QAU_Zero_then_variadic_args_t@1@@Z 005dbbd0 f i MAP.obj
 0002:0005fc50       ??$?0IPAHX$0A@@?$pair@$$CBIPAH@std@@QAE@$$QAU?$pair@IPAH@1@@Z 005dbc50 f i MAP.obj
 0002:0005fcd0       ??$?0IPAU_OBJECT_EVENT@@X$0A@@?$pair@$$CBIPAU_OBJECT_EVENT@@@std@@QAE@$$QAU?$pair@IPAU_OBJECT_EVENT@@@1@@Z 005dbcd0 f i MAP.obj
 0002:0005fd50       ??$?0IPAVCRoomEvent@@X$0A@@?$pair@$$CBIPAVCRoomEvent@@@std@@QAE@$$QAU?$pair@IPAVCRoomEvent@@@1@@Z 005dbd50 f i MAP.obj
 0002:0005fdd0       ??$?0U?$_Tree_node@U?$pair@$$CBIPAH@std@@PAX@std@@@?$allocator@U_Container_proxy@std@@@std@@QAE@ABV?$allocator@U?$_Tree_node@U?$pair@$$CBIPAH@std@@PAX@std@@@1@@Z 005dbdd0 f i MAP.obj
 0002:0005fe10       ??$?0U?$_Tree_node@U?$pair@$$CBIPAVCRoomEvent@@@std@@PAX@std@@@?$allocator@U_Container_proxy@std@@@std@@QAE@ABV?$allocator@U?$_Tree_node@U?$pair@$$CBIPAVCRoomEvent@@@std@@PAX@std@@@1@@Z 005dbe10 f i MAP.obj
 0002:0005fe50       ??$?0U?$_Wrap_alloc@V?$allocator@D@std@@@std@@$$V@?$_Compressed_pair@U?$_Wrap_alloc@V?$allocator@D@std@@@std@@V?$_String_val@U?$_Simple_types@D@std@@@2@$00@std@@QAE@U_One_then_variadic_args_t@1@$$QAU?$_Wrap_alloc@V?$allocator@D@std@@@1@@Z 005dbe50 f i MAP.obj
 0002:0005fec0       ??$?0U?$_Wrap_alloc@V?$allocator@D@std@@@std@@X@?$_String_alloc@U?$_String_base_types@DV?$allocator@D@std@@@std@@@std@@QAE@$$QAU?$_Wrap_alloc@V?$allocator@D@std@@@1@@Z 005dbec0 f i MAP.obj
 0002:0005ff80       ??$?0V?$_Tree_iterator@V?$_Tree_val@U?$_Tree_simple_types@U?$pair@$$CBIPAH@std@@@std@@@std@@@std@@_NX$0A@@?$pair@V?$_Tree_iterator@V?$_Tree_val@U?$_Tree_simple_types@U?$pair@$$CBIPAH@std@@@std@@@std@@@std@@_N@std@@QAE@$$QAV?$_Tree_iterator@V?$_Tree_val@U?$_Tree_simple_types@U?$pair@$$CBIPAH@std@@@std@@@std@@@1@$$QA_N@Z 005dbf80 f i MAP.obj
 0002:00060000       ??$?0V?$_Tree_iterator@V?$_Tree_val@U?$_Tree_simple_types@U?$pair@$$CBIPAU_OBJECT_EVENT@@@std@@@std@@@std@@@std@@_NX$0A@@?$pair@V?$_Tree_iterator@V?$_Tree_val@U?$_Tree_simple_types@U?$pair@$$CBIPAU_OBJECT_EVENT@@@std@@@std@@@std@@@std@@_N@std@@QAE@$$QAV?$_Tree_iterator@V?$_Tree_val@U?$_Tree_simple_types@U?$pair@$$CBIPAU_OBJECT_EVENT@@@std@@@std@@@std@@@1@$$QA_N@Z 005dc000 f i MAP.obj
 0002:00060080       ??$?0V?$_Tree_iterator@V?$_Tree_val@U?$_Tree_simple_types@U?$pair@$$CBIPAVCRoomEvent@@@std@@@std@@@std@@@std@@_NX$0A@@?$pair@V?$_Tree_iterator@V?$_Tree_val@U?$_Tree_simple_types@U?$pair@$$CBIPAVCRoomEvent@@@std@@@std@@@std@@@std@@_N@std@@QAE@$$QAV?$_Tree_iterator@V?$_Tree_val@U?$_Tree_simple_types@U?$pair@$$CBIPAVCRoomEvent@@@std@@@std@@@std@@@1@$$QA_N@Z 005dc080 f i MAP.obj
 0002:00060100       ??$?0V?$allocator@D@std@@@?$_Wrap_alloc@V?$allocator@D@std@@@std@@QAE@$$QAV?$allocator@D@1@@Z 005dc100 f i MAP.obj
 0002:00060170       ??$_Addressof@PAU?$_Tree_node@U?$pair@$$CBIPAH@std@@PAX@std@@@std@@YAPAPAU?$_Tree_node@U?$pair@$$CBIPAH@std@@PAX@0@AAPAU10@U?$integral_constant@_N$0A@@0@@Z 005dc170 f i MAP.obj
 0002:000601b0       ??$_Addressof@PAU?$_Tree_node@U?$pair@$$CBIPAU_OBJECT_EVENT@@@std@@PAX@std@@@std@@YAPAPAU?$_Tree_node@U?$pair@$$CBIPAU_OBJECT_EVENT@@@std@@PAX@0@AAPAU10@U?$integral_constant@_N$0A@@0@@Z 005dc1b0 f i MAP.obj
 0002:000601f0       ??$_Addressof@PAU?$_Tree_node@U?$pair@$$CBIPAVCRoomEvent@@@std@@PAX@std@@@std@@YAPAPAU?$_Tree_node@U?$pair@$$CBIPAVCRoomEvent@@@std@@PAX@0@AAPAU10@U?$integral_constant@_N$0A@@0@@Z 005dc1f0 f i MAP.obj
 0002:00060230       ??$_Addressof@U?$pair@$$CBIPAH@std@@@std@@YAPAU?$pair@$$CBIPAH@0@AAU10@U?$integral_constant@_N$0A@@0@@Z 005dc230 f i MAP.obj
 0002:00060270       ??$_Addressof@U?$pair@$$CBIPAU_OBJECT_EVENT@@@std@@@std@@YAPAU?$pair@$$CBIPAU_OBJECT_EVENT@@@0@AAU10@U?$integral_constant@_N$0A@@0@@Z 005dc270 f i MAP.obj
 0002:000602b0       ??$_Addressof@U?$pair@$$CBIPAVCRoomEvent@@@std@@@std@@YAPAU?$pair@$$CBIPAVCRoomEvent@@@0@AAU10@U?$integral_constant@_N$0A@@0@@Z 005dc2b0 f i MAP.obj
 0002:000602f0       ??$_Buynode@U?$pair@IPAH@std@@@?$_Tree_comp_alloc@V?$_Tmap_traits@IPAHU?$less@I@std@@V?$allocator@U?$pair@$$CBIPAH@std@@@2@$0A@@std@@@std@@QAEPAU?$_Tree_node@U?$pair@$$CBIPAH@std@@PAX@1@$$QAU?$pair@IPAH@1@@Z 005dc2f0 f i MAP.obj
 0002:00060440       ??$_Buynode@U?$pair@IPAU_OBJECT_EVENT@@@std@@@?$_Tree_comp_alloc@V?$_Tmap_traits@IPAU_OBJECT_EVENT@@U?$less@I@std@@V?$allocator@U?$pair@$$CBIPAU_OBJECT_EVENT@@@std@@@3@$0A@@std@@@std@@QAEPAU?$_Tree_node@U?$pair@$$CBIPAU_OBJECT_EVENT@@@std@@PAX@1@$$QAU?$pair@IPAU_OBJECT_EVENT@@@1@@Z 005dc440 f i MAP.obj
 0002:00060590       ??$_Buynode@U?$pair@IPAVCRoomEvent@@@std@@@?$_Tree_comp_alloc@V?$_Tmap_traits@IPAVCRoomEvent@@U?$less@I@std@@V?$allocator@U?$pair@$$CBIPAVCRoomEvent@@@std@@@3@$0A@@std@@@std@@QAEPAU?$_Tree_node@U?$pair@$$CBIPAVCRoomEvent@@@std@@PAX@1@$$QAU?$pair@IPAVCRoomEvent@@@1@@Z 005dc590 f i MAP.obj
 0002:000606e0       ??$_Buynode_if_nil@AAU?$pair@$$CBIPAH@std@@@?$_Tree@V?$_Tmap_traits@IPAHU?$less@I@std@@V?$allocator@U?$pair@$$CBIPAH@std@@@2@$0A@@std@@@std@@IAEPAU?$_Tree_node@U?$pair@$$CBIPAH@std@@PAX@1@PAU21@AAU?$pair@$$CBIPAH@1@@Z 005dc6e0 f i MAP.obj
 0002:00060720       ??$_Buynode_if_nil@AAU?$pair@$$CBIPAU_OBJECT_EVENT@@@std@@@?$_Tree@V?$_Tmap_traits@IPAU_OBJECT_EVENT@@U?$less@I@std@@V?$allocator@U?$pair@$$CBIPAU_OBJECT_EVENT@@@std@@@3@$0A@@std@@@std@@IAEPAU?$_Tree_node@U?$pair@$$CBIPAU_OBJECT_EVENT@@@std@@PAX@1@PAU21@AAU?$pair@$$CBIPAU_OBJECT_EVENT@@@1@@Z 005dc720 f i MAP.obj
 0002:00060760       ??$_Buynode_if_nil@AAU?$pair@$$CBIPAVCRoomEvent@@@std@@@?$_Tree@V?$_Tmap_traits@IPAVCRoomEvent@@U?$less@I@std@@V?$allocator@U?$pair@$$CBIPAVCRoomEvent@@@std@@@3@$0A@@std@@@std@@IAEPAU?$_Tree_node@U?$pair@$$CBIPAVCRoomEvent@@@std@@PAX@1@PAU21@AAU?$pair@$$CBIPAVCRoomEvent@@@1@@Z 005dc760 f i MAP.obj
 0002:000607a0       ??$_Debug_pointer@$$CBD@std@@YAXPBDPB_WI@Z 005dc7a0 f i MAP.obj
 0002:00060800       ??$_Debug_pointer@D@std@@YAXPADPB_WI@Z 005dc800 f i MAP.obj
 0002:00060860       ??$_Debug_pointer_if@$$CBD@std@@YAX_NPBDPB_WI@Z 005dc860 f i MAP.obj
 0002:000608d0       ??$_Debug_range2@PBD@std@@YAXPBD0PB_WIUrandom_access_iterator_tag@0@@Z 005dc8d0 f i MAP.obj
 0002:00060970       ??$_Debug_range@PBD@std@@YAXPBD0PB_WI@Z 005dc970 f i MAP.obj
 0002:000609f0       ??$_Debug_range_ptr2@PBDPAD@std@@YAXPBD0AAPADPB_WIUrandom_access_iterator_tag@0@@Z 005dc9f0 f i MAP.obj
 0002:00060ab0       ??$_Debug_range_ptr@PBDPAD@std@@YAXPBD0AAPADPB_WI@Z 005dcab0 f i MAP.obj
 0002:00060b30       ??$_Fgetc@D@std@@YA_NAADPAU_iobuf@@@Z 005dcb30 f i MAP.obj
 0002:00060ba0       ??$_Fputc@D@std@@YA_NDPAU_iobuf@@@Z 005dcba0 f i MAP.obj
 0002:00060c20       ??$_Immortalize@V_Iostream_error_category@std@@@std@@YAAAV_Iostream_error_category@0@XZ 005dcc20 f i MAP.obj
 0002:00060d20       ??$_Insert_at@AAU?$pair@$$CBIPAH@std@@PAU?$_Tree_node@U?$pair@$$CBIPAH@std@@PAX@2@@?$_Tree@V?$_Tmap_traits@IPAHU?$less@I@std@@V?$allocator@U?$pair@$$CBIPAH@std@@@2@$0A@@std@@@std@@IAE?AV?$_Tree_iterator@V?$_Tree_val@U?$_Tree_simple_types@U?$pair@$$CBIPAH@std@@@std@@@std@@@1@_NPAU?$_Tree_node@U?$pair@$$CBIPAH@std@@PAX@1@AAU?$pair@$$CBIPAH@1@1@Z 005dcd20 f i MAP.obj
 0002:000612d0       ??$_Insert_at@AAU?$pair@$$CBIPAU_OBJECT_EVENT@@@std@@PAU?$_Tree_node@U?$pair@$$CBIPAU_OBJECT_EVENT@@@std@@PAX@2@@?$_Tree@V?$_Tmap_traits@IPAU_OBJECT_EVENT@@U?$less@I@std@@V?$allocator@U?$pair@$$CBIPAU_OBJECT_EVENT@@@std@@@3@$0A@@std@@@std@@IAE?AV?$_Tree_iterator@V?$_Tree_val@U?$_Tree_simple_types@U?$pair@$$CBIPAU_OBJECT_EVENT@@@std@@@std@@@std@@@1@_NPAU?$_Tree_node@U?$pair@$$CBIPAU_OBJECT_EVENT@@@std@@PAX@1@AAU?$pair@$$CBIPAU_OBJECT_EVENT@@@1@1@Z 005dd2d0 f i MAP.obj
 0002:00061880       ??$_Insert_at@AAU?$pair@$$CBIPAVCRoomEvent@@@std@@PAU?$_Tree_node@U?$pair@$$CBIPAVCRoomEvent@@@std@@PAX@2@@?$_Tree@V?$_Tmap_traits@IPAVCRoomEvent@@U?$less@I@std@@V?$allocator@U?$pair@$$CBIPAVCRoomEvent@@@std@@@3@$0A@@std@@@std@@IAE?AV?$_Tree_iterator@V?$_Tree_val@U?$_Tree_simple_types@U?$pair@$$CBIPAVCRoomEvent@@@std@@@std@@@std@@@1@_NPAU?$_Tree_node@U?$pair@$$CBIPAVCRoomEvent@@@std@@PAX@1@AAU?$pair@$$CBIPAVCRoomEvent@@@1@1@Z 005dd880 f i MAP.obj
 0002:00061e30       ??$_Insert_nohint@AAU?$pair@$$CBIPAH@std@@PAU?$_Tree_node@U?$pair@$$CBIPAH@std@@PAX@2@@?$_Tree@V?$_Tmap_traits@IPAHU?$less@I@std@@V?$allocator@U?$pair@$$CBIPAH@std@@@2@$0A@@std@@@std@@IAE?AU?$pair@V?$_Tree_iterator@V?$_Tree_val@U?$_Tree_simple_types@U?$pair@$$CBIPAH@std@@@std@@@std@@@std@@_N@1@_NAAU?$pair@$$CBIPAH@1@PAU?$_Tree_node@U?$pair@$$CBIPAH@std@@PAX@1@@Z 005dde30 f i MAP.obj
 0002:00062510       ??$_Insert_nohint@AAU?$pair@$$CBIPAU_OBJECT_EVENT@@@std@@PAU?$_Tree_node@U?$pair@$$CBIPAU_OBJECT_EVENT@@@std@@PAX@2@@?$_Tree@V?$_Tmap_traits@IPAU_OBJECT_EVENT@@U?$less@I@std@@V?$allocator@U?$pair@$$CBIPAU_OBJECT_EVENT@@@std@@@3@$0A@@std@@@std@@IAE?AU?$pair@V?$_Tree_iterator@V?$_Tree_val@U?$_Tree_simple_types@U?$pair@$$CBIPAU_OBJECT_EVENT@@@std@@@std@@@std@@@std@@_N@1@_NAAU?$pair@$$CBIPAU_OBJECT_EVENT@@@1@PAU?$_Tree_node@U?$pair@$$CBIPAU_OBJECT_EVENT@@@std@@PAX@1@@Z 005de510 f i MAP.obj
 0002:00062bf0       ??$_Insert_nohint@AAU?$pair@$$CBIPAVCRoomEvent@@@std@@PAU?$_Tree_node@U?$pair@$$CBIPAVCRoomEvent@@@std@@PAX@2@@?$_Tree@V?$_Tmap_traits@IPAVCRoomEvent@@U?$less@I@std@@V?$allocator@U?$pair@$$CBIPAVCRoomEvent@@@std@@@3@$0A@@std@@@std@@IAE?AU?$pair@V?$_Tree_iterator@V?$_Tree_val@U?$_Tree_simple_types@U?$pair@$$CBIPAVCRoomEvent@@@std@@@std@@@std@@@std@@_N@1@_NAAU?$pair@$$CBIPAVCRoomEvent@@@1@PAU?$_Tree_node@U?$pair@$$CBIPAVCRoomEvent@@@std@@PAX@1@@Z 005debf0 f i MAP.obj
 0002:000632d0       ??$_Iter_cat@PBD@std@@YA?AUrandom_access_iterator_tag@0@ABQBD@Z 005df2d0 f i MAP.obj
 0002:00063310       ??$_Kfn@$$CBIPAH@?$_Tmap_traits@IPAHU?$less@I@std@@V?$allocator@U?$pair@$$CBIPAH@std@@@2@$0A@@std@@SAABIABU?$pair@$$CBIPAH@1@@Z 005df310 f i MAP.obj
 0002:00063350       ??$_Kfn@$$CBIPAU_OBJECT_EVENT@@@?$_Tmap_traits@IPAU_OBJECT_EVENT@@U?$less@I@std@@V?$allocator@U?$pair@$$CBIPAU_OBJECT_EVENT@@@std@@@3@$0A@@std@@SAABIABU?$pair@$$CBIPAU_OBJECT_EVENT@@@1@@Z 005df350 f i MAP.obj
 0002:00063390       ??$_Kfn@$$CBIPAVCRoomEvent@@@?$_Tmap_traits@IPAVCRoomEvent@@U?$less@I@std@@V?$allocator@U?$pair@$$CBIPAVCRoomEvent@@@std@@@3@$0A@@std@@SAABIABU?$pair@$$CBIPAVCRoomEvent@@@1@@Z 005df390 f i MAP.obj
 0002:000633d0       ??$_Lbound@I@?$_Tree@V?$_Tmap_traits@IPAHU?$less@I@std@@V?$allocator@U?$pair@$$CBIPAH@std@@@2@$0A@@std@@@std@@IBEPAU?$_Tree_node@U?$pair@$$CBIPAH@std@@PAX@1@ABI@Z 005df3d0 f i MAP.obj
 0002:000634c0       ??$_Lbound@I@?$_Tree@V?$_Tmap_traits@IPAVCRoomEvent@@U?$less@I@std@@V?$allocator@U?$pair@$$CBIPAVCRoomEvent@@@std@@@3@$0A@@std@@@std@@IBEPAU?$_Tree_node@U?$pair@$$CBIPAVCRoomEvent@@@std@@PAX@1@ABI@Z 005df4c0 f i MAP.obj
 0002:000635b0       ??$_Ungetc@D@std@@YA_NABDPAU_iobuf@@@Z 005df5b0 f i MAP.obj
 0002:00063630       ??$addressof@PAU?$_Tree_node@U?$pair@$$CBIPAH@std@@PAX@std@@@std@@YAPAPAU?$_Tree_node@U?$pair@$$CBIPAH@std@@PAX@0@AAPAU10@@Z 005df630 f i MAP.obj
 0002:00063690       ??$addressof@PAU?$_Tree_node@U?$pair@$$CBIPAU_OBJECT_EVENT@@@std@@PAX@std@@@std@@YAPAPAU?$_Tree_node@U?$pair@$$CBIPAU_OBJECT_EVENT@@@std@@PAX@0@AAPAU10@@Z 005df690 f i MAP.obj
 0002:000636f0       ??$addressof@PAU?$_Tree_node@U?$pair@$$CBIPAVCRoomEvent@@@std@@PAX@std@@@std@@YAPAPAU?$_Tree_node@U?$pair@$$CBIPAVCRoomEvent@@@std@@PAX@0@AAPAU10@@Z 005df6f0 f i MAP.obj
 0002:00063750       ??$addressof@U?$pair@$$CBIPAH@std@@@std@@YAPAU?$pair@$$CBIPAH@0@AAU10@@Z 005df750 f i MAP.obj
 0002:000637b0       ??$addressof@U?$pair@$$CBIPAU_OBJECT_EVENT@@@std@@@std@@YAPAU?$pair@$$CBIPAU_OBJECT_EVENT@@@0@AAU10@@Z 005df7b0 f i MAP.obj
 0002:00063810       ??$addressof@U?$pair@$$CBIPAVCRoomEvent@@@std@@@std@@YAPAU?$pair@$$CBIPAVCRoomEvent@@@0@AAU10@@Z 005df810 f i MAP.obj
 0002:00063870       ??$construct@PAU?$_Tree_node@U?$pair@$$CBIPAH@std@@PAX@std@@AAPAU12@@?$_Wrap_alloc@V?$allocator@U?$_Tree_node@U?$pair@$$CBIPAH@std@@PAX@std@@@std@@@std@@QAEXPAPAU?$_Tree_node@U?$pair@$$CBIPAH@std@@PAX@1@AAPAU21@@Z 005df870 f i MAP.obj
 0002:000638e0       ??$construct@PAU?$_Tree_node@U?$pair@$$CBIPAH@std@@PAX@std@@AAPAU12@@?$allocator@U?$_Tree_node@U?$pair@$$CBIPAH@std@@PAX@std@@@std@@QAEXPAPAU?$_Tree_node@U?$pair@$$CBIPAH@std@@PAX@1@AAPAU21@@Z 005df8e0 f i MAP.obj
 0002:00063990       ??$construct@PAU?$_Tree_node@U?$pair@$$CBIPAH@std@@PAX@std@@AAPAU12@@?$allocator_traits@V?$allocator@U?$_Tree_node@U?$pair@$$CBIPAH@std@@PAX@std@@@std@@@std@@SAXAAV?$allocator@U?$_Tree_node@U?$pair@$$CBIPAH@std@@PAX@std@@@1@PAPAU?$_Tree_node@U?$pair@$$CBIPAH@std@@PAX@1@AAPAU31@@Z 005df990 f i MAP.obj
 0002:000639f0       ??$construct@PAU?$_Tree_node@U?$pair@$$CBIPAU_OBJECT_EVENT@@@std@@PAX@std@@AAPAU12@@?$_Wrap_alloc@V?$allocator@U?$_Tree_node@U?$pair@$$CBIPAU_OBJECT_EVENT@@@std@@PAX@std@@@std@@@std@@QAEXPAPAU?$_Tree_node@U?$pair@$$CBIPAU_OBJECT_EVENT@@@std@@PAX@1@AAPAU21@@Z 005df9f0 f i MAP.obj
 0002:00063a60       ??$construct@PAU?$_Tree_node@U?$pair@$$CBIPAU_OBJECT_EVENT@@@std@@PAX@std@@AAPAU12@@?$allocator@U?$_Tree_node@U?$pair@$$CBIPAU_OBJECT_EVENT@@@std@@PAX@std@@@std@@QAEXPAPAU?$_Tree_node@U?$pair@$$CBIPAU_OBJECT_EVENT@@@std@@PAX@1@AAPAU21@@Z 005dfa60 f i MAP.obj
 0002:00063b10       ??$construct@PAU?$_Tree_node@U?$pair@$$CBIPAU_OBJECT_EVENT@@@std@@PAX@std@@AAPAU12@@?$allocator_traits@V?$allocator@U?$_Tree_node@U?$pair@$$CBIPAU_OBJECT_EVENT@@@std@@PAX@std@@@std@@@std@@SAXAAV?$allocator@U?$_Tree_node@U?$pair@$$CBIPAU_OBJECT_EVENT@@@std@@PAX@std@@@1@PAPAU?$_Tree_node@U?$pair@$$CBIPAU_OBJECT_EVENT@@@std@@PAX@1@AAPAU31@@Z 005dfb10 f i MAP.obj
 0002:00063b70       ??$construct@PAU?$_Tree_node@U?$pair@$$CBIPAVCRoomEvent@@@std@@PAX@std@@AAPAU12@@?$_Wrap_alloc@V?$allocator@U?$_Tree_node@U?$pair@$$CBIPAVCRoomEvent@@@std@@PAX@std@@@std@@@std@@QAEXPAPAU?$_Tree_node@U?$pair@$$CBIPAVCRoomEvent@@@std@@PAX@1@AAPAU21@@Z 005dfb70 f i MAP.obj
 0002:00063be0       ??$construct@PAU?$_Tree_node@U?$pair@$$CBIPAVCRoomEvent@@@std@@PAX@std@@AAPAU12@@?$allocator@U?$_Tree_node@U?$pair@$$CBIPAVCRoomEvent@@@std@@PAX@std@@@std@@QAEXPAPAU?$_Tree_node@U?$pair@$$CBIPAVCRoomEvent@@@std@@PAX@1@AAPAU21@@Z 005dfbe0 f i MAP.obj
 0002:00063c90       ??$construct@PAU?$_Tree_node@U?$pair@$$CBIPAVCRoomEvent@@@std@@PAX@std@@AAPAU12@@?$allocator_traits@V?$allocator@U?$_Tree_node@U?$pair@$$CBIPAVCRoomEvent@@@std@@PAX@std@@@std@@@std@@SAXAAV?$allocator@U?$_Tree_node@U?$pair@$$CBIPAVCRoomEvent@@@std@@PAX@std@@@1@PAPAU?$_Tree_node@U?$pair@$$CBIPAVCRoomEvent@@@std@@PAX@1@AAPAU31@@Z 005dfc90 f i MAP.obj
 0002:00063cf0       ??$construct@U?$pair@$$CBIPAH@std@@U?$pair@IPAH@2@@?$_Wrap_alloc@V?$allocator@U?$_Tree_node@U?$pair@$$CBIPAH@std@@PAX@std@@@std@@@std@@QAEXPAU?$pair@$$CBIPAH@1@$$QAU?$pair@IPAH@1@@Z 005dfcf0 f i MAP.obj
 0002:00063d60       ??$construct@U?$pair@$$CBIPAH@std@@U?$pair@IPAH@2@@?$allocator@U?$_Tree_node@U?$pair@$$CBIPAH@std@@PAX@std@@@std@@QAEXPAU?$pair@$$CBIPAH@1@$$QAU?$pair@IPAH@1@@Z 005dfd60 f i MAP.obj
 0002:00063e00       ??$construct@U?$pair@$$CBIPAH@std@@U?$pair@IPAH@2@@?$allocator_traits@V?$allocator@U?$_Tree_node@U?$pair@$$CBIPAH@std@@PAX@std@@@std@@@std@@SAXAAV?$allocator@U?$_Tree_node@U?$pair@$$CBIPAH@std@@PAX@std@@@1@PAU?$pair@$$CBIPAH@1@$$QAU?$pair@IPAH@1@@Z 005dfe00 f i MAP.obj
 0002:00063e60       ??$construct@U?$pair@$$CBIPAU_OBJECT_EVENT@@@std@@U?$pair@IPAU_OBJECT_EVENT@@@2@@?$_Wrap_alloc@V?$allocator@U?$_Tree_node@U?$pair@$$CBIPAU_OBJECT_EVENT@@@std@@PAX@std@@@std@@@std@@QAEXPAU?$pair@$$CBIPAU_OBJECT_EVENT@@@1@$$QAU?$pair@IPAU_OBJECT_EVENT@@@1@@Z 005dfe60 f i MAP.obj
 0002:00063ed0       ??$construct@U?$pair@$$CBIPAU_OBJECT_EVENT@@@std@@U?$pair@IPAU_OBJECT_EVENT@@@2@@?$allocator@U?$_Tree_node@U?$pair@$$CBIPAU_OBJECT_EVENT@@@std@@PAX@std@@@std@@QAEXPAU?$pair@$$CBIPAU_OBJECT_EVENT@@@1@$$QAU?$pair@IPAU_OBJECT_EVENT@@@1@@Z 005dfed0 f i MAP.obj
 0002:00063f70       ??$construct@U?$pair@$$CBIPAU_OBJECT_EVENT@@@std@@U?$pair@IPAU_OBJECT_EVENT@@@2@@?$allocator_traits@V?$allocator@U?$_Tree_node@U?$pair@$$CBIPAU_OBJECT_EVENT@@@std@@PAX@std@@@std@@@std@@SAXAAV?$allocator@U?$_Tree_node@U?$pair@$$CBIPAU_OBJECT_EVENT@@@std@@PAX@std@@@1@PAU?$pair@$$CBIPAU_OBJECT_EVENT@@@1@$$QAU?$pair@IPAU_OBJECT_EVENT@@@1@@Z 005dff70 f i MAP.obj
 0002:00063fd0       ??$construct@U?$pair@$$CBIPAVCRoomEvent@@@std@@U?$pair@IPAVCRoomEvent@@@2@@?$_Wrap_alloc@V?$allocator@U?$_Tree_node@U?$pair@$$CBIPAVCRoomEvent@@@std@@PAX@std@@@std@@@std@@QAEXPAU?$pair@$$CBIPAVCRoomEvent@@@1@$$QAU?$pair@IPAVCRoomEvent@@@1@@Z 005dffd0 f i MAP.obj
 0002:00064040       ??$construct@U?$pair@$$CBIPAVCRoomEvent@@@std@@U?$pair@IPAVCRoomEvent@@@2@@?$allocator@U?$_Tree_node@U?$pair@$$CBIPAVCRoomEvent@@@std@@PAX@std@@@std@@QAEXPAU?$pair@$$CBIPAVCRoomEvent@@@1@$$QAU?$pair@IPAVCRoomEvent@@@1@@Z 005e0040 f i MAP.obj
 0002:000640e0       ??$construct@U?$pair@$$CBIPAVCRoomEvent@@@std@@U?$pair@IPAVCRoomEvent@@@2@@?$allocator_traits@V?$allocator@U?$_Tree_node@U?$pair@$$CBIPAVCRoomEvent@@@std@@PAX@std@@@std@@@std@@SAXAAV?$allocator@U?$_Tree_node@U?$pair@$$CBIPAVCRoomEvent@@@std@@PAX@std@@@1@PAU?$pair@$$CBIPAVCRoomEvent@@@1@$$QAU?$pair@IPAVCRoomEvent@@@1@@Z 005e00e0 f i MAP.obj
 0002:00064140       ??$destroy@PAU?$_Tree_node@U?$pair@$$CBIPAH@std@@PAX@std@@@?$_Wrap_alloc@V?$allocator@U?$_Tree_node@U?$pair@$$CBIPAH@std@@PAX@std@@@std@@@std@@QAEXPAPAU?$_Tree_node@U?$pair@$$CBIPAH@std@@PAX@1@@Z 005e0140 f i MAP.obj
 0002:000641a0       ??$destroy@PAU?$_Tree_node@U?$pair@$$CBIPAH@std@@PAX@std@@@?$allocator@U?$_Tree_node@U?$pair@$$CBIPAH@std@@PAX@std@@@std@@QAEXPAPAU?$_Tree_node@U?$pair@$$CBIPAH@std@@PAX@1@@Z 005e01a0 f i MAP.obj
 0002:000641e0       ??$destroy@PAU?$_Tree_node@U?$pair@$$CBIPAH@std@@PAX@std@@@?$allocator_traits@V?$allocator@U?$_Tree_node@U?$pair@$$CBIPAH@std@@PAX@std@@@std@@@std@@SAXAAV?$allocator@U?$_Tree_node@U?$pair@$$CBIPAH@std@@PAX@std@@@1@PAPAU?$_Tree_node@U?$pair@$$CBIPAH@std@@PAX@1@@Z 005e01e0 f i MAP.obj
 0002:00064230       ??$destroy@PAU?$_Tree_node@U?$pair@$$CBIPAU_OBJECT_EVENT@@@std@@PAX@std@@@?$_Wrap_alloc@V?$allocator@U?$_Tree_node@U?$pair@$$CBIPAU_OBJECT_EVENT@@@std@@PAX@std@@@std@@@std@@QAEXPAPAU?$_Tree_node@U?$pair@$$CBIPAU_OBJECT_EVENT@@@std@@PAX@1@@Z 005e0230 f i MAP.obj
 0002:00064290       ??$destroy@PAU?$_Tree_node@U?$pair@$$CBIPAU_OBJECT_EVENT@@@std@@PAX@std@@@?$allocator@U?$_Tree_node@U?$pair@$$CBIPAU_OBJECT_EVENT@@@std@@PAX@std@@@std@@QAEXPAPAU?$_Tree_node@U?$pair@$$CBIPAU_OBJECT_EVENT@@@std@@PAX@1@@Z 005e0290 f i MAP.obj
 0002:000642d0       ??$destroy@PAU?$_Tree_node@U?$pair@$$CBIPAU_OBJECT_EVENT@@@std@@PAX@std@@@?$allocator_traits@V?$allocator@U?$_Tree_node@U?$pair@$$CBIPAU_OBJECT_EVENT@@@std@@PAX@std@@@std@@@std@@SAXAAV?$allocator@U?$_Tree_node@U?$pair@$$CBIPAU_OBJECT_EVENT@@@std@@PAX@std@@@1@PAPAU?$_Tree_node@U?$pair@$$CBIPAU_OBJECT_EVENT@@@std@@PAX@1@@Z 005e02d0 f i MAP.obj
 0002:00064320       ??$destroy@PAU?$_Tree_node@U?$pair@$$CBIPAVCRoomEvent@@@std@@PAX@std@@@?$_Wrap_alloc@V?$allocator@U?$_Tree_node@U?$pair@$$CBIPAVCRoomEvent@@@std@@PAX@std@@@std@@@std@@QAEXPAPAU?$_Tree_node@U?$pair@$$CBIPAVCRoomEvent@@@std@@PAX@1@@Z 005e0320 f i MAP.obj
 0002:00064380       ??$destroy@PAU?$_Tree_node@U?$pair@$$CBIPAVCRoomEvent@@@std@@PAX@std@@@?$allocator@U?$_Tree_node@U?$pair@$$CBIPAVCRoomEvent@@@std@@PAX@std@@@std@@QAEXPAPAU?$_Tree_node@U?$pair@$$CBIPAVCRoomEvent@@@std@@PAX@1@@Z 005e0380 f i MAP.obj
 0002:000643c0       ??$destroy@PAU?$_Tree_node@U?$pair@$$CBIPAVCRoomEvent@@@std@@PAX@std@@@?$allocator_traits@V?$allocator@U?$_Tree_node@U?$pair@$$CBIPAVCRoomEvent@@@std@@PAX@std@@@std@@@std@@SAXAAV?$allocator@U?$_Tree_node@U?$pair@$$CBIPAVCRoomEvent@@@std@@PAX@std@@@1@PAPAU?$_Tree_node@U?$pair@$$CBIPAVCRoomEvent@@@std@@PAX@1@@Z 005e03c0 f i MAP.obj
 0002:00064410       ??$destroy@U?$pair@$$CBIPAH@std@@@?$_Wrap_alloc@V?$allocator@U?$_Tree_node@U?$pair@$$CBIPAH@std@@PAX@std@@@std@@@std@@QAEXPAU?$pair@$$CBIPAH@1@@Z 005e0410 f i MAP.obj
 0002:00064470       ??$destroy@U?$pair@$$CBIPAH@std@@@?$allocator@U?$_Tree_node@U?$pair@$$CBIPAH@std@@PAX@std@@@std@@QAEXPAU?$pair@$$CBIPAH@1@@Z 005e0470 f i MAP.obj
 0002:000644b0       ??$destroy@U?$pair@$$CBIPAH@std@@@?$allocator_traits@V?$allocator@U?$_Tree_node@U?$pair@$$CBIPAH@std@@PAX@std@@@std@@@std@@SAXAAV?$allocator@U?$_Tree_node@U?$pair@$$CBIPAH@std@@PAX@std@@@1@PAU?$pair@$$CBIPAH@1@@Z 005e04b0 f i MAP.obj
 0002:00064500       ??$destroy@U?$pair@$$CBIPAU_OBJECT_EVENT@@@std@@@?$_Wrap_alloc@V?$allocator@U?$_Tree_node@U?$pair@$$CBIPAU_OBJECT_EVENT@@@std@@PAX@std@@@std@@@std@@QAEXPAU?$pair@$$CBIPAU_OBJECT_EVENT@@@1@@Z 005e0500 f i MAP.obj
 0002:00064560       ??$destroy@U?$pair@$$CBIPAU_OBJECT_EVENT@@@std@@@?$allocator@U?$_Tree_node@U?$pair@$$CBIPAU_OBJECT_EVENT@@@std@@PAX@std@@@std@@QAEXPAU?$pair@$$CBIPAU_OBJECT_EVENT@@@1@@Z 005e0560 f i MAP.obj
 0002:000645a0       ??$destroy@U?$pair@$$CBIPAU_OBJECT_EVENT@@@std@@@?$allocator_traits@V?$allocator@U?$_Tree_node@U?$pair@$$CBIPAU_OBJECT_EVENT@@@std@@PAX@std@@@std@@@std@@SAXAAV?$allocator@U?$_Tree_node@U?$pair@$$CBIPAU_OBJECT_EVENT@@@std@@PAX@std@@@1@PAU?$pair@$$CBIPAU_OBJECT_EVENT@@@1@@Z 005e05a0 f i MAP.obj
 0002:000645f0       ??$destroy@U?$pair@$$CBIPAVCRoomEvent@@@std@@@?$_Wrap_alloc@V?$allocator@U?$_Tree_node@U?$pair@$$CBIPAVCRoomEvent@@@std@@PAX@std@@@std@@@std@@QAEXPAU?$pair@$$CBIPAVCRoomEvent@@@1@@Z 005e05f0 f i MAP.obj
 0002:00064650       ??$destroy@U?$pair@$$CBIPAVCRoomEvent@@@std@@@?$allocator@U?$_Tree_node@U?$pair@$$CBIPAVCRoomEvent@@@std@@PAX@std@@@std@@QAEXPAU?$pair@$$CBIPAVCRoomEvent@@@1@@Z 005e0650 f i MAP.obj
 0002:00064690       ??$destroy@U?$pair@$$CBIPAVCRoomEvent@@@std@@@?$allocator_traits@V?$allocator@U?$_Tree_node@U?$pair@$$CBIPAVCRoomEvent@@@std@@PAX@std@@@std@@@std@@SAXAAV?$allocator@U?$_Tree_node@U?$pair@$$CBIPAVCRoomEvent@@@std@@PAX@std@@@1@PAU?$pair@$$CBIPAVCRoomEvent@@@1@@Z 005e0690 f i MAP.obj
 0002:000646e0       ??$emplace@U?$pair@IPAH@std@@@?$_Tree@V?$_Tmap_traits@IPAHU?$less@I@std@@V?$allocator@U?$pair@$$CBIPAH@std@@@2@$0A@@std@@@std@@QAE?AU?$pair@V?$_Tree_iterator@V?$_Tree_val@U?$_Tree_simple_types@U?$pair@$$CBIPAH@std@@@std@@@std@@@std@@_N@1@$$QAU?$pair@IPAH@1@@Z 005e06e0 f i MAP.obj
 0002:00064790       ??$emplace@U?$pair@IPAU_OBJECT_EVENT@@@std@@@?$_Tree@V?$_Tmap_traits@IPAU_OBJECT_EVENT@@U?$less@I@std@@V?$allocator@U?$pair@$$CBIPAU_OBJECT_EVENT@@@std@@@3@$0A@@std@@@std@@QAE?AU?$pair@V?$_Tree_iterator@V?$_Tree_val@U?$_Tree_simple_types@U?$pair@$$CBIPAU_OBJECT_EVENT@@@std@@@std@@@std@@@std@@_N@1@$$QAU?$pair@IPAU_OBJECT_EVENT@@@1@@Z 005e0790 f i MAP.obj
 0002:00064840       ??$emplace@U?$pair@IPAVCRoomEvent@@@std@@@?$_Tree@V?$_Tmap_traits@IPAVCRoomEvent@@U?$less@I@std@@V?$allocator@U?$pair@$$CBIPAVCRoomEvent@@@std@@@3@$0A@@std@@@std@@QAE?AU?$pair@V?$_Tree_iterator@V?$_Tree_val@U?$_Tree_simple_types@U?$pair@$$CBIPAVCRoomEvent@@@std@@@std@@@std@@@std@@_N@1@$$QAU?$pair@IPAVCRoomEvent@@@1@@Z 005e0840 f i MAP.obj
 0002:000648f0       ??$forward@AAPAH@std@@YAAAPAHAAPAH@Z 005e08f0 f i MAP.obj
 0002:00064930       ??$forward@AAPAU?$_Tree_node@U?$pair@$$CBIPAH@std@@PAX@std@@@std@@YAAAPAU?$_Tree_node@U?$pair@$$CBIPAH@std@@PAX@0@AAPAU10@@Z 005e0930 f i MAP.obj
 0002:00064970       ??$forward@AAPAU?$_Tree_node@U?$pair@$$CBIPAU_OBJECT_EVENT@@@std@@PAX@std@@@std@@YAAAPAU?$_Tree_node@U?$pair@$$CBIPAU_OBJECT_EVENT@@@std@@PAX@0@AAPAU10@@Z 005e0970 f i MAP.obj
 0002:000649b0       ??$forward@AAPAU?$_Tree_node@U?$pair@$$CBIPAVCRoomEvent@@@std@@PAX@std@@@std@@YAAAPAU?$_Tree_node@U?$pair@$$CBIPAVCRoomEvent@@@std@@PAX@0@AAPAU10@@Z 005e09b0 f i MAP.obj
 0002:000649f0       ??$forward@AAPAU_OBJECT_EVENT@@@std@@YAAAPAU_OBJECT_EVENT@@AAPAU1@@Z 005e09f0 f i MAP.obj
 0002:00064a30       ??$forward@AAPAVCRoomEvent@@@std@@YAAAPAVCRoomEvent@@AAPAV1@@Z 005e0a30 f i MAP.obj
 0002:00064a70       ??$forward@AAU?$_Wrap_alloc@V?$allocator@U?$_Tree_node@U?$pair@$$CBIPAH@std@@PAX@std@@@std@@@std@@@std@@YAAAU?$_Wrap_alloc@V?$allocator@U?$_Tree_node@U?$pair@$$CBIPAH@std@@PAX@std@@@std@@@0@AAU10@@Z 005e0a70 f i MAP.obj
 0002:00064ab0       ??$forward@AAU?$_Wrap_alloc@V?$allocator@U?$_Tree_node@U?$pair@$$CBIPAVCRoomEvent@@@std@@PAX@std@@@std@@@std@@@std@@YAAAU?$_Wrap_alloc@V?$allocator@U?$_Tree_node@U?$pair@$$CBIPAVCRoomEvent@@@std@@PAX@std@@@std@@@0@AAU10@@Z 005e0ab0 f i MAP.obj
 0002:00064af0       ??$forward@AAU?$pair@$$CBIPAH@std@@@std@@YAAAU?$pair@$$CBIPAH@0@AAU10@@Z 005e0af0 f i MAP.obj
 0002:00064b30       ??$forward@AAU?$pair@$$CBIPAU_OBJECT_EVENT@@@std@@@std@@YAAAU?$pair@$$CBIPAU_OBJECT_EVENT@@@0@AAU10@@Z 005e0b30 f i MAP.obj
 0002:00064b70       ??$forward@AAU?$pair@$$CBIPAVCRoomEvent@@@std@@@std@@YAAAU?$pair@$$CBIPAVCRoomEvent@@@0@AAU10@@Z 005e0b70 f i MAP.obj
 0002:00064bb0       ??$forward@AAV?$_Tree_iterator@V?$_Tree_val@U?$_Tree_simple_types@U?$pair@$$CBIPAH@std@@@std@@@std@@@std@@@std@@YAAAV?$_Tree_iterator@V?$_Tree_val@U?$_Tree_simple_types@U?$pair@$$CBIPAH@std@@@std@@@std@@@0@AAV10@@Z 005e0bb0 f i MAP.obj
 0002:00064bf0       ??$forward@AAV?$_Tree_iterator@V?$_Tree_val@U?$_Tree_simple_types@U?$pair@$$CBIPAU_OBJECT_EVENT@@@std@@@std@@@std@@@std@@@std@@YAAAV?$_Tree_iterator@V?$_Tree_val@U?$_Tree_simple_types@U?$pair@$$CBIPAU_OBJECT_EVENT@@@std@@@std@@@std@@@0@AAV10@@Z 005e0bf0 f i MAP.obj
 0002:00064c30       ??$forward@AAV?$_Tree_iterator@V?$_Tree_val@U?$_Tree_simple_types@U?$pair@$$CBIPAVCRoomEvent@@@std@@@std@@@std@@@std@@@std@@YAAAV?$_Tree_iterator@V?$_Tree_val@U?$_Tree_simple_types@U?$pair@$$CBIPAVCRoomEvent@@@std@@@std@@@std@@@0@AAV10@@Z 005e0c30 f i MAP.obj
 0002:00064c70       ??$forward@ABU?$less@I@std@@@std@@YAABU?$less@I@0@ABU10@@Z 005e0c70 f i MAP.obj
 0002:00064cb0       ??$forward@PAH@std@@YA$$QAPAHAAPAH@Z 005e0cb0 f i MAP.obj
 0002:00064cf0       ??$forward@PAU_OBJECT_EVENT@@@std@@YA$$QAPAU_OBJECT_EVENT@@AAPAU1@@Z 005e0cf0 f i MAP.obj
 0002:00064d30       ??$forward@PAVCRoomEvent@@@std@@YA$$QAPAVCRoomEvent@@AAPAV1@@Z 005e0d30 f i MAP.obj
 0002:00064d70       ??$forward@U?$_Wrap_alloc@V?$allocator@D@std@@@std@@@std@@YA$$QAU?$_Wrap_alloc@V?$allocator@D@std@@@0@AAU10@@Z 005e0d70 f i MAP.obj
 0002:00064db0       ??$forward@U?$pair@IPAH@std@@@std@@YA$$QAU?$pair@IPAH@0@AAU10@@Z 005e0db0 f i MAP.obj
 0002:00064df0       ??$forward@U?$pair@IPAU_OBJECT_EVENT@@@std@@@std@@YA$$QAU?$pair@IPAU_OBJECT_EVENT@@@0@AAU10@@Z 005e0df0 f i MAP.obj
 0002:00064e30       ??$forward@U?$pair@IPAVCRoomEvent@@@std@@@std@@YA$$QAU?$pair@IPAVCRoomEvent@@@0@AAU10@@Z 005e0e30 f i MAP.obj
 0002:00064e70       ??$forward@V?$_Tree_iterator@V?$_Tree_val@U?$_Tree_simple_types@U?$pair@$$CBIPAH@std@@@std@@@std@@@std@@@std@@YA$$QAV?$_Tree_iterator@V?$_Tree_val@U?$_Tree_simple_types@U?$pair@$$CBIPAH@std@@@std@@@std@@@0@AAV10@@Z 005e0e70 f i MAP.obj
 0002:00064eb0       ??$forward@V?$_Tree_iterator@V?$_Tree_val@U?$_Tree_simple_types@U?$pair@$$CBIPAU_OBJECT_EVENT@@@std@@@std@@@std@@@std@@@std@@YA$$QAV?$_Tree_iterator@V?$_Tree_val@U?$_Tree_simple_types@U?$pair@$$CBIPAU_OBJECT_EVENT@@@std@@@std@@@std@@@0@AAV10@@Z 005e0eb0 f i MAP.obj
 0002:00064ef0       ??$forward@V?$_Tree_iterator@V?$_Tree_val@U?$_Tree_simple_types@U?$pair@$$CBIPAVCRoomEvent@@@std@@@std@@@std@@@std@@@std@@YA$$QAV?$_Tree_iterator@V?$_Tree_val@U?$_Tree_simple_types@U?$pair@$$CBIPAVCRoomEvent@@@std@@@std@@@std@@@0@AAV10@@Z 005e0ef0 f i MAP.obj
 0002:00064f30       ??$forward@V?$allocator@D@std@@@std@@YA$$QAV?$allocator@D@0@AAV10@@Z 005e0f30 f i MAP.obj
 0002:00064f70       ??$forward@V?$basic_string@DU?$char_traits@D@std@@V?$allocator@D@2@@std@@@std@@YA$$QAV?$basic_string@DU?$char_traits@D@std@@V?$allocator@D@2@@0@AAV10@@Z 005e0f70 f i MAP.obj
 0002:00064fb0       ??$insert@U?$pair@IPAH@std@@X@?$map@IPAHU?$less@I@std@@V?$allocator@U?$pair@$$CBIPAH@std@@@2@@std@@QAE?AU?$pair@V?$_Tree_iterator@V?$_Tree_val@U?$_Tree_simple_types@U?$pair@$$CBIPAH@std@@@std@@@std@@@std@@_N@1@$$QAU?$pair@IPAH@1@@Z 005e0fb0 f i MAP.obj
 0002:00065040       ??$insert@U?$pair@IPAU_OBJECT_EVENT@@@std@@X@?$map@IPAU_OBJECT_EVENT@@U?$less@I@std@@V?$allocator@U?$pair@$$CBIPAU_OBJECT_EVENT@@@std@@@3@@std@@QAE?AU?$pair@V?$_Tree_iterator@V?$_Tree_val@U?$_Tree_simple_types@U?$pair@$$CBIPAU_OBJECT_EVENT@@@std@@@std@@@std@@@std@@_N@1@$$QAU?$pair@IPAU_OBJECT_EVENT@@@1@@Z 005e1040 f i MAP.obj
 0002:000650d0       ??$insert@U?$pair@IPAVCRoomEvent@@@std@@X@?$map@IPAVCRoomEvent@@U?$less@I@std@@V?$allocator@U?$pair@$$CBIPAVCRoomEvent@@@std@@@3@@std@@QAE?AU?$pair@V?$_Tree_iterator@V?$_Tree_val@U?$_Tree_simple_types@U?$pair@$$CBIPAVCRoomEvent@@@std@@@std@@@std@@@std@@_N@1@$$QAU?$pair@IPAVCRoomEvent@@@1@@Z 005e10d0 f i MAP.obj
 0002:00065160       ??$make_pair@AAIAAPAH@std@@YA?AU?$pair@IPAH@0@AAIAAPAH@Z 005e1160 f i MAP.obj
 0002:000651d0       ??$make_pair@AAIAAPAU_OBJECT_EVENT@@@std@@YA?AU?$pair@IPAU_OBJECT_EVENT@@@0@AAIAAPAU_OBJECT_EVENT@@@Z 005e11d0 f i MAP.obj
 0002:00065240       ??$make_pair@AAIAAPAVCRoomEvent@@@std@@YA?AU?$pair@IPAVCRoomEvent@@@0@AAIAAPAVCRoomEvent@@@Z 005e1240 f i MAP.obj
 0002:000652b0       ??$move@AAU?$_Wrap_alloc@V?$allocator@D@std@@@std@@@std@@YA$$QAU?$_Wrap_alloc@V?$allocator@D@std@@@0@AAU10@@Z 005e12b0 f i MAP.obj
 0002:000652f0       ??$use_facet@V?$codecvt@DDU_Mbstatet@@@std@@@std@@YAABV?$codecvt@DDU_Mbstatet@@@0@ABVlocale@0@@Z 005e12f0 f i MAP.obj
 0002:000654c0       ??$use_facet@V?$ctype@D@std@@@std@@YAABV?$ctype@D@0@ABVlocale@0@@Z 005e14c0 f i MAP.obj
 0002:00065690       ??0?$CSTLMap@H@@QAE@XZ     005e1690 f i MAP.obj
 0002:00065740       ??0?$CSTLMap@VCRoomEvent@@@@QAE@XZ 005e1740 f i MAP.obj
 0002:000657f0       ??0?$_Immortalizer@V_Iostream_error_category@std@@@std@@QAE@XZ 005e17f0 f i MAP.obj
 0002:00065890       ??0?$_Iterator012@Ubidirectional_iterator_tag@std@@U?$pair@$$CBIPAH@2@HPBU32@ABU32@U_Iterator_base12@2@@std@@QAE@$$QAU01@@Z 005e1890 f i MAP.obj
 0002:000658f0       ??0?$_Iterator012@Ubidirectional_iterator_tag@std@@U?$pair@$$CBIPAH@2@HPBU32@ABU32@U_Iterator_base12@2@@std@@QAE@ABU01@@Z 005e18f0 f i MAP.obj
 0002:00065950       ??0?$_Iterator012@Ubidirectional_iterator_tag@std@@U?$pair@$$CBIPAH@2@HPBU32@ABU32@U_Iterator_base12@2@@std@@QAE@XZ 005e1950 f i MAP.obj
 0002:000659b0       ??0?$_Iterator012@Ubidirectional_iterator_tag@std@@U?$pair@$$CBIPAU_OBJECT_EVENT@@@2@HPBU32@ABU32@U_Iterator_base12@2@@std@@QAE@$$QAU01@@Z 005e19b0 f i MAP.obj
 0002:00065a10       ??0?$_Iterator012@Ubidirectional_iterator_tag@std@@U?$pair@$$CBIPAU_OBJECT_EVENT@@@2@HPBU32@ABU32@U_Iterator_base12@2@@std@@QAE@ABU01@@Z 005e1a10 f i MAP.obj
 0002:00065a70       ??0?$_Iterator012@Ubidirectional_iterator_tag@std@@U?$pair@$$CBIPAU_OBJECT_EVENT@@@2@HPBU32@ABU32@U_Iterator_base12@2@@std@@QAE@XZ 005e1a70 f i MAP.obj
 0002:00065ad0       ??0?$_Iterator012@Ubidirectional_iterator_tag@std@@U?$pair@$$CBIPAVCRoomEvent@@@2@HPBU32@ABU32@U_Iterator_base12@2@@std@@QAE@$$QAU01@@Z 005e1ad0 f i MAP.obj
 0002:00065b30       ??0?$_Iterator012@Ubidirectional_iterator_tag@std@@U?$pair@$$CBIPAVCRoomEvent@@@2@HPBU32@ABU32@U_Iterator_base12@2@@std@@QAE@ABU01@@Z 005e1b30 f i MAP.obj
 0002:00065b90       ??0?$_Iterator012@Ubidirectional_iterator_tag@std@@U?$pair@$$CBIPAVCRoomEvent@@@2@HPBU32@ABU32@U_Iterator_base12@2@@std@@QAE@XZ 005e1b90 f i MAP.obj
 0002:00065bf0       ??0?$_Iterator012@Urandom_access_iterator_tag@std@@DHPBDABDU_Iterator_base12@2@@std@@QAE@XZ 005e1bf0 f i MAP.obj
 0002:00065c50       ??0?$_String_const_iterator@V?$_String_val@U?$_Simple_types@D@std@@@std@@@std@@QAE@PBDPBU_Container_base12@1@@Z 005e1c50 f i MAP.obj
 0002:00065d10       ??0?$_String_iterator@V?$_String_val@U?$_Simple_types@D@std@@@std@@@std@@QAE@PADPBU_Container_base12@1@@Z 005e1d10 f i MAP.obj
 0002:00065d70       ??0?$_Tree@V?$_Tmap_traits@IPAHU?$less@I@std@@V?$allocator@U?$pair@$$CBIPAH@std@@@2@$0A@@std@@@std@@QAE@ABU?$less@I@1@@Z 005e1d70 f i MAP.obj
 0002:00065dd0       ??0?$_Tree@V?$_Tmap_traits@IPAVCRoomEvent@@U?$less@I@std@@V?$allocator@U?$pair@$$CBIPAVCRoomEvent@@@std@@@3@$0A@@std@@@std@@QAE@ABU?$less@I@1@@Z 005e1dd0 f i MAP.obj
 0002:00065e30       ??0?$_Tree_comp_alloc@V?$_Tmap_traits@IPAHU?$less@I@std@@V?$allocator@U?$pair@$$CBIPAH@std@@@2@$0A@@std@@@std@@QAE@ABU?$less@I@1@@Z 005e1e30 f i MAP.obj
 0002:00065ef0       ??0?$_Tree_comp_alloc@V?$_Tmap_traits@IPAVCRoomEvent@@U?$less@I@std@@V?$allocator@U?$pair@$$CBIPAVCRoomEvent@@@std@@@3@$0A@@std@@@std@@QAE@ABU?$less@I@1@@Z 005e1ef0 f i MAP.obj
 0002:00065fb0       ??0?$_Tree_const_iterator@V?$_Tree_val@U?$_Tree_simple_types@U?$pair@$$CBIPAH@std@@@std@@@std@@@std@@QAE@$$QAV01@@Z 005e1fb0 f i MAP.obj
 0002:00066010       ??0?$_Tree_const_iterator@V?$_Tree_val@U?$_Tree_simple_types@U?$pair@$$CBIPAH@std@@@std@@@std@@@std@@QAE@ABV01@@Z 005e2010 f i MAP.obj
 0002:00066070       ??0?$_Tree_const_iterator@V?$_Tree_val@U?$_Tree_simple_types@U?$pair@$$CBIPAH@std@@@std@@@std@@@std@@QAE@PAU?$_Tree_node@U?$pair@$$CBIPAH@std@@PAX@1@PBV?$_Tree_val@U?$_Tree_simple_types@U?$pair@$$CBIPAH@std@@@std@@@1@@Z 005e2070 f i MAP.obj
 0002:000660d0       ??0?$_Tree_const_iterator@V?$_Tree_val@U?$_Tree_simple_types@U?$pair@$$CBIPAU_OBJECT_EVENT@@@std@@@std@@@std@@@std@@QAE@$$QAV01@@Z 005e20d0 f i MAP.obj
 0002:00066130       ??0?$_Tree_const_iterator@V?$_Tree_val@U?$_Tree_simple_types@U?$pair@$$CBIPAU_OBJECT_EVENT@@@std@@@std@@@std@@@std@@QAE@ABV01@@Z 005e2130 f i MAP.obj
 0002:00066190       ??0?$_Tree_const_iterator@V?$_Tree_val@U?$_Tree_simple_types@U?$pair@$$CBIPAU_OBJECT_EVENT@@@std@@@std@@@std@@@std@@QAE@PAU?$_Tree_node@U?$pair@$$CBIPAU_OBJECT_EVENT@@@std@@PAX@1@PBV?$_Tree_val@U?$_Tree_simple_types@U?$pair@$$CBIPAU_OBJECT_EVENT@@@std@@@std@@@1@@Z 005e2190 f i MAP.obj
 0002:000661f0       ??0?$_Tree_const_iterator@V?$_Tree_val@U?$_Tree_simple_types@U?$pair@$$CBIPAVCRoomEvent@@@std@@@std@@@std@@@std@@QAE@$$QAV01@@Z 005e21f0 f i MAP.obj
 0002:00066250       ??0?$_Tree_const_iterator@V?$_Tree_val@U?$_Tree_simple_types@U?$pair@$$CBIPAVCRoomEvent@@@std@@@std@@@std@@@std@@QAE@ABV01@@Z 005e2250 f i MAP.obj
 0002:000662b0       ??0?$_Tree_const_iterator@V?$_Tree_val@U?$_Tree_simple_types@U?$pair@$$CBIPAVCRoomEvent@@@std@@@std@@@std@@@std@@QAE@PAU?$_Tree_node@U?$pair@$$CBIPAVCRoomEvent@@@std@@PAX@1@PBV?$_Tree_val@U?$_Tree_simple_types@U?$pair@$$CBIPAVCRoomEvent@@@std@@@std@@@1@@Z 005e22b0 f i MAP.obj
 0002:00066310       ??0?$_Tree_iterator@V?$_Tree_val@U?$_Tree_simple_types@U?$pair@$$CBIPAH@std@@@std@@@std@@@std@@QAE@$$QAV01@@Z 005e2310 f i MAP.obj
 0002:00066370       ??0?$_Tree_iterator@V?$_Tree_val@U?$_Tree_simple_types@U?$pair@$$CBIPAH@std@@@std@@@std@@@std@@QAE@ABV01@@Z 005e2370 f i MAP.obj
 0002:000663d0       ??0?$_Tree_iterator@V?$_Tree_val@U?$_Tree_simple_types@U?$pair@$$CBIPAH@std@@@std@@@std@@@std@@QAE@PAU?$_Tree_node@U?$pair@$$CBIPAH@std@@PAX@1@PBV?$_Tree_val@U?$_Tree_simple_types@U?$pair@$$CBIPAH@std@@@std@@@1@@Z 005e23d0 f i MAP.obj
 0002:00066430       ??0?$_Tree_iterator@V?$_Tree_val@U?$_Tree_simple_types@U?$pair@$$CBIPAU_OBJECT_EVENT@@@std@@@std@@@std@@@std@@QAE@$$QAV01@@Z 005e2430 f i MAP.obj
 0002:00066490       ??0?$_Tree_iterator@V?$_Tree_val@U?$_Tree_simple_types@U?$pair@$$CBIPAU_OBJECT_EVENT@@@std@@@std@@@std@@@std@@QAE@ABV01@@Z 005e2490 f i MAP.obj
 0002:000664f0       ??0?$_Tree_iterator@V?$_Tree_val@U?$_Tree_simple_types@U?$pair@$$CBIPAU_OBJECT_EVENT@@@std@@@std@@@std@@@std@@QAE@PAU?$_Tree_node@U?$pair@$$CBIPAU_OBJECT_EVENT@@@std@@PAX@1@PBV?$_Tree_val@U?$_Tree_simple_types@U?$pair@$$CBIPAU_OBJECT_EVENT@@@std@@@std@@@1@@Z 005e24f0 f i MAP.obj
 0002:00066550       ??0?$_Tree_iterator@V?$_Tree_val@U?$_Tree_simple_types@U?$pair@$$CBIPAVCRoomEvent@@@std@@@std@@@std@@@std@@QAE@$$QAV01@@Z 005e2550 f i MAP.obj
 0002:000665b0       ??0?$_Tree_iterator@V?$_Tree_val@U?$_Tree_simple_types@U?$pair@$$CBIPAVCRoomEvent@@@std@@@std@@@std@@@std@@QAE@ABV01@@Z 005e25b0 f i MAP.obj
 0002:00066610       ??0?$_Tree_iterator@V?$_Tree_val@U?$_Tree_simple_types@U?$pair@$$CBIPAVCRoomEvent@@@std@@@std@@@std@@@std@@QAE@PAU?$_Tree_node@U?$pair@$$CBIPAVCRoomEvent@@@std@@PAX@1@PBV?$_Tree_val@U?$_Tree_simple_types@U?$pair@$$CBIPAVCRoomEvent@@@std@@@std@@@1@@Z 005e2610 f i MAP.obj
 0002:00066670       ??0?$_Tree_unchecked_const_iterator@V?$_Tree_val@U?$_Tree_simple_types@U?$pair@$$CBIPAH@std@@@std@@@std@@U_Iterator_base12@2@@std@@QAE@$$QAV01@@Z 005e2670 f i MAP.obj
 0002:000666e0       ??0?$_Tree_unchecked_const_iterator@V?$_Tree_val@U?$_Tree_simple_types@U?$pair@$$CBIPAH@std@@@std@@@std@@U_Iterator_base12@2@@std@@QAE@ABV01@@Z 005e26e0 f i MAP.obj
 0002:00066750       ??0?$_Tree_unchecked_const_iterator@V?$_Tree_val@U?$_Tree_simple_types@U?$pair@$$CBIPAH@std@@@std@@@std@@U_Iterator_base12@2@@std@@QAE@PAU?$_Tree_node@U?$pair@$$CBIPAH@std@@PAX@1@PBV?$_Tree_val@U?$_Tree_simple_types@U?$pair@$$CBIPAH@std@@@std@@@1@@Z 005e2750 f i MAP.obj
 0002:00066810       ??0?$_Tree_unchecked_const_iterator@V?$_Tree_val@U?$_Tree_simple_types@U?$pair@$$CBIPAU_OBJECT_EVENT@@@std@@@std@@@std@@U_Iterator_base12@2@@std@@QAE@$$QAV01@@Z 005e2810 f i MAP.obj
 0002:00066880       ??0?$_Tree_unchecked_const_iterator@V?$_Tree_val@U?$_Tree_simple_types@U?$pair@$$CBIPAU_OBJECT_EVENT@@@std@@@std@@@std@@U_Iterator_base12@2@@std@@QAE@ABV01@@Z 005e2880 f i MAP.obj
 0002:000668f0       ??0?$_Tree_unchecked_const_iterator@V?$_Tree_val@U?$_Tree_simple_types@U?$pair@$$CBIPAU_OBJECT_EVENT@@@std@@@std@@@std@@U_Iterator_base12@2@@std@@QAE@PAU?$_Tree_node@U?$pair@$$CBIPAU_OBJECT_EVENT@@@std@@PAX@1@PBV?$_Tree_val@U?$_Tree_simple_types@U?$pair@$$CBIPAU_OBJECT_EVENT@@@std@@@std@@@1@@Z 005e28f0 f i MAP.obj
 0002:000669b0       ??0?$_Tree_unchecked_const_iterator@V?$_Tree_val@U?$_Tree_simple_types@U?$pair@$$CBIPAVCRoomEvent@@@std@@@std@@@std@@U_Iterator_base12@2@@std@@QAE@$$QAV01@@Z 005e29b0 f i MAP.obj
 0002:00066a20       ??0?$_Tree_unchecked_const_iterator@V?$_Tree_val@U?$_Tree_simple_types@U?$pair@$$CBIPAVCRoomEvent@@@std@@@std@@@std@@U_Iterator_base12@2@@std@@QAE@ABV01@@Z 005e2a20 f i MAP.obj
 0002:00066a90       ??0?$_Tree_unchecked_const_iterator@V?$_Tree_val@U?$_Tree_simple_types@U?$pair@$$CBIPAVCRoomEvent@@@std@@@std@@@std@@U_Iterator_base12@2@@std@@QAE@PAU?$_Tree_node@U?$pair@$$CBIPAVCRoomEvent@@@std@@PAX@1@PBV?$_Tree_val@U?$_Tree_simple_types@U?$pair@$$CBIPAVCRoomEvent@@@std@@@std@@@1@@Z 005e2a90 f i MAP.obj
 0002:00066b50       ??0?$_Tree_val@U?$_Tree_simple_types@U?$pair@$$CBIPAH@std@@@std@@@std@@QAE@XZ 005e2b50 f i MAP.obj
 0002:00066bc0       ??0?$_Tree_val@U?$_Tree_simple_types@U?$pair@$$CBIPAVCRoomEvent@@@std@@@std@@@std@@QAE@XZ 005e2bc0 f i MAP.obj
 0002:00066c30       ??0?$_Wrap_alloc@V?$allocator@D@std@@@std@@QAE@$$QAU01@@Z 005e2c30 f i MAP.obj
 0002:00066ca0       ??0?$_Wrap_alloc@V?$allocator@U?$_Tree_node@U?$pair@$$CBIPAH@std@@PAX@std@@@std@@@std@@QAE@XZ 005e2ca0 f i MAP.obj
 0002:00066d00       ??0?$_Wrap_alloc@V?$allocator@U?$_Tree_node@U?$pair@$$CBIPAVCRoomEvent@@@std@@PAX@std@@@std@@@std@@QAE@XZ 005e2d00 f i MAP.obj
 0002:00066d60       ??0?$_Yarn@D@std@@QAE@XZ   005e2d60 f i MAP.obj
 0002:00066db0       ??0?$_Yarn@_W@std@@QAE@XZ  005e2db0 f i MAP.obj
 0002:00066e00       ??0?$allocator@D@std@@QAE@ABV01@@Z 005e2e00 f i MAP.obj
 0002:00066e40       ??0?$allocator@U?$_Tree_node@U?$pair@$$CBIPAH@std@@PAX@std@@@std@@QAE@XZ 005e2e40 f i MAP.obj
 0002:00066e80       ??0?$allocator@U?$_Tree_node@U?$pair@$$CBIPAVCRoomEvent@@@std@@PAX@std@@@std@@QAE@XZ 005e2e80 f i MAP.obj
 0002:00066ec0       ??0?$basic_filebuf@DU?$char_traits@D@std@@@std@@QAE@PAU_iobuf@@@Z 005e2ec0 f i MAP.obj
 0002:00066f80       ??0?$basic_ifstream@DU?$char_traits@D@std@@@std@@QAE@ABV?$basic_string@DU?$char_traits@D@std@@V?$allocator@D@2@@1@HH@Z 005e2f80 f i MAP.obj
 0002:00067110       ??0?$basic_ios@DU?$char_traits@D@std@@@std@@IAE@XZ 005e3110 f i MAP.obj
 0002:00067170       ??0?$basic_istream@DU?$char_traits@D@std@@@std@@QAE@PAV?$basic_streambuf@DU?$char_traits@D@std@@@1@_N@Z 005e3170 f i MAP.obj
 0002:000672b0       ??0?$basic_streambuf@DU?$char_traits@D@std@@@std@@IAE@XZ 005e32b0 f i MAP.obj
 0002:00067360       ??0?$basic_string@DU?$char_traits@D@std@@V?$allocator@D@2@@std@@QAE@$$QAV01@@Z 005e3360 f i MAP.obj
 0002:00067430       ??0?$basic_string@DU?$char_traits@D@std@@V?$allocator@D@2@@std@@QAE@ABV01@@Z 005e3430 f i MAP.obj
 0002:00067520       ??0?$basic_string@DU?$char_traits@D@std@@V?$allocator@D@2@@std@@QAE@ID@Z 005e3520 f i MAP.obj
 0002:000675e0       ??0?$basic_string@DU?$char_traits@D@std@@V?$allocator@D@2@@std@@QAE@PBD@Z 005e35e0 f i MAP.obj
 0002:000676a0       ??0?$codecvt@DDU_Mbstatet@@@std@@QAE@ABV_Locinfo@1@I@Z 005e36a0 f i MAP.obj
 0002:00067760       ??0?$ctype@D@std@@QAE@ABV_Locinfo@1@I@Z 005e3760 f i MAP.obj
 0002:00067820       ??0?$fpos@U_Mbstatet@@@std@@QAE@U_Mbstatet@@_J@Z 005e3820 f i MAP.obj
 0002:000678a0       ??0?$fpos@U_Mbstatet@@@std@@QAE@_J@Z 005e38a0 f i MAP.obj
 0002:00067920       ??0?$map@IPAHU?$less@I@std@@V?$allocator@U?$pair@$$CBIPAH@std@@@2@@std@@QAE@XZ 005e3920 f i MAP.obj
 0002:00067980       ??0?$map@IPAVCRoomEvent@@U?$less@I@std@@V?$allocator@U?$pair@$$CBIPAVCRoomEvent@@@std@@@3@@std@@QAE@XZ 005e3980 f i MAP.obj
 0002:000679e0       ??0CPoint@@QAE@HH@Z        005e39e0 f i MAP.obj
 0002:00067a30       ??0CRect@@QAE@HHHH@Z       005e3a30 f i MAP.obj
 0002:00067ab0       ??0CRegion@@QAE@XZ         005e3ab0 f i MAP.obj
 0002:00067b60       ??0MAP@@QAE@XZ             005e3b60 f   MAP.obj
 0002:00067c90       ??0_Facet_base@std@@QAE@XZ 005e3c90 f i MAP.obj
 0002:00067ce0       ??0_Generic_error_category@std@@QAE@XZ 005e3ce0 f i MAP.obj
 0002:00067d50       ??0_Iostream_error_category@std@@QAE@XZ 005e3d50 f i MAP.obj
 0002:00067dc0       ??0_Locinfo@std@@QAE@PBD@Z 005e3dc0 f i MAP.obj
 0002:00067f20       ??0_Sentry_base@?$basic_istream@DU?$char_traits@D@std@@@std@@QAE@AAV12@@Z 005e3f20 f i MAP.obj
 0002:00068000       ??0_Sentry_base@?$basic_ostream@DU?$char_traits@D@std@@@std@@QAE@AAV12@@Z 005e4000 f i MAP.obj
 0002:000680e0       ??0_System_error@std@@IAE@Verror_code@1@ABV?$basic_string@DU?$char_traits@D@std@@V?$allocator@D@2@@1@@Z 005e40e0 f i MAP.obj
 0002:00068220       ??0_System_error@std@@QAE@ABV01@@Z 005e4220 f i MAP.obj
 0002:000682a0       ??0bad_cast@std@@QAE@ABV01@@Z 005e42a0 f i MAP.obj
 0002:00068310       ??0bad_cast@std@@QAE@XZ    005e4310 f i MAP.obj
 0002:00068380       ??0codecvt_base@std@@QAE@I@Z 005e4380 f i MAP.obj
 0002:000683f0       ??0ctype_base@std@@QAE@I@Z 005e43f0 f i MAP.obj
 0002:00068460       ??0error_category@std@@QAE@XZ 005e4460 f i MAP.obj
 0002:000684b0       ??0error_code@std@@QAE@HABVerror_category@1@@Z 005e44b0 f i MAP.obj
 0002:00068500       ??0error_condition@std@@QAE@HABVerror_category@1@@Z 005e4500 f i MAP.obj
 0002:00068550       ??0exception@std@@QAE@ABV01@@Z 005e4550 f i MAP.obj
 0002:000685e0       ??0exception@std@@QAE@QBD@Z 005e45e0 f i MAP.obj
 0002:000686b0       ??0exception@std@@QAE@QBDH@Z 005e46b0 f i MAP.obj
 0002:00068720       ??0facet@locale@std@@IAE@I@Z 005e4720 f i MAP.obj
 0002:000687e0       ??0failure@ios_base@std@@QAE@ABV012@@Z 005e47e0 f i MAP.obj
 0002:00068850       ??0failure@ios_base@std@@QAE@PBDABVerror_code@2@@Z 005e4850 f i MAP.obj
 0002:000688d0       ??0id@locale@std@@QAE@I@Z  005e48d0 f i MAP.obj
 0002:00068920       ??0ios_base@std@@IAE@XZ    005e4920 f i MAP.obj
 0002:00068970       ??0locale@std@@QAE@ABV01@@Z 005e4970 f i MAP.obj
 0002:00068a30       ??0locale@std@@QAE@XZ      005e4a30 f i MAP.obj
 0002:00068ad0       ??0runtime_error@std@@QAE@ABV01@@Z 005e4ad0 f i MAP.obj
 0002:00068b40       ??0runtime_error@std@@QAE@ABV?$basic_string@DU?$char_traits@D@std@@V?$allocator@D@2@@1@@Z 005e4b40 f i MAP.obj
 0002:00068bb0       ??0runtime_error@std@@QAE@PBD@Z 005e4bb0 f i MAP.obj
 0002:00068c20       ??0sentry@?$basic_istream@DU?$char_traits@D@std@@@std@@QAE@AAV12@_N@Z 005e4c20 f i MAP.obj
 0002:00068ce0       ??0sentry@?$basic_ostream@DU?$char_traits@D@std@@@std@@QAE@AAV12@@Z 005e4ce0 f i MAP.obj
 0002:00068e20       ??0system_error@std@@QAE@ABV01@@Z 005e4e20 f i MAP.obj
 0002:00068e90       ??0system_error@std@@QAE@Verror_code@1@PBD@Z 005e4e90 f i MAP.obj
 0002:00068f80       ??1?$CSTLMap@H@@QAE@XZ     005e4f80 f i MAP.obj
 0002:00069020       ??1?$CSTLMap@VCRoomEvent@@@@QAE@XZ 005e5020 f i MAP.obj
 0002:000690c0       ??1?$_Compressed_pair@U?$_Wrap_alloc@V?$allocator@U?$_Tree_node@U?$pair@$$CBIPAH@std@@PAX@std@@@std@@@std@@V?$_Tree_val@U?$_Tree_simple_types@U?$pair@$$CBIPAH@std@@@std@@@2@$00@std@@QAE@XZ 005e50c0 f i MAP.obj
 0002:00069110       ??1?$_Compressed_pair@U?$_Wrap_alloc@V?$allocator@U?$_Tree_node@U?$pair@$$CBIPAVCRoomEvent@@@std@@PAX@std@@@std@@@std@@V?$_Tree_val@U?$_Tree_simple_types@U?$pair@$$CBIPAVCRoomEvent@@@std@@@std@@@2@$00@std@@QAE@XZ 005e5110 f i MAP.obj
 0002:00069160       ??1?$_Compressed_pair@U?$less@I@std@@V?$_Compressed_pair@U?$_Wrap_alloc@V?$allocator@U?$_Tree_node@U?$pair@$$CBIPAH@std@@PAX@std@@@std@@@std@@V?$_Tree_val@U?$_Tree_simple_types@U?$pair@$$CBIPAH@std@@@std@@@2@$00@2@$00@std@@QAE@XZ 005e5160 f i MAP.obj
 0002:000691b0       ??1?$_Compressed_pair@U?$less@I@std@@V?$_Compressed_pair@U?$_Wrap_alloc@V?$allocator@U?$_Tree_node@U?$pair@$$CBIPAVCRoomEvent@@@std@@PAX@std@@@std@@@std@@V?$_Tree_val@U?$_Tree_simple_types@U?$pair@$$CBIPAVCRoomEvent@@@std@@@std@@@2@$00@2@$00@std@@QAE@XZ 005e51b0 f i MAP.obj
 0002:00069200       ??1?$_Immortalizer@V_Iostream_error_category@std@@@std@@QAE@XZ 005e5200 f i MAP.obj
 0002:00069240       ??1?$_Iterator012@Ubidirectional_iterator_tag@std@@U?$pair@$$CBIPAH@2@HPBU32@ABU32@U_Iterator_base12@2@@std@@QAE@XZ 005e5240 f i MAP.obj
 0002:00069290       ??1?$_Iterator012@Ubidirectional_iterator_tag@std@@U?$pair@$$CBIPAU_OBJECT_EVENT@@@2@HPBU32@ABU32@U_Iterator_base12@2@@std@@QAE@XZ 005e5290 f i MAP.obj
 0002:000692e0       ??1?$_Iterator012@Ubidirectional_iterator_tag@std@@U?$pair@$$CBIPAVCRoomEvent@@@2@HPBU32@ABU32@U_Iterator_base12@2@@std@@QAE@XZ 005e52e0 f i MAP.obj
 0002:00069330       ??1?$_Iterator012@Urandom_access_iterator_tag@std@@DHPBDABDU_Iterator_base12@2@@std@@QAE@XZ 005e5330 f i MAP.obj
 0002:00069380       ??1?$_String_const_iterator@V?$_String_val@U?$_Simple_types@D@std@@@std@@@std@@QAE@XZ 005e5380 f i MAP.obj
 0002:000693d0       ??1?$_String_iterator@V?$_String_val@U?$_Simple_types@D@std@@@std@@@std@@QAE@XZ 005e53d0 f i MAP.obj
 0002:00069420       ??1?$_Tree@V?$_Tmap_traits@IPAHU?$less@I@std@@V?$allocator@U?$pair@$$CBIPAH@std@@@2@$0A@@std@@@std@@QAE@XZ 005e5420 f i MAP.obj
 0002:000694b0       ??1?$_Tree@V?$_Tmap_traits@IPAVCRoomEvent@@U?$less@I@std@@V?$allocator@U?$pair@$$CBIPAVCRoomEvent@@@std@@@3@$0A@@std@@@std@@QAE@XZ 005e54b0 f i MAP.obj
 0002:00069540       ??1?$_Tree_comp_alloc@V?$_Tmap_traits@IPAHU?$less@I@std@@V?$allocator@U?$pair@$$CBIPAH@std@@@2@$0A@@std@@@std@@QAE@XZ 005e5540 f i MAP.obj
 0002:000695f0       ??1?$_Tree_comp_alloc@V?$_Tmap_traits@IPAVCRoomEvent@@U?$less@I@std@@V?$allocator@U?$pair@$$CBIPAVCRoomEvent@@@std@@@3@$0A@@std@@@std@@QAE@XZ 005e55f0 f i MAP.obj
 0002:000696a0       ??1?$_Tree_const_iterator@V?$_Tree_val@U?$_Tree_simple_types@U?$pair@$$CBIPAH@std@@@std@@@std@@@std@@QAE@XZ 005e56a0 f i MAP.obj
 0002:000696f0       ??1?$_Tree_const_iterator@V?$_Tree_val@U?$_Tree_simple_types@U?$pair@$$CBIPAU_OBJECT_EVENT@@@std@@@std@@@std@@@std@@QAE@XZ 005e56f0 f i MAP.obj
 0002:00069740       ??1?$_Tree_const_iterator@V?$_Tree_val@U?$_Tree_simple_types@U?$pair@$$CBIPAVCRoomEvent@@@std@@@std@@@std@@@std@@QAE@XZ 005e5740 f i MAP.obj
 0002:00069790       ??1?$_Tree_iterator@V?$_Tree_val@U?$_Tree_simple_types@U?$pair@$$CBIPAH@std@@@std@@@std@@@std@@QAE@XZ 005e5790 f i MAP.obj
 0002:000697e0       ??1?$_Tree_iterator@V?$_Tree_val@U?$_Tree_simple_types@U?$pair@$$CBIPAU_OBJECT_EVENT@@@std@@@std@@@std@@@std@@QAE@XZ 005e57e0 f i MAP.obj
 0002:00069830       ??1?$_Tree_iterator@V?$_Tree_val@U?$_Tree_simple_types@U?$pair@$$CBIPAVCRoomEvent@@@std@@@std@@@std@@@std@@QAE@XZ 005e5830 f i MAP.obj
 0002:00069880       ??1?$_Tree_unchecked_const_iterator@V?$_Tree_val@U?$_Tree_simple_types@U?$pair@$$CBIPAH@std@@@std@@@std@@U_Iterator_base12@2@@std@@QAE@XZ 005e5880 f i MAP.obj
 0002:000698d0       ??1?$_Tree_unchecked_const_iterator@V?$_Tree_val@U?$_Tree_simple_types@U?$pair@$$CBIPAU_OBJECT_EVENT@@@std@@@std@@@std@@U_Iterator_base12@2@@std@@QAE@XZ 005e58d0 f i MAP.obj
 0002:00069920       ??1?$_Tree_unchecked_const_iterator@V?$_Tree_val@U?$_Tree_simple_types@U?$pair@$$CBIPAVCRoomEvent@@@std@@@std@@@std@@U_Iterator_base12@2@@std@@QAE@XZ 005e5920 f i MAP.obj
 0002:00069970       ??1?$_Tree_val@U?$_Tree_simple_types@U?$pair@$$CBIPAH@std@@@std@@@std@@QAE@XZ 005e5970 f i MAP.obj
 0002:000699c0       ??1?$_Tree_val@U?$_Tree_simple_types@U?$pair@$$CBIPAVCRoomEvent@@@std@@@std@@@std@@QAE@XZ 005e59c0 f i MAP.obj
 0002:00069a10       ??1?$_Yarn@D@std@@QAE@XZ   005e5a10 f i MAP.obj
 0002:00069aa0       ??1?$_Yarn@_W@std@@QAE@XZ  005e5aa0 f i MAP.obj
 0002:00069b30       ??1?$basic_filebuf@DU?$char_traits@D@std@@@std@@UAE@XZ 005e5b30 f i MAP.obj
 0002:00069bf0       ??1?$basic_ifstream@DU?$char_traits@D@std@@@std@@UAE@XZ 005e5bf0 f i MAP.obj
 0002:00069c90       ??1?$basic_ios@DU?$char_traits@D@std@@@std@@UAE@XZ 005e5c90 f i MAP.obj
 0002:00069cf0       ??1?$basic_istream@DU?$char_traits@D@std@@@std@@UAE@XZ 005e5cf0 f i MAP.obj
 0002:00069d60       ??1?$basic_streambuf@DU?$char_traits@D@std@@@std@@UAE@XZ 005e5d60 f i MAP.obj
 0002:00069e00       ??1?$codecvt@DDU_Mbstatet@@@std@@MAE@XZ 005e5e00 f i MAP.obj
 0002:00069e60       ??1?$ctype@D@std@@MAE@XZ   005e5e60 f i MAP.obj
 0002:00069f00       ??1?$map@IPAHU?$less@I@std@@V?$allocator@U?$pair@$$CBIPAH@std@@@2@@std@@QAE@XZ 005e5f00 f i MAP.obj
 0002:00069f50       ??1?$map@IPAVCRoomEvent@@U?$less@I@std@@V?$allocator@U?$pair@$$CBIPAVCRoomEvent@@@std@@@3@@std@@QAE@XZ 005e5f50 f i MAP.obj
 0002:00069fa0       ??1?$pair@V?$_Tree_iterator@V?$_Tree_val@U?$_Tree_simple_types@U?$pair@$$CBIPAH@std@@@std@@@std@@@std@@_N@std@@QAE@XZ 005e5fa0 f i MAP.obj
 0002:00069ff0       ??1?$pair@V?$_Tree_iterator@V?$_Tree_val@U?$_Tree_simple_types@U?$pair@$$CBIPAU_OBJECT_EVENT@@@std@@@std@@@std@@@std@@_N@std@@QAE@XZ 005e5ff0 f i MAP.obj
 0002:0006a040       ??1?$pair@V?$_Tree_iterator@V?$_Tree_val@U?$_Tree_simple_types@U?$pair@$$CBIPAVCRoomEvent@@@std@@@std@@@std@@@std@@_N@std@@QAE@XZ 005e6040 f i MAP.obj
 0002:0006a090       ??1CRegion@@QAE@XZ         005e6090 f i MAP.obj
 0002:0006a0f0       ??1MAP@@UAE@XZ             005e60f0 f   MAP.obj
 0002:0006a1c0       ??1_Facet_base@std@@UAE@XZ 005e61c0 f i MAP.obj
 0002:0006a200       ??1_Generic_error_category@std@@UAE@XZ 005e6200 f i MAP.obj
 0002:0006a250       ??1_Iostream_error_category@std@@UAE@XZ 005e6250 f i MAP.obj
 0002:0006a2a0       ??1_Locinfo@std@@QAE@XZ    005e62a0 f i MAP.obj
 0002:0006a390       ??1_Sentry_base@?$basic_istream@DU?$char_traits@D@std@@@std@@QAE@XZ 005e6390 f i MAP.obj
 0002:0006a490       ??1_Sentry_base@?$basic_ostream@DU?$char_traits@D@std@@@std@@QAE@XZ 005e6490 f i MAP.obj
 0002:0006a590       ??1_System_error@std@@UAE@XZ 005e6590 f i MAP.obj
 0002:0006a5e0       ??1bad_cast@std@@UAE@XZ    005e65e0 f i MAP.obj
 0002:0006a630       ??1codecvt_base@std@@UAE@XZ 005e6630 f i MAP.obj
 0002:0006a690       ??1ctype_base@std@@UAE@XZ  005e6690 f i MAP.obj
 0002:0006a6f0       ??1error_category@std@@UAE@XZ 005e66f0 f i MAP.obj
 0002:0006a730       ??1exception@std@@UAE@XZ   005e6730 f i MAP.obj
 0002:0006a7a0       ??1facet@locale@std@@MAE@XZ 005e67a0 f i MAP.obj
 0002:0006a800       ??1failure@ios_base@std@@UAE@XZ 005e6800 f i MAP.obj
 0002:0006a850       ??1ios_base@std@@UAE@XZ    005e6850 f i MAP.obj
 0002:0006a8f0       ??1locale@std@@QAE@XZ      005e68f0 f i MAP.obj
 0002:0006aa00       ??1runtime_error@std@@UAE@XZ 005e6a00 f i MAP.obj
 0002:0006aa50       ??1sentry@?$basic_istream@DU?$char_traits@D@std@@@std@@QAE@XZ 005e6a50 f i MAP.obj
 0002:0006aaa0       ??1sentry@?$basic_ostream@DU?$char_traits@D@std@@@std@@QAE@XZ 005e6aa0 f i MAP.obj
 0002:0006ab40       ??1system_error@std@@UAE@XZ 005e6b40 f i MAP.obj
 0002:0006ab90       ??2_Crt_new_delete@std@@SAPAXI@Z 005e6b90 f i MAP.obj
 0002:0006ac00       ??2_Crt_new_delete@std@@SAPAXIABUnothrow_t@1@@Z 005e6c00 f i MAP.obj
 0002:0006ac80       ??3_Crt_new_delete@std@@SAXPAX@Z 005e6c80 f i MAP.obj
 0002:0006acd0       ??7ios_base@std@@QBE_NXZ   005e6cd0 f i MAP.obj
 0002:0006ad20       ??8?$_Tree_const_iterator@V?$_Tree_val@U?$_Tree_simple_types@U?$pair@$$CBIPAH@std@@@std@@@std@@@std@@QBE_NABV01@@Z 005e6d20 f i MAP.obj
 0002:0006ae40       ??8?$_Tree_const_iterator@V?$_Tree_val@U?$_Tree_simple_types@U?$pair@$$CBIPAU_OBJECT_EVENT@@@std@@@std@@@std@@@std@@QBE_NABV01@@Z 005e6e40 f i MAP.obj
 0002:0006af60       ??8?$_Tree_const_iterator@V?$_Tree_val@U?$_Tree_simple_types@U?$pair@$$CBIPAVCRoomEvent@@@std@@@std@@@std@@@std@@QBE_NABV01@@Z 005e6f60 f i MAP.obj
 0002:0006b080       ??8error_category@std@@QBE_NABV01@@Z 005e7080 f i MAP.obj
 0002:0006b0f0       ??8std@@YA_NABVerror_condition@0@0@Z 005e70f0 f i MAP.obj
 0002:0006b1a0       ??9?$_Tree_const_iterator@V?$_Tree_val@U?$_Tree_simple_types@U?$pair@$$CBIPAH@std@@@std@@@std@@@std@@QBE_NABV01@@Z 005e71a0 f i MAP.obj
 0002:0006b230       ??9?$_Tree_const_iterator@V?$_Tree_val@U?$_Tree_simple_types@U?$pair@$$CBIPAU_OBJECT_EVENT@@@std@@@std@@@std@@@std@@QBE_NABV01@@Z 005e7230 f i MAP.obj
 0002:0006b2c0       ??9?$_Tree_const_iterator@V?$_Tree_val@U?$_Tree_simple_types@U?$pair@$$CBIPAVCRoomEvent@@@std@@@std@@@std@@@std@@QBE_NABV01@@Z 005e72c0 f i MAP.obj
 0002:0006b350       ??B?$fpos@U_Mbstatet@@@std@@QBE_JXZ 005e7350 f i MAP.obj
 0002:0006b3a0       ??Bid@locale@std@@QAEIXZ   005e73a0 f i MAP.obj
 0002:0006b470       ??Bsentry@?$basic_istream@DU?$char_traits@D@std@@@std@@QBE_NXZ 005e7470 f i MAP.obj
 0002:0006b4b0       ??Bsentry@?$basic_ostream@DU?$char_traits@D@std@@@std@@QBE_NXZ 005e74b0 f i MAP.obj
 0002:0006b4f0       ??C?$_Tree_iterator@V?$_Tree_val@U?$_Tree_simple_types@U?$pair@$$CBIPAH@std@@@std@@@std@@@std@@QBEPAU?$pair@$$CBIPAH@1@XZ 005e74f0 f i MAP.obj
 0002:0006b550       ??C?$_Tree_iterator@V?$_Tree_val@U?$_Tree_simple_types@U?$pair@$$CBIPAU_OBJECT_EVENT@@@std@@@std@@@std@@@std@@QBEPAU?$pair@$$CBIPAU_OBJECT_EVENT@@@1@XZ 005e7550 f i MAP.obj
 0002:0006b5b0       ??C?$_Tree_iterator@V?$_Tree_val@U?$_Tree_simple_types@U?$pair@$$CBIPAVCRoomEvent@@@std@@@std@@@std@@@std@@QBEPAU?$pair@$$CBIPAVCRoomEvent@@@1@XZ 005e75b0 f i MAP.obj
 0002:0006b610       ??D?$_String_const_iterator@V?$_String_val@U?$_Simple_types@D@std@@@std@@@std@@QBEABDXZ 005e7610 f i MAP.obj
 0002:0006b740       ??D?$_String_iterator@V?$_String_val@U?$_Simple_types@D@std@@@std@@@std@@QBEAADXZ 005e7740 f i MAP.obj
 0002:0006b790       ??D?$_Tree_const_iterator@V?$_Tree_val@U?$_Tree_simple_types@U?$pair@$$CBIPAH@std@@@std@@@std@@@std@@QBEABU?$pair@$$CBIPAH@1@XZ 005e7790 f i MAP.obj
 0002:0006b8a0       ??D?$_Tree_const_iterator@V?$_Tree_val@U?$_Tree_simple_types@U?$pair@$$CBIPAU_OBJECT_EVENT@@@std@@@std@@@std@@@std@@QBEABU?$pair@$$CBIPAU_OBJECT_EVENT@@@1@XZ 005e78a0 f i MAP.obj
 0002:0006b9b0       ??D?$_Tree_const_iterator@V?$_Tree_val@U?$_Tree_simple_types@U?$pair@$$CBIPAVCRoomEvent@@@std@@@std@@@std@@@std@@QBEABU?$pair@$$CBIPAVCRoomEvent@@@1@XZ 005e79b0 f i MAP.obj
 0002:0006bac0       ??D?$_Tree_iterator@V?$_Tree_val@U?$_Tree_simple_types@U?$pair@$$CBIPAH@std@@@std@@@std@@@std@@QBEAAU?$pair@$$CBIPAH@1@XZ 005e7ac0 f i MAP.obj
 0002:0006bb10       ??D?$_Tree_iterator@V?$_Tree_val@U?$_Tree_simple_types@U?$pair@$$CBIPAU_OBJECT_EVENT@@@std@@@std@@@std@@@std@@QBEAAU?$pair@$$CBIPAU_OBJECT_EVENT@@@1@XZ 005e7b10 f i MAP.obj
 0002:0006bb60       ??D?$_Tree_iterator@V?$_Tree_val@U?$_Tree_simple_types@U?$pair@$$CBIPAVCRoomEvent@@@std@@@std@@@std@@@std@@QBEAAU?$pair@$$CBIPAVCRoomEvent@@@1@XZ 005e7b60 f i MAP.obj
 0002:0006bbb0       ??E?$_Tree_const_iterator@V?$_Tree_val@U?$_Tree_simple_types@U?$pair@$$CBIPAH@std@@@std@@@std@@@std@@QAE?AV01@H@Z 005e7bb0 f i MAP.obj
 0002:0006bcd0       ??E?$_Tree_const_iterator@V?$_Tree_val@U?$_Tree_simple_types@U?$pair@$$CBIPAH@std@@@std@@@std@@@std@@QAEAAV01@XZ 005e7cd0 f i MAP.obj
 0002:0006bde0       ??E?$_Tree_const_iterator@V?$_Tree_val@U?$_Tree_simple_types@U?$pair@$$CBIPAU_OBJECT_EVENT@@@std@@@std@@@std@@@std@@QAEAAV01@XZ 005e7de0 f i MAP.obj
 0002:0006bef0       ??E?$_Tree_const_iterator@V?$_Tree_val@U?$_Tree_simple_types@U?$pair@$$CBIPAVCRoomEvent@@@std@@@std@@@std@@@std@@QAE?AV01@H@Z 005e7ef0 f i MAP.obj
 0002:0006c010       ??E?$_Tree_const_iterator@V?$_Tree_val@U?$_Tree_simple_types@U?$pair@$$CBIPAVCRoomEvent@@@std@@@std@@@std@@@std@@QAEAAV01@XZ 005e8010 f i MAP.obj
 0002:0006c120       ??E?$_Tree_iterator@V?$_Tree_val@U?$_Tree_simple_types@U?$pair@$$CBIPAH@std@@@std@@@std@@@std@@QAE?AV01@H@Z 005e8120 f i MAP.obj
 0002:0006c240       ??E?$_Tree_iterator@V?$_Tree_val@U?$_Tree_simple_types@U?$pair@$$CBIPAH@std@@@std@@@std@@@std@@QAEAAV01@XZ 005e8240 f i MAP.obj
 0002:0006c2a0       ??E?$_Tree_iterator@V?$_Tree_val@U?$_Tree_simple_types@U?$pair@$$CBIPAU_OBJECT_EVENT@@@std@@@std@@@std@@@std@@QAE?AV01@H@Z 005e82a0 f i MAP.obj
 0002:0006c3c0       ??E?$_Tree_iterator@V?$_Tree_val@U?$_Tree_simple_types@U?$pair@$$CBIPAU_OBJECT_EVENT@@@std@@@std@@@std@@@std@@QAEAAV01@XZ 005e83c0 f i MAP.obj
 0002:0006c420       ??E?$_Tree_iterator@V?$_Tree_val@U?$_Tree_simple_types@U?$pair@$$CBIPAVCRoomEvent@@@std@@@std@@@std@@@std@@QAE?AV01@H@Z 005e8420 f i MAP.obj
 0002:0006c540       ??E?$_Tree_iterator@V?$_Tree_val@U?$_Tree_simple_types@U?$pair@$$CBIPAVCRoomEvent@@@std@@@std@@@std@@@std@@QAEAAV01@XZ 005e8540 f i MAP.obj
 0002:0006c5a0       ??E?$_Tree_unchecked_const_iterator@V?$_Tree_val@U?$_Tree_simple_types@U?$pair@$$CBIPAH@std@@@std@@@std@@U_Iterator_base12@2@@std@@QAEAAV01@XZ 005e85a0 f i MAP.obj
 0002:0006c6d0       ??E?$_Tree_unchecked_const_iterator@V?$_Tree_val@U?$_Tree_simple_types@U?$pair@$$CBIPAU_OBJECT_EVENT@@@std@@@std@@@std@@U_Iterator_base12@2@@std@@QAEAAV01@XZ 005e86d0 f i MAP.obj
 0002:0006c800       ??E?$_Tree_unchecked_const_iterator@V?$_Tree_val@U?$_Tree_simple_types@U?$pair@$$CBIPAVCRoomEvent@@@std@@@std@@@std@@U_Iterator_base12@2@@std@@QAEAAV01@XZ 005e8800 f i MAP.obj
 0002:0006c930       ??F?$_Tree_const_iterator@V?$_Tree_val@U?$_Tree_simple_types@U?$pair@$$CBIPAH@std@@@std@@@std@@@std@@QAEAAV01@XZ 005e8930 f i MAP.obj
 0002:0006cac0       ??F?$_Tree_const_iterator@V?$_Tree_val@U?$_Tree_simple_types@U?$pair@$$CBIPAU_OBJECT_EVENT@@@std@@@std@@@std@@@std@@QAEAAV01@XZ 005e8ac0 f i MAP.obj
 0002:0006cc50       ??F?$_Tree_const_iterator@V?$_Tree_val@U?$_Tree_simple_types@U?$pair@$$CBIPAVCRoomEvent@@@std@@@std@@@std@@@std@@QAEAAV01@XZ 005e8c50 f i MAP.obj
 0002:0006cde0       ??F?$_Tree_iterator@V?$_Tree_val@U?$_Tree_simple_types@U?$pair@$$CBIPAH@std@@@std@@@std@@@std@@QAEAAV01@XZ 005e8de0 f i MAP.obj
 0002:0006ce40       ??F?$_Tree_iterator@V?$_Tree_val@U?$_Tree_simple_types@U?$pair@$$CBIPAU_OBJECT_EVENT@@@std@@@std@@@std@@@std@@QAEAAV01@XZ 005e8e40 f i MAP.obj
 0002:0006cea0       ??F?$_Tree_iterator@V?$_Tree_val@U?$_Tree_simple_types@U?$pair@$$CBIPAVCRoomEvent@@@std@@@std@@@std@@@std@@QAEAAV01@XZ 005e8ea0 f i MAP.obj
 0002:0006cf00       ??F?$_Tree_unchecked_const_iterator@V?$_Tree_val@U?$_Tree_simple_types@U?$pair@$$CBIPAH@std@@@std@@@std@@U_Iterator_base12@2@@std@@QAEAAV01@XZ 005e8f00 f i MAP.obj
 0002:0006d060       ??F?$_Tree_unchecked_const_iterator@V?$_Tree_val@U?$_Tree_simple_types@U?$pair@$$CBIPAU_OBJECT_EVENT@@@std@@@std@@@std@@U_Iterator_base12@2@@std@@QAEAAV01@XZ 005e9060 f i MAP.obj
 0002:0006d1c0       ??F?$_Tree_unchecked_const_iterator@V?$_Tree_val@U?$_Tree_simple_types@U?$pair@$$CBIPAVCRoomEvent@@@std@@@std@@@std@@U_Iterator_base12@2@@std@@QAEAAV01@XZ 005e91c0 f i MAP.obj
 0002:0006d320       ??_D?$basic_ifstream@DU?$char_traits@D@std@@@std@@QAEXXZ 005e9320 f i MAP.obj
 0002:0006d380       ??_D?$basic_istream@DU?$char_traits@D@std@@@std@@QAEXXZ 005e9380 f i MAP.obj
 0002:0006d3e0       ??_E?$basic_ifstream@DU?$char_traits@D@std@@@std@@$4PPPPPPPM@A@AEPAXI@Z 005e93e0 f i MAP.obj
 0002:0006d3ea       ??_E?$basic_istream@DU?$char_traits@D@std@@@std@@$4PPPPPPPM@A@AEPAXI@Z 005e93ea f i MAP.obj
 0002:0006d400       ??_ECRegion@@QAEPAXI@Z     005e9400 f i MAP.obj
 0002:0006d500       ??_G?$basic_filebuf@DU?$char_traits@D@std@@@std@@UAEPAXI@Z 005e9500 f i MAP.obj
 0002:0006d500       ??_E?$basic_filebuf@DU?$char_traits@D@std@@@std@@UAEPAXI@Z 005e9500 f i MAP.obj
 0002:0006d570       ??_E?$basic_ifstream@DU?$char_traits@D@std@@@std@@UAEPAXI@Z 005e9570 f i MAP.obj
 0002:0006d570       ??_G?$basic_ifstream@DU?$char_traits@D@std@@@std@@UAEPAXI@Z 005e9570 f i MAP.obj
 0002:0006d5f0       ??_E?$basic_ios@DU?$char_traits@D@std@@@std@@UAEPAXI@Z 005e95f0 f i MAP.obj
 0002:0006d5f0       ??_G?$basic_ios@DU?$char_traits@D@std@@@std@@UAEPAXI@Z 005e95f0 f i MAP.obj
 0002:0006d660       ??_G?$basic_istream@DU?$char_traits@D@std@@@std@@UAEPAXI@Z 005e9660 f i MAP.obj
 0002:0006d660       ??_E?$basic_istream@DU?$char_traits@D@std@@@std@@UAEPAXI@Z 005e9660 f i MAP.obj
 0002:0006d6e0       ??_G?$basic_streambuf@DU?$char_traits@D@std@@@std@@UAEPAXI@Z 005e96e0 f i MAP.obj
 0002:0006d6e0       ??_E?$basic_streambuf@DU?$char_traits@D@std@@@std@@UAEPAXI@Z 005e96e0 f i MAP.obj
 0002:0006d750       ??_G?$codecvt@DDU_Mbstatet@@@std@@MAEPAXI@Z 005e9750 f i MAP.obj
 0002:0006d750       ??_E?$codecvt@DDU_Mbstatet@@@std@@MAEPAXI@Z 005e9750 f i MAP.obj
 0002:0006d7e0       ??_G?$ctype@D@std@@MAEPAXI@Z 005e97e0 f i MAP.obj
 0002:0006d7e0       ??_E?$ctype@D@std@@MAEPAXI@Z 005e97e0 f i MAP.obj
 0002:0006d870       ??_GMAP@@UAEPAXI@Z         005e9870 f i MAP.obj
 0002:0006d870       ??_EMAP@@UAEPAXI@Z         005e9870 f i MAP.obj
 0002:0006d8f0       ??_E_Facet_base@std@@UAEPAXI@Z 005e98f0 f i MAP.obj
 0002:0006d8f0       ??_G_Facet_base@std@@UAEPAXI@Z 005e98f0 f i MAP.obj
 0002:0006d960       ??_G_Generic_error_category@std@@UAEPAXI@Z 005e9960 f i MAP.obj
 0002:0006d960       ??_E_Generic_error_category@std@@UAEPAXI@Z 005e9960 f i MAP.obj
 0002:0006d9d0       ??_G_Iostream_error_category@std@@UAEPAXI@Z 005e99d0 f i MAP.obj
 0002:0006d9d0       ??_E_Iostream_error_category@std@@UAEPAXI@Z 005e99d0 f i MAP.obj
 0002:0006da40       ??_G_System_error@std@@UAEPAXI@Z 005e9a40 f i MAP.obj
 0002:0006da40       ??_E_System_error@std@@UAEPAXI@Z 005e9a40 f i MAP.obj
 0002:0006dab0       ??_Gbad_cast@std@@UAEPAXI@Z 005e9ab0 f i MAP.obj
 0002:0006dab0       ??_Ebad_cast@std@@UAEPAXI@Z 005e9ab0 f i MAP.obj
 0002:0006db20       ??_Gcodecvt_base@std@@UAEPAXI@Z 005e9b20 f i MAP.obj
 0002:0006db20       ??_Ecodecvt_base@std@@UAEPAXI@Z 005e9b20 f i MAP.obj
 0002:0006dbb0       ??_Gctype_base@std@@UAEPAXI@Z 005e9bb0 f i MAP.obj
 0002:0006dbb0       ??_Ectype_base@std@@UAEPAXI@Z 005e9bb0 f i MAP.obj
 0002:0006dc40       ??_Eerror_category@std@@UAEPAXI@Z 005e9c40 f i MAP.obj
 0002:0006dc40       ??_Gerror_category@std@@UAEPAXI@Z 005e9c40 f i MAP.obj
 0002:0006dcb0       ??_Gexception@std@@UAEPAXI@Z 005e9cb0 f i MAP.obj
 0002:0006dcb0       ??_Eexception@std@@UAEPAXI@Z 005e9cb0 f i MAP.obj
 0002:0006dd20       ??_Efacet@locale@std@@MAEPAXI@Z 005e9d20 f i MAP.obj
 0002:0006dd20       ??_Gfacet@locale@std@@MAEPAXI@Z 005e9d20 f i MAP.obj
 0002:0006ddb0       ??_Efailure@ios_base@std@@UAEPAXI@Z 005e9db0 f i MAP.obj
 0002:0006ddb0       ??_Gfailure@ios_base@std@@UAEPAXI@Z 005e9db0 f i MAP.obj
 0002:0006de20       ??_Eios_base@std@@UAEPAXI@Z 005e9e20 f i MAP.obj
 0002:0006de20       ??_Gios_base@std@@UAEPAXI@Z 005e9e20 f i MAP.obj
 0002:0006de90       ??_Glocale@std@@QAEPAXI@Z  005e9e90 f i MAP.obj
 0002:0006df20       ??_Gruntime_error@std@@UAEPAXI@Z 005e9f20 f i MAP.obj
 0002:0006df20       ??_Eruntime_error@std@@UAEPAXI@Z 005e9f20 f i MAP.obj
 0002:0006df90       ??_Esystem_error@std@@UAEPAXI@Z 005e9f90 f i MAP.obj
 0002:0006df90       ??_Gsystem_error@std@@UAEPAXI@Z 005e9f90 f i MAP.obj
 0002:0006e000       ?DeleteAllData@?$CSTLMap@H@@QAEXXZ 005ea000 f i MAP.obj
 0002:0006e210       ?DeleteAllData@?$CSTLMap@VCRoomEvent@@@@QAEXXZ 005ea210 f i MAP.obj
 0002:0006e460       ?DeleteData@?$CSTLMap@H@@QAEXI@Z 005ea460 f i MAP.obj
 0002:0006e660       ?GetData@?$CSTLMap@VCRoomEvent@@@@QAEPAVCRoomEvent@@I@Z 005ea660 f i MAP.obj
 0002:0006e820       ?GetEventIDs@MAP@@QAEPAFXZ 005ea820 f   MAP.obj
 0002:0006e880       ?GetEventIDs@SMDFile@@QAEPAFXZ 005ea880 f i MAP.obj
 0002:0006e8c0       ?GetMapSize@MAP@@QAEHXZ    005ea8c0 f   MAP.obj
 0002:0006e920       ?GetMapSize@SMDFile@@QAEHXZ 005ea920 f i MAP.obj
 0002:0006e970       ?GetRegion@MAP@@QAEPAVCRegion@@GG@Z 005ea970 f   MAP.obj
 0002:0006ea70       ?GetSize@?$CSTLMap@U_OBJECT_EVENT@@@@QAEHXZ 005eaa70 f i MAP.obj
 0002:0006eb20       ?GetSize@?$CSTLMap@VCRoomEvent@@@@QAEHXZ 005eab20 f i MAP.obj
 0002:0006ebd0       ?GetStatus@CRoomEvent@@QAE?AW4RoomStatus@@XZ 005eabd0 f i MAP.obj
 0002:0006ec10       ?GetUnitDistance@MAP@@QAEMXZ 005eac10 f   MAP.obj
 0002:0006ec70       ?GetUnitDistance@SMDFile@@QAEMXZ 005eac70 f i MAP.obj
 0002:0006ecb0       ?GetXRegionMax@MAP@@QAEHXZ 005eacb0 f   MAP.obj
 0002:0006ed10       ?GetXRegionMax@SMDFile@@QAEHXZ 005ead10 f i MAP.obj
 0002:0006ed60       ?GetZRegionMax@MAP@@QAEHXZ 005ead60 f   MAP.obj
 0002:0006edc0       ?GetZRegionMax@SMDFile@@QAEHXZ 005eadc0 f i MAP.obj
 0002:0006ee10       ?Initialize@MAP@@QAE_NPAU_ZONE_INFO@@@Z 005eae10 f   MAP.obj
 0002:0006f530       ?InitializeRoom@MAP@@QAEXXZ 005eb530 f   MAP.obj
 0002:0006f740       ?IsEmpty@?$CSTLMap@H@@QAE_NXZ 005eb740 f i MAP.obj
 0002:0006f7f0       ?IsExist@?$CSTLMap@VCRoomEvent@@@@QAE_NI@Z 005eb7f0 f i MAP.obj
 0002:0006f980       ?IsMovable@MAP@@QAE_NHH@Z  005eb980 f   MAP.obj
 0002:0006fa10       ?IsRoomCheck@MAP@@QAEHMM@Z 005eba10 f   MAP.obj
 0002:0006fe50       ?IsRoomStatusCheck@MAP@@QAE_NXZ 005ebe50 f   MAP.obj
 0002:000701f0       ?LoadRoomEvent@MAP@@QAE_NXZ 005ec1f0 f   MAP.obj
 0002:00070f80       ?ParseSpace@@YAHPAD0@Z     005ecf80 f i MAP.obj
 0002:000710d0       ?PtInRect@CRect@@QAE_NHH@Z 005ed0d0 f i MAP.obj
 0002:00071160       ?PutData@?$CSTLMap@H@@QAE_NIPAH@Z 005ed160 f i MAP.obj
 0002:000712b0       ?PutData@?$CSTLMap@U_OBJECT_EVENT@@@@QAE_NIPAU_OBJECT_EVENT@@@Z 005ed2b0 f i MAP.obj
 0002:00071400       ?PutData@?$CSTLMap@VCRoomEvent@@@@QAE_NIPAVCRoomEvent@@@Z 005ed400 f i MAP.obj
 0002:00071550       ?RegionNpcAdd@MAP@@QAEXHHH@Z 005ed550 f   MAP.obj
 0002:000716f0       ?RegionNpcRemove@MAP@@QAE_NHHH@Z 005ed6f0 f   MAP.obj
 0002:00071840       ?RegionUserAdd@MAP@@QAEXHHH@Z 005ed840 f   MAP.obj
 0002:00071a30       ?RegionUserRemove@MAP@@QAE_NHHH@Z 005eda30 f   MAP.obj
 0002:00071be0       ?RemoveMapData@MAP@@QAEXXZ 005edbe0 f   MAP.obj
 0002:00071d40       ?SetRoomEvent@MAP@@QAEPAVCRoomEvent@@H@Z 005edd40 f   MAP.obj
 0002:00071f20       ?_Alloc_proxy@?$_Tree_comp_alloc@V?$_Tmap_traits@IPAHU?$less@I@std@@V?$allocator@U?$pair@$$CBIPAH@std@@@2@$0A@@std@@@std@@QAEXXZ 005edf20 f i MAP.obj
 0002:00072020       ?_Alloc_proxy@?$_Tree_comp_alloc@V?$_Tmap_traits@IPAVCRoomEvent@@U?$less@I@std@@V?$allocator@U?$pair@$$CBIPAVCRoomEvent@@@std@@@3@$0A@@std@@@std@@QAEXXZ 005ee020 f i MAP.obj
 0002:00072120       ?_Assign_rv@?$basic_string@DU?$char_traits@D@std@@V?$allocator@D@2@@std@@QAEX$$QAV12@@Z 005ee120 f i MAP.obj
 0002:00072230       ?_Buyheadnode@?$_Tree_comp_alloc@V?$_Tmap_traits@IPAHU?$less@I@std@@V?$allocator@U?$pair@$$CBIPAH@std@@@2@$0A@@std@@@std@@QAEPAU?$_Tree_node@U?$pair@$$CBIPAH@std@@PAX@2@XZ 005ee230 f i MAP.obj
 0002:00072440       ?_Buyheadnode@?$_Tree_comp_alloc@V?$_Tmap_traits@IPAVCRoomEvent@@U?$less@I@std@@V?$allocator@U?$pair@$$CBIPAVCRoomEvent@@@std@@@3@$0A@@std@@@std@@QAEPAU?$_Tree_node@U?$pair@$$CBIPAVCRoomEvent@@@std@@PAX@2@XZ 005ee440 f i MAP.obj
 0002:00072650       ?_Buynode0@?$_Tree_comp_alloc@V?$_Tmap_traits@IPAHU?$less@I@std@@V?$allocator@U?$pair@$$CBIPAH@std@@@2@$0A@@std@@@std@@QAEPAU?$_Tree_node@U?$pair@$$CBIPAH@std@@PAX@2@XZ 005ee650 f i MAP.obj
 0002:00072810       ?_Buynode0@?$_Tree_comp_alloc@V?$_Tmap_traits@IPAU_OBJECT_EVENT@@U?$less@I@std@@V?$allocator@U?$pair@$$CBIPAU_OBJECT_EVENT@@@std@@@3@$0A@@std@@@std@@QAEPAU?$_Tree_node@U?$pair@$$CBIPAU_OBJECT_EVENT@@@std@@PAX@2@XZ 005ee810 f i MAP.obj
 0002:000729d0       ?_Buynode0@?$_Tree_comp_alloc@V?$_Tmap_traits@IPAVCRoomEvent@@U?$less@I@std@@V?$allocator@U?$pair@$$CBIPAVCRoomEvent@@@std@@@3@$0A@@std@@@std@@QAEPAU?$_Tree_node@U?$pair@$$CBIPAVCRoomEvent@@@std@@PAX@2@XZ 005ee9d0 f i MAP.obj
 0002:00072b90       ?_Check_offset@?$basic_string@DU?$char_traits@D@std@@V?$allocator@D@2@@std@@QBEXI@Z 005eeb90 f i MAP.obj
 0002:00072c00       ?_Clamp_suffix_size@?$basic_string@DU?$char_traits@D@std@@V?$allocator@D@2@@std@@QBEIII@Z 005eec00 f i MAP.obj
 0002:00072c80       ?_Color@?$_Tree_comp_alloc@V?$_Tmap_traits@IPAHU?$less@I@std@@V?$allocator@U?$pair@$$CBIPAH@std@@@2@$0A@@std@@@std@@SAAADPAU?$_Tree_node@U?$pair@$$CBIPAH@std@@PAX@2@@Z 005eec80 f i MAP.obj
 0002:00072cd0       ?_Color@?$_Tree_comp_alloc@V?$_Tmap_traits@IPAU_OBJECT_EVENT@@U?$less@I@std@@V?$allocator@U?$pair@$$CBIPAU_OBJECT_EVENT@@@std@@@3@$0A@@std@@@std@@SAAADPAU?$_Tree_node@U?$pair@$$CBIPAU_OBJECT_EVENT@@@std@@PAX@2@@Z 005eecd0 f i MAP.obj
 0002:00072d20       ?_Color@?$_Tree_comp_alloc@V?$_Tmap_traits@IPAVCRoomEvent@@U?$less@I@std@@V?$allocator@U?$pair@$$CBIPAVCRoomEvent@@@std@@@3@$0A@@std@@@std@@SAAADPAU?$_Tree_node@U?$pair@$$CBIPAVCRoomEvent@@@std@@PAX@2@@Z 005eed20 f i MAP.obj
 0002:00072d70       ?_Color@?$_Tree_val@U?$_Tree_simple_types@U?$pair@$$CBIPAH@std@@@std@@@std@@SAAADPAU?$_Tree_node@U?$pair@$$CBIPAH@std@@PAX@2@@Z 005eed70 f i MAP.obj
 0002:00072db0       ?_Color@?$_Tree_val@U?$_Tree_simple_types@U?$pair@$$CBIPAU_OBJECT_EVENT@@@std@@@std@@@std@@SAAADPAU?$_Tree_node@U?$pair@$$CBIPAU_OBJECT_EVENT@@@std@@PAX@2@@Z 005eedb0 f i MAP.obj
 0002:00072df0       ?_Color@?$_Tree_val@U?$_Tree_simple_types@U?$pair@$$CBIPAVCRoomEvent@@@std@@@std@@@std@@SAAADPAU?$_Tree_node@U?$pair@$$CBIPAVCRoomEvent@@@std@@PAX@2@@Z 005eedf0 f i MAP.obj
 0002:00072e30       ?_Compare@?$_Tree@V?$_Tmap_traits@IPAHU?$less@I@std@@V?$allocator@U?$pair@$$CBIPAH@std@@@2@$0A@@std@@@std@@IBE_NABI0@Z 005eee30 f i MAP.obj
 0002:00072eb0       ?_Compare@?$_Tree@V?$_Tmap_traits@IPAVCRoomEvent@@U?$less@I@std@@V?$allocator@U?$pair@$$CBIPAVCRoomEvent@@@std@@@3@$0A@@std@@@std@@IBE_NABI0@Z 005eeeb0 f i MAP.obj
 0002:00072f30       ?_Construct@?$_Tree_comp_alloc@V?$_Tmap_traits@IPAHU?$less@I@std@@V?$allocator@U?$pair@$$CBIPAH@std@@@2@$0A@@std@@@std@@QAEXXZ 005eef30 f i MAP.obj
 0002:00073020       ?_Construct@?$_Tree_comp_alloc@V?$_Tmap_traits@IPAVCRoomEvent@@U?$less@I@std@@V?$allocator@U?$pair@$$CBIPAVCRoomEvent@@@std@@@3@$0A@@std@@@std@@QAEXXZ 005ef020 f i MAP.obj
 0002:00073110       ?_Decref@facet@locale@std@@UAEPAV_Facet_base@3@XZ 005ef110 f i MAP.obj
 0002:00073170       ?_Destroy_if_not_nil@?$_Tree@V?$_Tmap_traits@IPAHU?$less@I@std@@V?$allocator@U?$pair@$$CBIPAH@std@@@2@$0A@@std@@@std@@IAEXPAU?$_Tree_node@U?$pair@$$CBIPAH@std@@PAX@2@@Z 005ef170 f i MAP.obj
 0002:00073200       ?_Destroy_if_not_nil@?$_Tree@V?$_Tmap_traits@IPAU_OBJECT_EVENT@@U?$less@I@std@@V?$allocator@U?$pair@$$CBIPAU_OBJECT_EVENT@@@std@@@3@$0A@@std@@@std@@IAEXPAU?$_Tree_node@U?$pair@$$CBIPAU_OBJECT_EVENT@@@std@@PAX@2@@Z 005ef200 f i MAP.obj
 0002:00073290       ?_Destroy_if_not_nil@?$_Tree@V?$_Tmap_traits@IPAVCRoomEvent@@U?$less@I@std@@V?$allocator@U?$pair@$$CBIPAVCRoomEvent@@@std@@@3@$0A@@std@@@std@@IAEXPAU?$_Tree_node@U?$pair@$$CBIPAVCRoomEvent@@@std@@PAX@2@@Z 005ef290 f i MAP.obj
 0002:00073320       ?_Endwrite@?$basic_filebuf@DU?$char_traits@D@std@@@std@@IAE_NXZ 005ef320 f i MAP.obj
 0002:000737e0       ?_Erase@?$_Tree@V?$_Tmap_traits@IPAHU?$less@I@std@@V?$allocator@U?$pair@$$CBIPAH@std@@@2@$0A@@std@@@std@@IAEXPAU?$_Tree_node@U?$pair@$$CBIPAH@std@@PAX@2@@Z 005ef7e0 f i MAP.obj
 0002:000738d0       ?_Erase@?$_Tree@V?$_Tmap_traits@IPAVCRoomEvent@@U?$less@I@std@@V?$allocator@U?$pair@$$CBIPAVCRoomEvent@@@std@@@3@$0A@@std@@@std@@IAEXPAU?$_Tree_node@U?$pair@$$CBIPAVCRoomEvent@@@std@@PAX@2@@Z 005ef8d0 f i MAP.obj
 0002:000739c0       ?_Free_proxy@?$_Tree_comp_alloc@V?$_Tmap_traits@IPAHU?$less@I@std@@V?$allocator@U?$pair@$$CBIPAH@std@@@2@$0A@@std@@@std@@QAEXXZ 005ef9c0 f i MAP.obj
 0002:00073ab0       ?_Free_proxy@?$_Tree_comp_alloc@V?$_Tmap_traits@IPAVCRoomEvent@@U?$less@I@std@@V?$allocator@U?$pair@$$CBIPAVCRoomEvent@@@std@@@3@$0A@@std@@@std@@QAEXXZ 005efab0 f i MAP.obj
 0002:00073ba0       ?_Freeheadnode@?$_Tree_comp_alloc@V?$_Tmap_traits@IPAHU?$less@I@std@@V?$allocator@U?$pair@$$CBIPAH@std@@@2@$0A@@std@@@std@@QAEXPAU?$_Tree_node@U?$pair@$$CBIPAH@std@@PAX@2@@Z 005efba0 f i MAP.obj
 0002:00073c90       ?_Freeheadnode@?$_Tree_comp_alloc@V?$_Tmap_traits@IPAVCRoomEvent@@U?$less@I@std@@V?$allocator@U?$pair@$$CBIPAVCRoomEvent@@@std@@@3@$0A@@std@@@std@@QAEXPAU?$_Tree_node@U?$pair@$$CBIPAVCRoomEvent@@@std@@PAX@2@@Z 005efc90 f i MAP.obj
 0002:00073d80       ?_Freenode0@?$_Tree_comp_alloc@V?$_Tmap_traits@IPAHU?$less@I@std@@V?$allocator@U?$pair@$$CBIPAH@std@@@2@$0A@@std@@@std@@QAEXPAU?$_Tree_node@U?$pair@$$CBIPAH@std@@PAX@2@@Z 005efd80 f i MAP.obj
 0002:00073e70       ?_Freenode0@?$_Tree_comp_alloc@V?$_Tmap_traits@IPAU_OBJECT_EVENT@@U?$less@I@std@@V?$allocator@U?$pair@$$CBIPAU_OBJECT_EVENT@@@std@@@3@$0A@@std@@@std@@QAEXPAU?$_Tree_node@U?$pair@$$CBIPAU_OBJECT_EVENT@@@std@@PAX@2@@Z 005efe70 f i MAP.obj
 0002:00073f60       ?_Freenode0@?$_Tree_comp_alloc@V?$_Tmap_traits@IPAVCRoomEvent@@U?$less@I@std@@V?$allocator@U?$pair@$$CBIPAVCRoomEvent@@@std@@@3@$0A@@std@@@std@@QAEXPAU?$_Tree_node@U?$pair@$$CBIPAVCRoomEvent@@@std@@PAX@2@@Z 005eff60 f i MAP.obj
 0002:00074050       ?_Get_data@?$_Tree_comp_alloc@V?$_Tmap_traits@IPAHU?$less@I@std@@V?$allocator@U?$pair@$$CBIPAH@std@@@2@$0A@@std@@@std@@QAEAAV?$_Tree_val@U?$_Tree_simple_types@U?$pair@$$CBIPAH@std@@@std@@@2@XZ 005f0050 f i MAP.obj
 0002:000740b0       ?_Get_data@?$_Tree_comp_alloc@V?$_Tmap_traits@IPAHU?$less@I@std@@V?$allocator@U?$pair@$$CBIPAH@std@@@2@$0A@@std@@@std@@QBEABV?$_Tree_val@U?$_Tree_simple_types@U?$pair@$$CBIPAH@std@@@std@@@2@XZ 005f00b0 f i MAP.obj
 0002:00074110       ?_Get_data@?$_Tree_comp_alloc@V?$_Tmap_traits@IPAU_OBJECT_EVENT@@U?$less@I@std@@V?$allocator@U?$pair@$$CBIPAU_OBJECT_EVENT@@@std@@@3@$0A@@std@@@std@@QAEAAV?$_Tree_val@U?$_Tree_simple_types@U?$pair@$$CBIPAU_OBJECT_EVENT@@@std@@@std@@@2@XZ 005f0110 f i MAP.obj
 0002:00074170       ?_Get_data@?$_Tree_comp_alloc@V?$_Tmap_traits@IPAU_OBJECT_EVENT@@U?$less@I@std@@V?$allocator@U?$pair@$$CBIPAU_OBJECT_EVENT@@@std@@@3@$0A@@std@@@std@@QBEABV?$_Tree_val@U?$_Tree_simple_types@U?$pair@$$CBIPAU_OBJECT_EVENT@@@std@@@std@@@2@XZ 005f0170 f i MAP.obj
 0002:000741d0       ?_Get_data@?$_Tree_comp_alloc@V?$_Tmap_traits@IPAVCRoomEvent@@U?$less@I@std@@V?$allocator@U?$pair@$$CBIPAVCRoomEvent@@@std@@@3@$0A@@std@@@std@@QAEAAV?$_Tree_val@U?$_Tree_simple_types@U?$pair@$$CBIPAVCRoomEvent@@@std@@@std@@@2@XZ 005f01d0 f i MAP.obj
 0002:00074230       ?_Get_data@?$_Tree_comp_alloc@V?$_Tmap_traits@IPAVCRoomEvent@@U?$less@I@std@@V?$allocator@U?$pair@$$CBIPAVCRoomEvent@@@std@@@3@$0A@@std@@@std@@QBEABV?$_Tree_val@U?$_Tree_simple_types@U?$pair@$$CBIPAVCRoomEvent@@@std@@@std@@@2@XZ 005f0230 f i MAP.obj
 0002:00074290       ?_Get_first@?$_Compressed_pair@U?$_Wrap_alloc@V?$allocator@U?$_Tree_node@U?$pair@$$CBIPAH@std@@PAX@std@@@std@@@std@@V?$_Tree_val@U?$_Tree_simple_types@U?$pair@$$CBIPAH@std@@@std@@@2@$00@std@@QAEAAU?$_Wrap_alloc@V?$allocator@U?$_Tree_node@U?$pair@$$CBIPAH@std@@PAX@std@@@std@@@2@XZ 005f0290 f i MAP.obj
 0002:000742d0       ?_Get_first@?$_Compressed_pair@U?$_Wrap_alloc@V?$allocator@U?$_Tree_node@U?$pair@$$CBIPAH@std@@PAX@std@@@std@@@std@@V?$_Tree_val@U?$_Tree_simple_types@U?$pair@$$CBIPAH@std@@@std@@@2@$00@std@@QBEABU?$_Wrap_alloc@V?$allocator@U?$_Tree_node@U?$pair@$$CBIPAH@std@@PAX@std@@@std@@@2@XZ 005f02d0 f i MAP.obj
 0002:00074310       ?_Get_first@?$_Compressed_pair@U?$_Wrap_alloc@V?$allocator@U?$_Tree_node@U?$pair@$$CBIPAU_OBJECT_EVENT@@@std@@PAX@std@@@std@@@std@@V?$_Tree_val@U?$_Tree_simple_types@U?$pair@$$CBIPAU_OBJECT_EVENT@@@std@@@std@@@2@$00@std@@QAEAAU?$_Wrap_alloc@V?$allocator@U?$_Tree_node@U?$pair@$$CBIPAU_OBJECT_EVENT@@@std@@PAX@std@@@std@@@2@XZ 005f0310 f i MAP.obj
 0002:00074350       ?_Get_first@?$_Compressed_pair@U?$_Wrap_alloc@V?$allocator@U?$_Tree_node@U?$pair@$$CBIPAU_OBJECT_EVENT@@@std@@PAX@std@@@std@@@std@@V?$_Tree_val@U?$_Tree_simple_types@U?$pair@$$CBIPAU_OBJECT_EVENT@@@std@@@std@@@2@$00@std@@QBEABU?$_Wrap_alloc@V?$allocator@U?$_Tree_node@U?$pair@$$CBIPAU_OBJECT_EVENT@@@std@@PAX@std@@@std@@@2@XZ 005f0350 f i MAP.obj
 0002:00074390       ?_Get_first@?$_Compressed_pair@U?$_Wrap_alloc@V?$allocator@U?$_Tree_node@U?$pair@$$CBIPAVCRoomEvent@@@std@@PAX@std@@@std@@@std@@V?$_Tree_val@U?$_Tree_simple_types@U?$pair@$$CBIPAVCRoomEvent@@@std@@@std@@@2@$00@std@@QAEAAU?$_Wrap_alloc@V?$allocator@U?$_Tree_node@U?$pair@$$CBIPAVCRoomEvent@@@std@@PAX@std@@@std@@@2@XZ 005f0390 f i MAP.obj
 0002:000743d0       ?_Get_first@?$_Compressed_pair@U?$_Wrap_alloc@V?$allocator@U?$_Tree_node@U?$pair@$$CBIPAVCRoomEvent@@@std@@PAX@std@@@std@@@std@@V?$_Tree_val@U?$_Tree_simple_types@U?$pair@$$CBIPAVCRoomEvent@@@std@@@std@@@2@$00@std@@QBEABU?$_Wrap_alloc@V?$allocator@U?$_Tree_node@U?$pair@$$CBIPAVCRoomEvent@@@std@@PAX@std@@@std@@@2@XZ 005f03d0 f i MAP.obj
 0002:00074410       ?_Get_first@?$_Compressed_pair@U?$less@I@std@@V?$_Compressed_pair@U?$_Wrap_alloc@V?$allocator@U?$_Tree_node@U?$pair@$$CBIPAH@std@@PAX@std@@@std@@@std@@V?$_Tree_val@U?$_Tree_simple_types@U?$pair@$$CBIPAH@std@@@std@@@2@$00@2@$00@std@@QAEAAU?$less@I@2@XZ 005f0410 f i MAP.obj
 0002:00074450       ?_Get_first@?$_Compressed_pair@U?$less@I@std@@V?$_Compressed_pair@U?$_Wrap_alloc@V?$allocator@U?$_Tree_node@U?$pair@$$CBIPAH@std@@PAX@std@@@std@@@std@@V?$_Tree_val@U?$_Tree_simple_types@U?$pair@$$CBIPAH@std@@@std@@@2@$00@2@$00@std@@QBEABU?$less@I@2@XZ 005f0450 f i MAP.obj
 0002:00074490       ?_Get_first@?$_Compressed_pair@U?$less@I@std@@V?$_Compressed_pair@U?$_Wrap_alloc@V?$allocator@U?$_Tree_node@U?$pair@$$CBIPAU_OBJECT_EVENT@@@std@@PAX@std@@@std@@@std@@V?$_Tree_val@U?$_Tree_simple_types@U?$pair@$$CBIPAU_OBJECT_EVENT@@@std@@@std@@@2@$00@2@$00@std@@QAEAAU?$less@I@2@XZ 005f0490 f i MAP.obj
 0002:000744d0       ?_Get_first@?$_Compressed_pair@U?$less@I@std@@V?$_Compressed_pair@U?$_Wrap_alloc@V?$allocator@U?$_Tree_node@U?$pair@$$CBIPAVCRoomEvent@@@std@@PAX@std@@@std@@@std@@V?$_Tree_val@U?$_Tree_simple_types@U?$pair@$$CBIPAVCRoomEvent@@@std@@@std@@@2@$00@2@$00@std@@QAEAAU?$less@I@2@XZ 005f04d0 f i MAP.obj
 0002:00074510       ?_Get_first@?$_Compressed_pair@U?$less@I@std@@V?$_Compressed_pair@U?$_Wrap_alloc@V?$allocator@U?$_Tree_node@U?$pair@$$CBIPAVCRoomEvent@@@std@@PAX@std@@@std@@@std@@V?$_Tree_val@U?$_Tree_simple_types@U?$pair@$$CBIPAVCRoomEvent@@@std@@@std@@@2@$00@2@$00@std@@QBEABU?$less@I@2@XZ 005f0510 f i MAP.obj
 0002:00074550       ?_Get_second@?$_Compressed_pair@U?$_Wrap_alloc@V?$allocator@U?$_Tree_node@U?$pair@$$CBIPAH@std@@PAX@std@@@std@@@std@@V?$_Tree_val@U?$_Tree_simple_types@U?$pair@$$CBIPAH@std@@@std@@@2@$00@std@@QAEAAV?$_Tree_val@U?$_Tree_simple_types@U?$pair@$$CBIPAH@std@@@std@@@2@XZ 005f0550 f i MAP.obj
 0002:00074590       ?_Get_second@?$_Compressed_pair@U?$_Wrap_alloc@V?$allocator@U?$_Tree_node@U?$pair@$$CBIPAH@std@@PAX@std@@@std@@@std@@V?$_Tree_val@U?$_Tree_simple_types@U?$pair@$$CBIPAH@std@@@std@@@2@$00@std@@QBEABV?$_Tree_val@U?$_Tree_simple_types@U?$pair@$$CBIPAH@std@@@std@@@2@XZ 005f0590 f i MAP.obj
 0002:000745d0       ?_Get_second@?$_Compressed_pair@U?$_Wrap_alloc@V?$allocator@U?$_Tree_node@U?$pair@$$CBIPAU_OBJECT_EVENT@@@std@@PAX@std@@@std@@@std@@V?$_Tree_val@U?$_Tree_simple_types@U?$pair@$$CBIPAU_OBJECT_EVENT@@@std@@@std@@@2@$00@std@@QAEAAV?$_Tree_val@U?$_Tree_simple_types@U?$pair@$$CBIPAU_OBJECT_EVENT@@@std@@@std@@@2@XZ 005f05d0 f i MAP.obj
 0002:00074610       ?_Get_second@?$_Compressed_pair@U?$_Wrap_alloc@V?$allocator@U?$_Tree_node@U?$pair@$$CBIPAU_OBJECT_EVENT@@@std@@PAX@std@@@std@@@std@@V?$_Tree_val@U?$_Tree_simple_types@U?$pair@$$CBIPAU_OBJECT_EVENT@@@std@@@std@@@2@$00@std@@QBEABV?$_Tree_val@U?$_Tree_simple_types@U?$pair@$$CBIPAU_OBJECT_EVENT@@@std@@@std@@@2@XZ 005f0610 f i MAP.obj
 0002:00074650       ?_Get_second@?$_Compressed_pair@U?$_Wrap_alloc@V?$allocator@U?$_Tree_node@U?$pair@$$CBIPAVCRoomEvent@@@std@@PAX@std@@@std@@@std@@V?$_Tree_val@U?$_Tree_simple_types@U?$pair@$$CBIPAVCRoomEvent@@@std@@@std@@@2@$00@std@@QAEAAV?$_Tree_val@U?$_Tree_simple_types@U?$pair@$$CBIPAVCRoomEvent@@@std@@@std@@@2@XZ 005f0650 f i MAP.obj
 0002:00074690       ?_Get_second@?$_Compressed_pair@U?$_Wrap_alloc@V?$allocator@U?$_Tree_node@U?$pair@$$CBIPAVCRoomEvent@@@std@@PAX@std@@@std@@@std@@V?$_Tree_val@U?$_Tree_simple_types@U?$pair@$$CBIPAVCRoomEvent@@@std@@@std@@@2@$00@std@@QBEABV?$_Tree_val@U?$_Tree_simple_types@U?$pair@$$CBIPAVCRoomEvent@@@std@@@std@@@2@XZ 005f0690 f i MAP.obj
 0002:000746d0       ?_Get_second@?$_Compressed_pair@U?$less@I@std@@V?$_Compressed_pair@U?$_Wrap_alloc@V?$allocator@U?$_Tree_node@U?$pair@$$CBIPAH@std@@PAX@std@@@std@@@std@@V?$_Tree_val@U?$_Tree_simple_types@U?$pair@$$CBIPAH@std@@@std@@@2@$00@2@$00@std@@QAEAAV?$_Compressed_pair@U?$_Wrap_alloc@V?$allocator@U?$_Tree_node@U?$pair@$$CBIPAH@std@@PAX@std@@@std@@@std@@V?$_Tree_val@U?$_Tree_simple_types@U?$pair@$$CBIPAH@std@@@std@@@2@$00@2@XZ 005f06d0 f i MAP.obj
 0002:00074710       ?_Get_second@?$_Compressed_pair@U?$less@I@std@@V?$_Compressed_pair@U?$_Wrap_alloc@V?$allocator@U?$_Tree_node@U?$pair@$$CBIPAH@std@@PAX@std@@@std@@@std@@V?$_Tree_val@U?$_Tree_simple_types@U?$pair@$$CBIPAH@std@@@std@@@2@$00@2@$00@std@@QBEABV?$_Compressed_pair@U?$_Wrap_alloc@V?$allocator@U?$_Tree_node@U?$pair@$$CBIPAH@std@@PAX@std@@@std@@@std@@V?$_Tree_val@U?$_Tree_simple_types@U?$pair@$$CBIPAH@std@@@std@@@2@$00@2@XZ 005f0710 f i MAP.obj
 0002:00074750       ?_Get_second@?$_Compressed_pair@U?$less@I@std@@V?$_Compressed_pair@U?$_Wrap_alloc@V?$allocator@U?$_Tree_node@U?$pair@$$CBIPAU_OBJECT_EVENT@@@std@@PAX@std@@@std@@@std@@V?$_Tree_val@U?$_Tree_simple_types@U?$pair@$$CBIPAU_OBJECT_EVENT@@@std@@@std@@@2@$00@2@$00@std@@QAEAAV?$_Compressed_pair@U?$_Wrap_alloc@V?$allocator@U?$_Tree_node@U?$pair@$$CBIPAU_OBJECT_EVENT@@@std@@PAX@std@@@std@@@std@@V?$_Tree_val@U?$_Tree_simple_types@U?$pair@$$CBIPAU_OBJECT_EVENT@@@std@@@std@@@2@$00@2@XZ 005f0750 f i MAP.obj
 0002:00074790       ?_Get_second@?$_Compressed_pair@U?$less@I@std@@V?$_Compressed_pair@U?$_Wrap_alloc@V?$allocator@U?$_Tree_node@U?$pair@$$CBIPAU_OBJECT_EVENT@@@std@@PAX@std@@@std@@@std@@V?$_Tree_val@U?$_Tree_simple_types@U?$pair@$$CBIPAU_OBJECT_EVENT@@@std@@@std@@@2@$00@2@$00@std@@QBEABV?$_Compressed_pair@U?$_Wrap_alloc@V?$allocator@U?$_Tree_node@U?$pair@$$CBIPAU_OBJECT_EVENT@@@std@@PAX@std@@@std@@@std@@V?$_Tree_val@U?$_Tree_simple_types@U?$pair@$$CBIPAU_OBJECT_EVENT@@@std@@@std@@@2@$00@2@XZ 005f0790 f i MAP.obj
 0002:000747d0       ?_Get_second@?$_Compressed_pair@U?$less@I@std@@V?$_Compressed_pair@U?$_Wrap_alloc@V?$allocator@U?$_Tree_node@U?$pair@$$CBIPAVCRoomEvent@@@std@@PAX@std@@@std@@@std@@V?$_Tree_val@U?$_Tree_simple_types@U?$pair@$$CBIPAVCRoomEvent@@@std@@@std@@@2@$00@2@$00@std@@QAEAAV?$_Compressed_pair@U?$_Wrap_alloc@V?$allocator@U?$_Tree_node@U?$pair@$$CBIPAVCRoomEvent@@@std@@PAX@std@@@std@@@std@@V?$_Tree_val@U?$_Tree_simple_types@U?$pair@$$CBIPAVCRoomEvent@@@std@@@std@@@2@$00@2@XZ 005f07d0 f i MAP.obj
 0002:00074810       ?_Get_second@?$_Compressed_pair@U?$less@I@std@@V?$_Compressed_pair@U?$_Wrap_alloc@V?$allocator@U?$_Tree_node@U?$pair@$$CBIPAVCRoomEvent@@@std@@PAX@std@@@std@@@std@@V?$_Tree_val@U?$_Tree_simple_types@U?$pair@$$CBIPAVCRoomEvent@@@std@@@std@@@2@$00@2@$00@std@@QBEABV?$_Compressed_pair@U?$_Wrap_alloc@V?$allocator@U?$_Tree_node@U?$pair@$$CBIPAVCRoomEvent@@@std@@PAX@std@@@std@@@std@@V?$_Tree_val@U?$_Tree_simple_types@U?$pair@$$CBIPAVCRoomEvent@@@std@@@std@@@2@$00@2@XZ 005f0810 f i MAP.obj
 0002:00074850       ?_Getal@?$_Tree_comp_alloc@V?$_Tmap_traits@IPAHU?$less@I@std@@V?$allocator@U?$pair@$$CBIPAH@std@@@2@$0A@@std@@@std@@QAEAAU?$_Wrap_alloc@V?$allocator@U?$_Tree_node@U?$pair@$$CBIPAH@std@@PAX@std@@@std@@@2@XZ 005f0850 f i MAP.obj
 0002:000748b0       ?_Getal@?$_Tree_comp_alloc@V?$_Tmap_traits@IPAHU?$less@I@std@@V?$allocator@U?$pair@$$CBIPAH@std@@@2@$0A@@std@@@std@@QBEABU?$_Wrap_alloc@V?$allocator@U?$_Tree_node@U?$pair@$$CBIPAH@std@@PAX@std@@@std@@@2@XZ 005f08b0 f i MAP.obj
 0002:00074910       ?_Getal@?$_Tree_comp_alloc@V?$_Tmap_traits@IPAU_OBJECT_EVENT@@U?$less@I@std@@V?$allocator@U?$pair@$$CBIPAU_OBJECT_EVENT@@@std@@@3@$0A@@std@@@std@@QAEAAU?$_Wrap_alloc@V?$allocator@U?$_Tree_node@U?$pair@$$CBIPAU_OBJECT_EVENT@@@std@@PAX@std@@@std@@@2@XZ 005f0910 f i MAP.obj
 0002:00074970       ?_Getal@?$_Tree_comp_alloc@V?$_Tmap_traits@IPAU_OBJECT_EVENT@@U?$less@I@std@@V?$allocator@U?$pair@$$CBIPAU_OBJECT_EVENT@@@std@@@3@$0A@@std@@@std@@QBEABU?$_Wrap_alloc@V?$allocator@U?$_Tree_node@U?$pair@$$CBIPAU_OBJECT_EVENT@@@std@@PAX@std@@@std@@@2@XZ 005f0970 f i MAP.obj
 0002:000749d0       ?_Getal@?$_Tree_comp_alloc@V?$_Tmap_traits@IPAVCRoomEvent@@U?$less@I@std@@V?$allocator@U?$pair@$$CBIPAVCRoomEvent@@@std@@@3@$0A@@std@@@std@@QAEAAU?$_Wrap_alloc@V?$allocator@U?$_Tree_node@U?$pair@$$CBIPAVCRoomEvent@@@std@@PAX@std@@@std@@@2@XZ 005f09d0 f i MAP.obj
 0002:00074a30       ?_Getal@?$_Tree_comp_alloc@V?$_Tmap_traits@IPAVCRoomEvent@@U?$less@I@std@@V?$allocator@U?$pair@$$CBIPAVCRoomEvent@@@std@@@3@$0A@@std@@@std@@QBEABU?$_Wrap_alloc@V?$allocator@U?$_Tree_node@U?$pair@$$CBIPAVCRoomEvent@@@std@@PAX@std@@@std@@@2@XZ 005f0a30 f i MAP.obj
 0002:00074a90       ?_Getcat@?$codecvt@DDU_Mbstatet@@@std@@SAIPAPBVfacet@locale@2@PBV42@@Z 005f0a90 f i MAP.obj
 0002:00074c30       ?_Getcat@?$ctype@D@std@@SAIPAPBVfacet@locale@2@PBV42@@Z 005f0c30 f i MAP.obj
 0002:00074dd0       ?_Getcomp@?$_Tree_comp_alloc@V?$_Tmap_traits@IPAHU?$less@I@std@@V?$allocator@U?$pair@$$CBIPAH@std@@@2@$0A@@std@@@std@@QAEAAU?$less@I@2@XZ 005f0dd0 f i MAP.obj
 0002:00074e20       ?_Getcomp@?$_Tree_comp_alloc@V?$_Tmap_traits@IPAHU?$less@I@std@@V?$allocator@U?$pair@$$CBIPAH@std@@@2@$0A@@std@@@std@@QBEABU?$less@I@2@XZ 005f0e20 f i MAP.obj
 0002:00074e70       ?_Getcomp@?$_Tree_comp_alloc@V?$_Tmap_traits@IPAU_OBJECT_EVENT@@U?$less@I@std@@V?$allocator@U?$pair@$$CBIPAU_OBJECT_EVENT@@@std@@@3@$0A@@std@@@std@@QAEAAU?$less@I@2@XZ 005f0e70 f i MAP.obj
 0002:00074ec0       ?_Getcomp@?$_Tree_comp_alloc@V?$_Tmap_traits@IPAVCRoomEvent@@U?$less@I@std@@V?$allocator@U?$pair@$$CBIPAVCRoomEvent@@@std@@@3@$0A@@std@@@std@@QAEAAU?$less@I@2@XZ 005f0ec0 f i MAP.obj
 0002:00074f10       ?_Getcomp@?$_Tree_comp_alloc@V?$_Tmap_traits@IPAVCRoomEvent@@U?$less@I@std@@V?$allocator@U?$pair@$$CBIPAVCRoomEvent@@@std@@@3@$0A@@std@@@std@@QBEABU?$less@I@2@XZ 005f0f10 f i MAP.obj
 0002:00074f60       ?_Getctype@_Locinfo@std@@QBE?AU_Ctypevec@@XZ 005f0f60 f i MAP.obj
 0002:00075020       ?_Getfacet@locale@std@@QBEPBVfacet@12@I@Z 005f1020 f i MAP.obj
 0002:00075120       ?_Getpfirst@?$_Tree_comp_alloc@V?$_Tmap_traits@IPAHU?$less@I@std@@V?$allocator@U?$pair@$$CBIPAH@std@@@2@$0A@@std@@@std@@QBEPAPAU_Iterator_base12@2@XZ 005f1120 f i MAP.obj
 0002:00075180       ?_Getpfirst@?$_Tree_comp_alloc@V?$_Tmap_traits@IPAVCRoomEvent@@U?$less@I@std@@V?$allocator@U?$pair@$$CBIPAVCRoomEvent@@@std@@@3@$0A@@std@@@std@@QBEPAPAU_Iterator_base12@2@XZ 005f1180 f i MAP.obj
 0002:000751e0       ?_Gnavail@?$basic_streambuf@DU?$char_traits@D@std@@@std@@IBE_JXZ 005f11e0 f i MAP.obj
 0002:00075250       ?_Gndec@?$basic_streambuf@DU?$char_traits@D@std@@@std@@IAEPADXZ 005f1250 f i MAP.obj
 0002:000752d0       ?_Gninc@?$basic_streambuf@DU?$char_traits@D@std@@@std@@IAEPADXZ 005f12d0 f i MAP.obj
 0002:00075350       ?_Gnpreinc@?$basic_streambuf@DU?$char_traits@D@std@@@std@@IAEPADXZ 005f1350 f i MAP.obj
 0002:000753d0       ?_Incref@facet@locale@std@@UAEXXZ 005f13d0 f i MAP.obj
 0002:00075410       ?_Init@?$basic_filebuf@DU?$char_traits@D@std@@@std@@IAEXPAU_iobuf@@W4_Initfl@12@@Z 005f1410 f i MAP.obj
 0002:000755b0       ?_Init@?$basic_streambuf@DU?$char_traits@D@std@@@std@@IAEXPAPAD0PAH001@Z 005f15b0 f i MAP.obj
 0002:00075630       ?_Init@?$basic_streambuf@DU?$char_traits@D@std@@@std@@IAEXXZ 005f1630 f i MAP.obj
 0002:000756f0       ?_Init@?$codecvt@DDU_Mbstatet@@@std@@IAEXABV_Locinfo@2@@Z 005f16f0 f i MAP.obj
 0002:00075730       ?_Init@?$ctype@D@std@@IAEXABV_Locinfo@2@@Z 005f1730 f i MAP.obj
 0002:000757b0       ?_Init@ios_base@std@@IAEXXZ 005f17b0 f i MAP.obj
 0002:000758d0       ?_Init_atomic_counter@std@@YAXAAKK@Z 005f18d0 f i MAP.obj
 0002:00075910       ?_Initcvt@?$basic_filebuf@DU?$char_traits@D@std@@@std@@IAEXPBV?$codecvt@DDU_Mbstatet@@@2@@Z 005f1910 f i MAP.obj
 0002:00075990       ?_Inside@?$basic_string@DU?$char_traits@D@std@@V?$allocator@D@2@@std@@QAE_NPBD@Z 005f1990 f i MAP.obj
 0002:00075a20       ?_Ipfx@?$basic_istream@DU?$char_traits@D@std@@@std@@QAE_N_N@Z 005f1a20 f i MAP.obj
 0002:00075d60       ?_Isnil@?$_Tree_comp_alloc@V?$_Tmap_traits@IPAHU?$less@I@std@@V?$allocator@U?$pair@$$CBIPAH@std@@@2@$0A@@std@@@std@@SAAADPAU?$_Tree_node@U?$pair@$$CBIPAH@std@@PAX@2@@Z 005f1d60 f i MAP.obj
 0002:00075db0       ?_Isnil@?$_Tree_comp_alloc@V?$_Tmap_traits@IPAU_OBJECT_EVENT@@U?$less@I@std@@V?$allocator@U?$pair@$$CBIPAU_OBJECT_EVENT@@@std@@@3@$0A@@std@@@std@@SAAADPAU?$_Tree_node@U?$pair@$$CBIPAU_OBJECT_EVENT@@@std@@PAX@2@@Z 005f1db0 f i MAP.obj
 0002:00075e00       ?_Isnil@?$_Tree_comp_alloc@V?$_Tmap_traits@IPAVCRoomEvent@@U?$less@I@std@@V?$allocator@U?$pair@$$CBIPAVCRoomEvent@@@std@@@3@$0A@@std@@@std@@SAAADPAU?$_Tree_node@U?$pair@$$CBIPAVCRoomEvent@@@std@@PAX@2@@Z 005f1e00 f i MAP.obj
 0002:00075e50       ?_Isnil@?$_Tree_val@U?$_Tree_simple_types@U?$pair@$$CBIPAH@std@@@std@@@std@@SAAADPAU?$_Tree_node@U?$pair@$$CBIPAH@std@@PAX@2@@Z 005f1e50 f i MAP.obj
 0002:00075e90       ?_Isnil@?$_Tree_val@U?$_Tree_simple_types@U?$pair@$$CBIPAU_OBJECT_EVENT@@@std@@@std@@@std@@SAAADPAU?$_Tree_node@U?$pair@$$CBIPAU_OBJECT_EVENT@@@std@@PAX@2@@Z 005f1e90 f i MAP.obj
 0002:00075ed0       ?_Isnil@?$_Tree_val@U?$_Tree_simple_types@U?$pair@$$CBIPAVCRoomEvent@@@std@@@std@@@std@@SAAADPAU?$_Tree_node@U?$pair@$$CBIPAVCRoomEvent@@@std@@PAX@2@@Z 005f1ed0 f i MAP.obj
 0002:00075f10       ?_Key@?$_Tree@V?$_Tmap_traits@IPAHU?$less@I@std@@V?$allocator@U?$pair@$$CBIPAH@std@@@2@$0A@@std@@@std@@IBEABIPAU?$_Tree_node@U?$pair@$$CBIPAH@std@@PAX@2@@Z 005f1f10 f i MAP.obj
 0002:00075f80       ?_Key@?$_Tree@V?$_Tmap_traits@IPAU_OBJECT_EVENT@@U?$less@I@std@@V?$allocator@U?$pair@$$CBIPAU_OBJECT_EVENT@@@std@@@3@$0A@@std@@@std@@IBEABIPAU?$_Tree_node@U?$pair@$$CBIPAU_OBJECT_EVENT@@@std@@PAX@2@@Z 005f1f80 f i MAP.obj
 0002:00075ff0       ?_Key@?$_Tree@V?$_Tmap_traits@IPAVCRoomEvent@@U?$less@I@std@@V?$allocator@U?$pair@$$CBIPAVCRoomEvent@@@std@@@3@$0A@@std@@@std@@IBEABIPAU?$_Tree_node@U?$pair@$$CBIPAVCRoomEvent@@@std@@PAX@2@@Z 005f1ff0 f i MAP.obj
 0002:00076060       ?_Kfn@?$_Tree@V?$_Tmap_traits@IPAHU?$less@I@std@@V?$allocator@U?$pair@$$CBIPAH@std@@@2@$0A@@std@@@std@@IBEABIABU?$pair@$$CBIPAH@2@@Z 005f2060 f i MAP.obj
 0002:000760c0       ?_Kfn@?$_Tree@V?$_Tmap_traits@IPAU_OBJECT_EVENT@@U?$less@I@std@@V?$allocator@U?$pair@$$CBIPAU_OBJECT_EVENT@@@std@@@3@$0A@@std@@@std@@IBEABIABU?$pair@$$CBIPAU_OBJECT_EVENT@@@2@@Z 005f20c0 f i MAP.obj
 0002:00076120       ?_Kfn@?$_Tree@V?$_Tmap_traits@IPAVCRoomEvent@@U?$less@I@std@@V?$allocator@U?$pair@$$CBIPAVCRoomEvent@@@std@@@3@$0A@@std@@@std@@IBEABIABU?$pair@$$CBIPAVCRoomEvent@@@2@@Z 005f2120 f i MAP.obj
 0002:00076180       ?_Left@?$_Tree_comp_alloc@V?$_Tmap_traits@IPAHU?$less@I@std@@V?$allocator@U?$pair@$$CBIPAH@std@@@2@$0A@@std@@@std@@SAAAPAU?$_Tree_node@U?$pair@$$CBIPAH@std@@PAX@2@PAU32@@Z 005f2180 f i MAP.obj
 0002:000761d0       ?_Left@?$_Tree_comp_alloc@V?$_Tmap_traits@IPAU_OBJECT_EVENT@@U?$less@I@std@@V?$allocator@U?$pair@$$CBIPAU_OBJECT_EVENT@@@std@@@3@$0A@@std@@@std@@SAAAPAU?$_Tree_node@U?$pair@$$CBIPAU_OBJECT_EVENT@@@std@@PAX@2@PAU32@@Z 005f21d0 f i MAP.obj
 0002:00076220       ?_Left@?$_Tree_comp_alloc@V?$_Tmap_traits@IPAVCRoomEvent@@U?$less@I@std@@V?$allocator@U?$pair@$$CBIPAVCRoomEvent@@@std@@@3@$0A@@std@@@std@@SAAAPAU?$_Tree_node@U?$pair@$$CBIPAVCRoomEvent@@@std@@PAX@2@PAU32@@Z 005f2220 f i MAP.obj
 0002:00076270       ?_Left@?$_Tree_val@U?$_Tree_simple_types@U?$pair@$$CBIPAH@std@@@std@@@std@@SAAAPAU?$_Tree_node@U?$pair@$$CBIPAH@std@@PAX@2@PAU32@@Z 005f2270 f i MAP.obj
 0002:000762b0       ?_Left@?$_Tree_val@U?$_Tree_simple_types@U?$pair@$$CBIPAU_OBJECT_EVENT@@@std@@@std@@@std@@SAAAPAU?$_Tree_node@U?$pair@$$CBIPAU_OBJECT_EVENT@@@std@@PAX@2@PAU32@@Z 005f22b0 f i MAP.obj
 0002:000762f0       ?_Left@?$_Tree_val@U?$_Tree_simple_types@U?$pair@$$CBIPAVCRoomEvent@@@std@@@std@@@std@@SAAAPAU?$_Tree_node@U?$pair@$$CBIPAVCRoomEvent@@@std@@PAX@2@PAU32@@Z 005f22f0 f i MAP.obj
 0002:00076330       ?_Lmost@?$_Tree@V?$_Tmap_traits@IPAHU?$less@I@std@@V?$allocator@U?$pair@$$CBIPAH@std@@@2@$0A@@std@@@std@@IBEAAPAU?$_Tree_node@U?$pair@$$CBIPAH@std@@PAX@2@XZ 005f2330 f i MAP.obj
 0002:00076390       ?_Lmost@?$_Tree@V?$_Tmap_traits@IPAU_OBJECT_EVENT@@U?$less@I@std@@V?$allocator@U?$pair@$$CBIPAU_OBJECT_EVENT@@@std@@@3@$0A@@std@@@std@@IBEAAPAU?$_Tree_node@U?$pair@$$CBIPAU_OBJECT_EVENT@@@std@@PAX@2@XZ 005f2390 f i MAP.obj
 0002:000763f0       ?_Lmost@?$_Tree@V?$_Tmap_traits@IPAVCRoomEvent@@U?$less@I@std@@V?$allocator@U?$pair@$$CBIPAVCRoomEvent@@@std@@@3@$0A@@std@@@std@@IBEAAPAU?$_Tree_node@U?$pair@$$CBIPAVCRoomEvent@@@std@@PAX@2@XZ 005f23f0 f i MAP.obj
 0002:00076450       ?_Lock@?$basic_filebuf@DU?$char_traits@D@std@@@std@@UAEXXZ 005f2450 f i MAP.obj
 0002:000764c0       ?_Lock@?$basic_streambuf@DU?$char_traits@D@std@@@std@@UAEXXZ 005f24c0 f i MAP.obj
 0002:00076500       ?_Lrotate@?$_Tree@V?$_Tmap_traits@IPAHU?$less@I@std@@V?$allocator@U?$pair@$$CBIPAH@std@@@2@$0A@@std@@@std@@IAEXPAU?$_Tree_node@U?$pair@$$CBIPAH@std@@PAX@2@@Z 005f2500 f i MAP.obj
 0002:000766b0       ?_Lrotate@?$_Tree@V?$_Tmap_traits@IPAU_OBJECT_EVENT@@U?$less@I@std@@V?$allocator@U?$pair@$$CBIPAU_OBJECT_EVENT@@@std@@@3@$0A@@std@@@std@@IAEXPAU?$_Tree_node@U?$pair@$$CBIPAU_OBJECT_EVENT@@@std@@PAX@2@@Z 005f26b0 f i MAP.obj
 0002:00076860       ?_Lrotate@?$_Tree@V?$_Tmap_traits@IPAVCRoomEvent@@U?$less@I@std@@V?$allocator@U?$pair@$$CBIPAVCRoomEvent@@@std@@@3@$0A@@std@@@std@@IAEXPAU?$_Tree_node@U?$pair@$$CBIPAVCRoomEvent@@@std@@PAX@2@@Z 005f2860 f i MAP.obj
 0002:00076a10       ?_Makestr@_System_error@std@@CA?AV?$basic_string@DU?$char_traits@D@std@@V?$allocator@D@2@@2@Verror_code@2@V32@@Z 005f2a10 f i MAP.obj
 0002:00076b60       ?_Max@?$_Tree_comp_alloc@V?$_Tmap_traits@IPAHU?$less@I@std@@V?$allocator@U?$pair@$$CBIPAH@std@@@2@$0A@@std@@@std@@SAPAU?$_Tree_node@U?$pair@$$CBIPAH@std@@PAX@2@PAU32@@Z 005f2b60 f i MAP.obj
 0002:00076bb0       ?_Max@?$_Tree_comp_alloc@V?$_Tmap_traits@IPAVCRoomEvent@@U?$less@I@std@@V?$allocator@U?$pair@$$CBIPAVCRoomEvent@@@std@@@3@$0A@@std@@@std@@SAPAU?$_Tree_node@U?$pair@$$CBIPAVCRoomEvent@@@std@@PAX@2@PAU32@@Z 005f2bb0 f i MAP.obj
 0002:00076c00       ?_Max@?$_Tree_val@U?$_Tree_simple_types@U?$pair@$$CBIPAH@std@@@std@@@std@@SAPAU?$_Tree_node@U?$pair@$$CBIPAH@std@@PAX@2@PAU32@@Z 005f2c00 f i MAP.obj
 0002:00076c80       ?_Max@?$_Tree_val@U?$_Tree_simple_types@U?$pair@$$CBIPAU_OBJECT_EVENT@@@std@@@std@@@std@@SAPAU?$_Tree_node@U?$pair@$$CBIPAU_OBJECT_EVENT@@@std@@PAX@2@PAU32@@Z 005f2c80 f i MAP.obj
 0002:00076d00       ?_Max@?$_Tree_val@U?$_Tree_simple_types@U?$pair@$$CBIPAVCRoomEvent@@@std@@@std@@@std@@SAPAU?$_Tree_node@U?$pair@$$CBIPAVCRoomEvent@@@std@@PAX@2@PAU32@@Z 005f2d00 f i MAP.obj
 0002:00076d80       ?_Min@?$_Tree_comp_alloc@V?$_Tmap_traits@IPAHU?$less@I@std@@V?$allocator@U?$pair@$$CBIPAH@std@@@2@$0A@@std@@@std@@SAPAU?$_Tree_node@U?$pair@$$CBIPAH@std@@PAX@2@PAU32@@Z 005f2d80 f i MAP.obj
 0002:00076dd0       ?_Min@?$_Tree_comp_alloc@V?$_Tmap_traits@IPAVCRoomEvent@@U?$less@I@std@@V?$allocator@U?$pair@$$CBIPAVCRoomEvent@@@std@@@3@$0A@@std@@@std@@SAPAU?$_Tree_node@U?$pair@$$CBIPAVCRoomEvent@@@std@@PAX@2@PAU32@@Z 005f2dd0 f i MAP.obj
 0002:00076e20       ?_Min@?$_Tree_val@U?$_Tree_simple_types@U?$pair@$$CBIPAH@std@@@std@@@std@@SAPAU?$_Tree_node@U?$pair@$$CBIPAH@std@@PAX@2@PAU32@@Z 005f2e20 f i MAP.obj
 0002:00076ea0       ?_Min@?$_Tree_val@U?$_Tree_simple_types@U?$pair@$$CBIPAU_OBJECT_EVENT@@@std@@@std@@@std@@SAPAU?$_Tree_node@U?$pair@$$CBIPAU_OBJECT_EVENT@@@std@@PAX@2@PAU32@@Z 005f2ea0 f i MAP.obj
 0002:00076f20       ?_Min@?$_Tree_val@U?$_Tree_simple_types@U?$pair@$$CBIPAVCRoomEvent@@@std@@@std@@@std@@SAPAU?$_Tree_node@U?$pair@$$CBIPAVCRoomEvent@@@std@@PAX@2@PAU32@@Z 005f2f20 f i MAP.obj
 0002:00076fa0       ?_Myhead@?$_Tree_comp_alloc@V?$_Tmap_traits@IPAHU?$less@I@std@@V?$allocator@U?$pair@$$CBIPAH@std@@@2@$0A@@std@@@std@@QAEAAPAU?$_Tree_node@U?$pair@$$CBIPAH@std@@PAX@2@XZ 005f2fa0 f i MAP.obj
 0002:00077000       ?_Myhead@?$_Tree_comp_alloc@V?$_Tmap_traits@IPAHU?$less@I@std@@V?$allocator@U?$pair@$$CBIPAH@std@@@2@$0A@@std@@@std@@QBEABQAU?$_Tree_node@U?$pair@$$CBIPAH@std@@PAX@2@XZ 005f3000 f i MAP.obj
 0002:00077060       ?_Myhead@?$_Tree_comp_alloc@V?$_Tmap_traits@IPAU_OBJECT_EVENT@@U?$less@I@std@@V?$allocator@U?$pair@$$CBIPAU_OBJECT_EVENT@@@std@@@3@$0A@@std@@@std@@QAEAAPAU?$_Tree_node@U?$pair@$$CBIPAU_OBJECT_EVENT@@@std@@PAX@2@XZ 005f3060 f i MAP.obj
 0002:000770c0       ?_Myhead@?$_Tree_comp_alloc@V?$_Tmap_traits@IPAU_OBJECT_EVENT@@U?$less@I@std@@V?$allocator@U?$pair@$$CBIPAU_OBJECT_EVENT@@@std@@@3@$0A@@std@@@std@@QBEABQAU?$_Tree_node@U?$pair@$$CBIPAU_OBJECT_EVENT@@@std@@PAX@2@XZ 005f30c0 f i MAP.obj
 0002:00077120       ?_Myhead@?$_Tree_comp_alloc@V?$_Tmap_traits@IPAVCRoomEvent@@U?$less@I@std@@V?$allocator@U?$pair@$$CBIPAVCRoomEvent@@@std@@@3@$0A@@std@@@std@@QAEAAPAU?$_Tree_node@U?$pair@$$CBIPAVCRoomEvent@@@std@@PAX@2@XZ 005f3120 f i MAP.obj
 0002:00077180       ?_Myhead@?$_Tree_comp_alloc@V?$_Tmap_traits@IPAVCRoomEvent@@U?$less@I@std@@V?$allocator@U?$pair@$$CBIPAVCRoomEvent@@@std@@@3@$0A@@std@@@std@@QBEABQAU?$_Tree_node@U?$pair@$$CBIPAVCRoomEvent@@@std@@PAX@2@XZ 005f3180 f i MAP.obj
 0002:000771e0       ?_Mynode@?$_Tree_unchecked_const_iterator@V?$_Tree_val@U?$_Tree_simple_types@U?$pair@$$CBIPAH@std@@@std@@@std@@U_Iterator_base12@2@@std@@QBEPAU?$_Tree_node@U?$pair@$$CBIPAH@std@@PAX@2@XZ 005f31e0 f i MAP.obj
 0002:00077220       ?_Mynode@?$_Tree_unchecked_const_iterator@V?$_Tree_val@U?$_Tree_simple_types@U?$pair@$$CBIPAU_OBJECT_EVENT@@@std@@@std@@@std@@U_Iterator_base12@2@@std@@QBEPAU?$_Tree_node@U?$pair@$$CBIPAU_OBJECT_EVENT@@@std@@PAX@2@XZ 005f3220 f i MAP.obj
 0002:00077260       ?_Mynode@?$_Tree_unchecked_const_iterator@V?$_Tree_val@U?$_Tree_simple_types@U?$pair@$$CBIPAVCRoomEvent@@@std@@@std@@@std@@U_Iterator_base12@2@@std@@QBEPAU?$_Tree_node@U?$pair@$$CBIPAVCRoomEvent@@@std@@PAX@2@XZ 005f3260 f i MAP.obj
 0002:000772a0       ?_Myproxy@?$_Tree_comp_alloc@V?$_Tmap_traits@IPAHU?$less@I@std@@V?$allocator@U?$pair@$$CBIPAH@std@@@2@$0A@@std@@@std@@QAEAAPAU_Container_proxy@2@XZ 005f32a0 f i MAP.obj
 0002:000772f0       ?_Myproxy@?$_Tree_comp_alloc@V?$_Tmap_traits@IPAVCRoomEvent@@U?$less@I@std@@V?$allocator@U?$pair@$$CBIPAVCRoomEvent@@@std@@@3@$0A@@std@@@std@@QAEAAPAU_Container_proxy@2@XZ 005f32f0 f i MAP.obj
 0002:00077340       ?_Mysize@?$_Tree_comp_alloc@V?$_Tmap_traits@IPAHU?$less@I@std@@V?$allocator@U?$pair@$$CBIPAH@std@@@2@$0A@@std@@@std@@QAEAAIXZ 005f3340 f i MAP.obj
 0002:000773a0       ?_Mysize@?$_Tree_comp_alloc@V?$_Tmap_traits@IPAHU?$less@I@std@@V?$allocator@U?$pair@$$CBIPAH@std@@@2@$0A@@std@@@std@@QBEABIXZ 005f33a0 f i MAP.obj
 0002:00077400       ?_Mysize@?$_Tree_comp_alloc@V?$_Tmap_traits@IPAU_OBJECT_EVENT@@U?$less@I@std@@V?$allocator@U?$pair@$$CBIPAU_OBJECT_EVENT@@@std@@@3@$0A@@std@@@std@@QAEAAIXZ 005f3400 f i MAP.obj
 0002:00077460       ?_Mysize@?$_Tree_comp_alloc@V?$_Tmap_traits@IPAU_OBJECT_EVENT@@U?$less@I@std@@V?$allocator@U?$pair@$$CBIPAU_OBJECT_EVENT@@@std@@@3@$0A@@std@@@std@@QBEABIXZ 005f3460 f i MAP.obj
 0002:000774c0       ?_Mysize@?$_Tree_comp_alloc@V?$_Tmap_traits@IPAVCRoomEvent@@U?$less@I@std@@V?$allocator@U?$pair@$$CBIPAVCRoomEvent@@@std@@@3@$0A@@std@@@std@@QAEAAIXZ 005f34c0 f i MAP.obj
 0002:00077520       ?_Mysize@?$_Tree_comp_alloc@V?$_Tmap_traits@IPAVCRoomEvent@@U?$less@I@std@@V?$allocator@U?$pair@$$CBIPAVCRoomEvent@@@std@@@3@$0A@@std@@@std@@QBEABIXZ 005f3520 f i MAP.obj
 0002:00077580       ?_Myval@?$_Tree_comp_alloc@V?$_Tmap_traits@IPAHU?$less@I@std@@V?$allocator@U?$pair@$$CBIPAH@std@@@2@$0A@@std@@@std@@SAAAU?$pair@$$CBIPAH@2@PAU?$_Tree_node@U?$pair@$$CBIPAH@std@@PAX@2@@Z 005f3580 f i MAP.obj
 0002:000775d0       ?_Myval@?$_Tree_comp_alloc@V?$_Tmap_traits@IPAU_OBJECT_EVENT@@U?$less@I@std@@V?$allocator@U?$pair@$$CBIPAU_OBJECT_EVENT@@@std@@@3@$0A@@std@@@std@@SAAAU?$pair@$$CBIPAU_OBJECT_EVENT@@@2@PAU?$_Tree_node@U?$pair@$$CBIPAU_OBJECT_EVENT@@@std@@PAX@2@@Z 005f35d0 f i MAP.obj
 0002:00077620       ?_Myval@?$_Tree_comp_alloc@V?$_Tmap_traits@IPAVCRoomEvent@@U?$less@I@std@@V?$allocator@U?$pair@$$CBIPAVCRoomEvent@@@std@@@3@$0A@@std@@@std@@SAAAU?$pair@$$CBIPAVCRoomEvent@@@2@PAU?$_Tree_node@U?$pair@$$CBIPAVCRoomEvent@@@std@@PAX@2@@Z 005f3620 f i MAP.obj
 0002:00077670       ?_Myval@?$_Tree_val@U?$_Tree_simple_types@U?$pair@$$CBIPAH@std@@@std@@@std@@SAAAU?$pair@$$CBIPAH@2@PAU?$_Tree_node@U?$pair@$$CBIPAH@std@@PAX@2@@Z 005f3670 f i MAP.obj
 0002:000776b0       ?_Myval@?$_Tree_val@U?$_Tree_simple_types@U?$pair@$$CBIPAU_OBJECT_EVENT@@@std@@@std@@@std@@SAAAU?$pair@$$CBIPAU_OBJECT_EVENT@@@2@PAU?$_Tree_node@U?$pair@$$CBIPAU_OBJECT_EVENT@@@std@@PAX@2@@Z 005f36b0 f i MAP.obj
 0002:000776f0       ?_Myval@?$_Tree_val@U?$_Tree_simple_types@U?$pair@$$CBIPAVCRoomEvent@@@std@@@std@@@std@@SAAAU?$pair@$$CBIPAVCRoomEvent@@@2@PAU?$_Tree_node@U?$pair@$$CBIPAVCRoomEvent@@@std@@PAX@2@@Z 005f36f0 f i MAP.obj
 0002:00077730       ?_Orphan_all@?$_Tree_comp_alloc@V?$_Tmap_traits@IPAHU?$less@I@std@@V?$allocator@U?$pair@$$CBIPAH@std@@@2@$0A@@std@@@std@@QAEXXZ 005f3730 f i MAP.obj
 0002:00077790       ?_Orphan_all@?$_Tree_comp_alloc@V?$_Tmap_traits@IPAVCRoomEvent@@U?$less@I@std@@V?$allocator@U?$pair@$$CBIPAVCRoomEvent@@@std@@@3@$0A@@std@@@std@@QAEXXZ 005f3790 f i MAP.obj
 0002:000777f0       ?_Orphan_ptr@?$_Tree@V?$_Tmap_traits@IPAHU?$less@I@std@@V?$allocator@U?$pair@$$CBIPAH@std@@@2@$0A@@std@@@std@@IAEXPAU?$_Tree_node@U?$pair@$$CBIPAH@std@@PAX@2@@Z 005f37f0 f i MAP.obj
 0002:00077950       ?_Orphan_ptr@?$_Tree@V?$_Tmap_traits@IPAVCRoomEvent@@U?$less@I@std@@V?$allocator@U?$pair@$$CBIPAVCRoomEvent@@@std@@@3@$0A@@std@@@std@@IAEXPAU?$_Tree_node@U?$pair@$$CBIPAVCRoomEvent@@@std@@PAX@2@@Z 005f3950 f i MAP.obj
 0002:00077ab0       ?_Osfx@?$basic_ostream@DU?$char_traits@D@std@@@std@@QAEXXZ 005f3ab0 f i MAP.obj
 0002:00077c10       ?_Parent@?$_Tree_comp_alloc@V?$_Tmap_traits@IPAHU?$less@I@std@@V?$allocator@U?$pair@$$CBIPAH@std@@@2@$0A@@std@@@std@@SAAAPAU?$_Tree_node@U?$pair@$$CBIPAH@std@@PAX@2@PAU32@@Z 005f3c10 f i MAP.obj
 0002:00077c60       ?_Parent@?$_Tree_comp_alloc@V?$_Tmap_traits@IPAU_OBJECT_EVENT@@U?$less@I@std@@V?$allocator@U?$pair@$$CBIPAU_OBJECT_EVENT@@@std@@@3@$0A@@std@@@std@@SAAAPAU?$_Tree_node@U?$pair@$$CBIPAU_OBJECT_EVENT@@@std@@PAX@2@PAU32@@Z 005f3c60 f i MAP.obj
 0002:00077cb0       ?_Parent@?$_Tree_comp_alloc@V?$_Tmap_traits@IPAVCRoomEvent@@U?$less@I@std@@V?$allocator@U?$pair@$$CBIPAVCRoomEvent@@@std@@@3@$0A@@std@@@std@@SAAAPAU?$_Tree_node@U?$pair@$$CBIPAVCRoomEvent@@@std@@PAX@2@PAU32@@Z 005f3cb0 f i MAP.obj
 0002:00077d00       ?_Parent@?$_Tree_val@U?$_Tree_simple_types@U?$pair@$$CBIPAH@std@@@std@@@std@@SAAAPAU?$_Tree_node@U?$pair@$$CBIPAH@std@@PAX@2@PAU32@@Z 005f3d00 f i MAP.obj
 0002:00077d40       ?_Parent@?$_Tree_val@U?$_Tree_simple_types@U?$pair@$$CBIPAU_OBJECT_EVENT@@@std@@@std@@@std@@SAAAPAU?$_Tree_node@U?$pair@$$CBIPAU_OBJECT_EVENT@@@std@@PAX@2@PAU32@@Z 005f3d40 f i MAP.obj
 0002:00077d80       ?_Parent@?$_Tree_val@U?$_Tree_simple_types@U?$pair@$$CBIPAVCRoomEvent@@@std@@@std@@@std@@SAAAPAU?$_Tree_node@U?$pair@$$CBIPAVCRoomEvent@@@std@@PAX@2@PAU32@@Z 005f3d80 f i MAP.obj
 0002:00077dc0       ?_Pnavail@?$basic_streambuf@DU?$char_traits@D@std@@@std@@IBE_JXZ 005f3dc0 f i MAP.obj
 0002:00077e30       ?_Pninc@?$basic_streambuf@DU?$char_traits@D@std@@@std@@IAEPADXZ 005f3e30 f i MAP.obj
 0002:00077eb0       ?_Reset_back@?$basic_filebuf@DU?$char_traits@D@std@@@std@@AAEXXZ 005f3eb0 f i MAP.obj
 0002:00077f30       ?_Right@?$_Tree_comp_alloc@V?$_Tmap_traits@IPAHU?$less@I@std@@V?$allocator@U?$pair@$$CBIPAH@std@@@2@$0A@@std@@@std@@SAAAPAU?$_Tree_node@U?$pair@$$CBIPAH@std@@PAX@2@PAU32@@Z 005f3f30 f i MAP.obj
 0002:00077f80       ?_Right@?$_Tree_comp_alloc@V?$_Tmap_traits@IPAU_OBJECT_EVENT@@U?$less@I@std@@V?$allocator@U?$pair@$$CBIPAU_OBJECT_EVENT@@@std@@@3@$0A@@std@@@std@@SAAAPAU?$_Tree_node@U?$pair@$$CBIPAU_OBJECT_EVENT@@@std@@PAX@2@PAU32@@Z 005f3f80 f i MAP.obj
 0002:00077fd0       ?_Right@?$_Tree_comp_alloc@V?$_Tmap_traits@IPAVCRoomEvent@@U?$less@I@std@@V?$allocator@U?$pair@$$CBIPAVCRoomEvent@@@std@@@3@$0A@@std@@@std@@SAAAPAU?$_Tree_node@U?$pair@$$CBIPAVCRoomEvent@@@std@@PAX@2@PAU32@@Z 005f3fd0 f i MAP.obj
 0002:00078020       ?_Right@?$_Tree_val@U?$_Tree_simple_types@U?$pair@$$CBIPAH@std@@@std@@@std@@SAAAPAU?$_Tree_node@U?$pair@$$CBIPAH@std@@PAX@2@PAU32@@Z 005f4020 f i MAP.obj
 0002:00078060       ?_Right@?$_Tree_val@U?$_Tree_simple_types@U?$pair@$$CBIPAU_OBJECT_EVENT@@@std@@@std@@@std@@SAAAPAU?$_Tree_node@U?$pair@$$CBIPAU_OBJECT_EVENT@@@std@@PAX@2@PAU32@@Z 005f4060 f i MAP.obj
 0002:000780a0       ?_Right@?$_Tree_val@U?$_Tree_simple_types@U?$pair@$$CBIPAVCRoomEvent@@@std@@@std@@@std@@SAAAPAU?$_Tree_node@U?$pair@$$CBIPAVCRoomEvent@@@std@@PAX@2@PAU32@@Z 005f40a0 f i MAP.obj
 0002:000780e0       ?_Rmost@?$_Tree@V?$_Tmap_traits@IPAHU?$less@I@std@@V?$allocator@U?$pair@$$CBIPAH@std@@@2@$0A@@std@@@std@@IBEAAPAU?$_Tree_node@U?$pair@$$CBIPAH@std@@PAX@2@XZ 005f40e0 f i MAP.obj
 0002:00078140       ?_Rmost@?$_Tree@V?$_Tmap_traits@IPAU_OBJECT_EVENT@@U?$less@I@std@@V?$allocator@U?$pair@$$CBIPAU_OBJECT_EVENT@@@std@@@3@$0A@@std@@@std@@IBEAAPAU?$_Tree_node@U?$pair@$$CBIPAU_OBJECT_EVENT@@@std@@PAX@2@XZ 005f4140 f i MAP.obj
 0002:000781a0       ?_Rmost@?$_Tree@V?$_Tmap_traits@IPAVCRoomEvent@@U?$less@I@std@@V?$allocator@U?$pair@$$CBIPAVCRoomEvent@@@std@@@3@$0A@@std@@@std@@IBEAAPAU?$_Tree_node@U?$pair@$$CBIPAVCRoomEvent@@@std@@PAX@2@XZ 005f41a0 f i MAP.obj
 0002:00078200       ?_Root@?$_Tree@V?$_Tmap_traits@IPAHU?$less@I@std@@V?$allocator@U?$pair@$$CBIPAH@std@@@2@$0A@@std@@@std@@IBEAAPAU?$_Tree_node@U?$pair@$$CBIPAH@std@@PAX@2@XZ 005f4200 f i MAP.obj
 0002:00078260       ?_Root@?$_Tree@V?$_Tmap_traits@IPAU_OBJECT_EVENT@@U?$less@I@std@@V?$allocator@U?$pair@$$CBIPAU_OBJECT_EVENT@@@std@@@3@$0A@@std@@@std@@IBEAAPAU?$_Tree_node@U?$pair@$$CBIPAU_OBJECT_EVENT@@@std@@PAX@2@XZ 005f4260 f i MAP.obj
 0002:000782c0       ?_Root@?$_Tree@V?$_Tmap_traits@IPAVCRoomEvent@@U?$less@I@std@@V?$allocator@U?$pair@$$CBIPAVCRoomEvent@@@std@@@3@$0A@@std@@@std@@IBEAAPAU?$_Tree_node@U?$pair@$$CBIPAVCRoomEvent@@@std@@PAX@2@XZ 005f42c0 f i MAP.obj
 0002:00078320       ?_Rrotate@?$_Tree@V?$_Tmap_traits@IPAHU?$less@I@std@@V?$allocator@U?$pair@$$CBIPAH@std@@@2@$0A@@std@@@std@@IAEXPAU?$_Tree_node@U?$pair@$$CBIPAH@std@@PAX@2@@Z 005f4320 f i MAP.obj
 0002:000784d0       ?_Rrotate@?$_Tree@V?$_Tmap_traits@IPAU_OBJECT_EVENT@@U?$less@I@std@@V?$allocator@U?$pair@$$CBIPAU_OBJECT_EVENT@@@std@@@3@$0A@@std@@@std@@IAEXPAU?$_Tree_node@U?$pair@$$CBIPAU_OBJECT_EVENT@@@std@@PAX@2@@Z 005f44d0 f i MAP.obj
 0002:00078680       ?_Rrotate@?$_Tree@V?$_Tmap_traits@IPAVCRoomEvent@@U?$less@I@std@@V?$allocator@U?$pair@$$CBIPAVCRoomEvent@@@std@@@3@$0A@@std@@@std@@IAEXPAU?$_Tree_node@U?$pair@$$CBIPAVCRoomEvent@@@std@@PAX@2@@Z 005f4680 f i MAP.obj
 0002:00078830       ?_Set_back@?$basic_filebuf@DU?$char_traits@D@std@@@std@@AAEXXZ 005f4830 f i MAP.obj
 0002:000788e0       ?_Tidy@?$_Tree@V?$_Tmap_traits@IPAHU?$less@I@std@@V?$allocator@U?$pair@$$CBIPAH@std@@@2@$0A@@std@@@std@@IAEXXZ 005f48e0 f i MAP.obj
 0002:00078a70       ?_Tidy@?$_Tree@V?$_Tmap_traits@IPAVCRoomEvent@@U?$less@I@std@@V?$allocator@U?$pair@$$CBIPAVCRoomEvent@@@std@@@3@$0A@@std@@@std@@IAEXXZ 005f4a70 f i MAP.obj
 0002:00078c00       ?_Tidy@?$_Yarn@D@std@@AAEXXZ 005f4c00 f i MAP.obj
 0002:00078c70       ?_Tidy@?$_Yarn@_W@std@@AAEXXZ 005f4c70 f i MAP.obj
 0002:00078ce0       ?_Tidy@?$ctype@D@std@@IAEXXZ 005f4ce0 f i MAP.obj
 0002:00078d90       ?_Unlock@?$basic_filebuf@DU?$char_traits@D@std@@@std@@UAEXXZ 005f4d90 f i MAP.obj
 0002:00078e00       ?_Unlock@?$basic_streambuf@DU?$char_traits@D@std@@@std@@UAEXXZ 005f4e00 f i MAP.obj
 0002:00078e40       ?_Xran@?$basic_string@DU?$char_traits@D@std@@V?$allocator@D@2@@std@@QBEXXZ 005f4e40 f i MAP.obj
 0002:00078ea0       ?allocate@?$_Wrap_alloc@V?$allocator@U?$_Tree_node@U?$pair@$$CBIPAH@std@@PAX@std@@@std@@@std@@QAEPAU?$_Tree_node@U?$pair@$$CBIPAH@std@@PAX@2@I@Z 005f4ea0 f i MAP.obj
 0002:00078f00       ?allocate@?$_Wrap_alloc@V?$allocator@U?$_Tree_node@U?$pair@$$CBIPAU_OBJECT_EVENT@@@std@@PAX@std@@@std@@@std@@QAEPAU?$_Tree_node@U?$pair@$$CBIPAU_OBJECT_EVENT@@@std@@PAX@2@I@Z 005f4f00 f i MAP.obj
 0002:00078f60       ?allocate@?$_Wrap_alloc@V?$allocator@U?$_Tree_node@U?$pair@$$CBIPAVCRoomEvent@@@std@@PAX@std@@@std@@@std@@QAEPAU?$_Tree_node@U?$pair@$$CBIPAVCRoomEvent@@@std@@PAX@2@I@Z 005f4f60 f i MAP.obj
 0002:00078fc0       ?allocate@?$allocator@U?$_Tree_node@U?$pair@$$CBIPAH@std@@PAX@std@@@std@@QAEPAU?$_Tree_node@U?$pair@$$CBIPAH@std@@PAX@2@I@Z 005f4fc0 f i MAP.obj
 0002:00079020       ?allocate@?$allocator@U?$_Tree_node@U?$pair@$$CBIPAU_OBJECT_EVENT@@@std@@PAX@std@@@std@@QAEPAU?$_Tree_node@U?$pair@$$CBIPAU_OBJECT_EVENT@@@std@@PAX@2@I@Z 005f5020 f i MAP.obj
 0002:00079080       ?allocate@?$allocator@U?$_Tree_node@U?$pair@$$CBIPAVCRoomEvent@@@std@@PAX@std@@@std@@QAEPAU?$_Tree_node@U?$pair@$$CBIPAVCRoomEvent@@@std@@PAX@2@I@Z 005f5080 f i MAP.obj
 0002:000790e0       ?always_noconv@codecvt_base@std@@QBE_NXZ 005f50e0 f i MAP.obj
 0002:00079140       ?append@?$basic_string@DU?$char_traits@D@std@@V?$allocator@D@2@@std@@QAEAAV12@ABV12@@Z 005f5140 f i MAP.obj
 0002:000791a0       ?append@?$basic_string@DU?$char_traits@D@std@@V?$allocator@D@2@@std@@QAEAAV12@ABV12@II@Z 005f51a0 f i MAP.obj
 0002:000792c0       ?append@?$basic_string@DU?$char_traits@D@std@@V?$allocator@D@2@@std@@QAEAAV12@PBD@Z 005f52c0 f i MAP.obj
 0002:00079350       ?append@?$basic_string@DU?$char_traits@D@std@@V?$allocator@D@2@@std@@QAEAAV12@PBDI@Z 005f5350 f i MAP.obj
 0002:000794c0       ?assign@?$basic_string@DU?$char_traits@D@std@@V?$allocator@D@2@@std@@QAEAAV12@ABV12@II@Z 005f54c0 f i MAP.obj
 0002:000795c0       ?assign@?$basic_string@DU?$char_traits@D@std@@V?$allocator@D@2@@std@@QAEAAV12@ID@Z 005f55c0 f i MAP.obj
 0002:00079670       ?assign@?$basic_string@DU?$char_traits@D@std@@V?$allocator@D@2@@std@@QAEAAV12@PBD@Z 005f5670 f i MAP.obj
 0002:00079700       ?assign@?$basic_string@DU?$char_traits@D@std@@V?$allocator@D@2@@std@@QAEAAV12@PBDI@Z 005f5700 f i MAP.obj
 0002:00079820       ?begin@?$_Tree@V?$_Tmap_traits@IPAHU?$less@I@std@@V?$allocator@U?$pair@$$CBIPAH@std@@@2@$0A@@std@@@std@@QAE?AV?$_Tree_iterator@V?$_Tree_val@U?$_Tree_simple_types@U?$pair@$$CBIPAH@std@@@std@@@std@@@2@XZ 005f5820 f i MAP.obj
 0002:000798d0       ?begin@?$_Tree@V?$_Tmap_traits@IPAU_OBJECT_EVENT@@U?$less@I@std@@V?$allocator@U?$pair@$$CBIPAU_OBJECT_EVENT@@@std@@@3@$0A@@std@@@std@@QAE?AV?$_Tree_iterator@V?$_Tree_val@U?$_Tree_simple_types@U?$pair@$$CBIPAU_OBJECT_EVENT@@@std@@@std@@@std@@@2@XZ 005f58d0 f i MAP.obj
 0002:00079980       ?begin@?$_Tree@V?$_Tmap_traits@IPAVCRoomEvent@@U?$less@I@std@@V?$allocator@U?$pair@$$CBIPAVCRoomEvent@@@std@@@3@$0A@@std@@@std@@QAE?AV?$_Tree_iterator@V?$_Tree_val@U?$_Tree_simple_types@U?$pair@$$CBIPAVCRoomEvent@@@std@@@std@@@std@@@2@XZ 005f5980 f i MAP.obj
 0002:00079a30       ?begin@?$basic_string@DU?$char_traits@D@std@@V?$allocator@D@2@@std@@QAE?AV?$_String_iterator@V?$_String_val@U?$_Simple_types@D@std@@@std@@@2@XZ 005f5a30 f i MAP.obj
 0002:00079ad0       ?c_str@?$_Yarn@D@std@@QBEPBDXZ 005f5ad0 f i MAP.obj
 0002:00079b40       ?c_str@locale@std@@QBEPBDXZ 005f5b40 f i MAP.obj
 0002:00079bc0       ?category@error_code@std@@QBEABVerror_category@2@XZ 005f5bc0 f i MAP.obj
 0002:00079c00       ?category@error_condition@std@@QBEABVerror_category@2@XZ 005f5c00 f i MAP.obj
 0002:00079c40       ?clear@?$_Tree@V?$_Tmap_traits@IPAHU?$less@I@std@@V?$allocator@U?$pair@$$CBIPAH@std@@@2@$0A@@std@@@std@@QAEXXZ 005f5c40 f i MAP.obj
 0002:00079d50       ?clear@?$_Tree@V?$_Tmap_traits@IPAVCRoomEvent@@U?$less@I@std@@V?$allocator@U?$pair@$$CBIPAVCRoomEvent@@@std@@@3@$0A@@std@@@std@@QAEXXZ 005f5d50 f i MAP.obj
 0002:00079e60       ?clear@?$basic_ios@DU?$char_traits@D@std@@@std@@QAEXH_N@Z 005f5e60 f i MAP.obj
 0002:00079ef0       ?clear@ios_base@std@@QAEXH@Z 005f5ef0 f i MAP.obj
 0002:00079f50       ?clear@ios_base@std@@QAEXH_N@Z 005f5f50 f i MAP.obj
 0002:0007a0d0       ?close@?$basic_filebuf@DU?$char_traits@D@std@@@std@@QAEPAV12@XZ 005f60d0 f i MAP.obj
 0002:0007a190       ?close@?$basic_ifstream@DU?$char_traits@D@std@@@std@@QAEXXZ 005f6190 f i MAP.obj
 0002:0007a210       ?deallocate@?$_Wrap_alloc@V?$allocator@U?$_Tree_node@U?$pair@$$CBIPAH@std@@PAX@std@@@std@@@std@@QAEXPAU?$_Tree_node@U?$pair@$$CBIPAH@std@@PAX@2@I@Z 005f6210 f i MAP.obj
 0002:0007a270       ?deallocate@?$_Wrap_alloc@V?$allocator@U?$_Tree_node@U?$pair@$$CBIPAU_OBJECT_EVENT@@@std@@PAX@std@@@std@@@std@@QAEXPAU?$_Tree_node@U?$pair@$$CBIPAU_OBJECT_EVENT@@@std@@PAX@2@I@Z 005f6270 f i MAP.obj
 0002:0007a2d0       ?deallocate@?$_Wrap_alloc@V?$allocator@U?$_Tree_node@U?$pair@$$CBIPAVCRoomEvent@@@std@@PAX@std@@@std@@@std@@QAEXPAU?$_Tree_node@U?$pair@$$CBIPAVCRoomEvent@@@std@@PAX@2@I@Z 005f62d0 f i MAP.obj
 0002:0007a330       ?deallocate@?$allocator@U?$_Tree_node@U?$pair@$$CBIPAH@std@@PAX@std@@@std@@QAEXPAU?$_Tree_node@U?$pair@$$CBIPAH@std@@PAX@2@I@Z 005f6330 f i MAP.obj
 0002:0007a390       ?deallocate@?$allocator@U?$_Tree_node@U?$pair@$$CBIPAU_OBJECT_EVENT@@@std@@PAX@std@@@std@@QAEXPAU?$_Tree_node@U?$pair@$$CBIPAU_OBJECT_EVENT@@@std@@PAX@2@I@Z 005f6390 f i MAP.obj
 0002:0007a3f0       ?deallocate@?$allocator@U?$_Tree_node@U?$pair@$$CBIPAVCRoomEvent@@@std@@PAX@std@@@std@@QAEXPAU?$_Tree_node@U?$pair@$$CBIPAVCRoomEvent@@@std@@PAX@2@I@Z 005f63f0 f i MAP.obj
 0002:0007a450       ?default_error_condition@error_category@std@@UBE?AVerror_condition@2@H@Z 005f6450 f i MAP.obj
 0002:0007a4b0       ?do_always_noconv@?$codecvt@DDU_Mbstatet@@@std@@MBE_NXZ 005f64b0 f i MAP.obj
 0002:0007a4f0       ?do_always_noconv@codecvt_base@std@@MBE_NXZ 005f64f0 f i MAP.obj
 0002:0007a530       ?do_encoding@codecvt_base@std@@MBEHXZ 005f6530 f i MAP.obj
 0002:0007a570       ?do_in@?$codecvt@DDU_Mbstatet@@@std@@MBEHAAU_Mbstatet@@PBD1AAPBDPAD3AAPAD@Z 005f6570 f i MAP.obj
 0002:0007a630       ?do_length@?$codecvt@DDU_Mbstatet@@@std@@MBEHAAU_Mbstatet@@PBD1I@Z 005f6630 f i MAP.obj
 0002:0007a6a0       ?do_max_length@codecvt_base@std@@MBEHXZ 005f66a0 f i MAP.obj
 0002:0007a6e0       ?do_narrow@?$ctype@D@std@@MBEDDD@Z 005f66e0 f i MAP.obj
 0002:0007a720       ?do_narrow@?$ctype@D@std@@MBEPBDPBD0DPAD@Z 005f6720 f i MAP.obj
 0002:0007a7b0       ?do_out@?$codecvt@DDU_Mbstatet@@@std@@MBEHAAU_Mbstatet@@PBD1AAPBDPAD3AAPAD@Z 005f67b0 f i MAP.obj
 0002:0007a870       ?do_tolower@?$ctype@D@std@@MBEDD@Z 005f6870 f i MAP.obj
 0002:0007a8d0       ?do_tolower@?$ctype@D@std@@MBEPBDPADPBD@Z 005f68d0 f i MAP.obj
 0002:0007a980       ?do_toupper@?$ctype@D@std@@MBEDD@Z 005f6980 f i MAP.obj
 0002:0007a9e0       ?do_toupper@?$ctype@D@std@@MBEPBDPADPBD@Z 005f69e0 f i MAP.obj
 0002:0007aa90       ?do_unshift@?$codecvt@DDU_Mbstatet@@@std@@MBEHAAU_Mbstatet@@PAD1AAPAD@Z 005f6a90 f i MAP.obj
 0002:0007aae0       ?do_widen@?$ctype@D@std@@MBEDD@Z 005f6ae0 f i MAP.obj
 0002:0007ab20       ?do_widen@?$ctype@D@std@@MBEPBDPBD0PAD@Z 005f6b20 f i MAP.obj
 0002:0007abb0       ?eback@?$basic_streambuf@DU?$char_traits@D@std@@@std@@IBEPADXZ 005f6bb0 f i MAP.obj
 0002:0007abf0       ?egptr@?$basic_streambuf@DU?$char_traits@D@std@@@std@@IBEPADXZ 005f6bf0 f i MAP.obj
 0002:0007ac40       ?empty@?$_Tree@V?$_Tmap_traits@IPAHU?$less@I@std@@V?$allocator@U?$pair@$$CBIPAH@std@@@2@$0A@@std@@@std@@QBE_NXZ 005f6c40 f i MAP.obj
 0002:0007acc0       ?empty@?$_Tree@V?$_Tmap_traits@IPAVCRoomEvent@@U?$less@I@std@@V?$allocator@U?$pair@$$CBIPAVCRoomEvent@@@std@@@3@$0A@@std@@@std@@QBE_NXZ 005f6cc0 f i MAP.obj
 0002:0007ad40       ?end@?$_Tree@V?$_Tmap_traits@IPAHU?$less@I@std@@V?$allocator@U?$pair@$$CBIPAH@std@@@2@$0A@@std@@@std@@QAE?AV?$_Tree_iterator@V?$_Tree_val@U?$_Tree_simple_types@U?$pair@$$CBIPAH@std@@@std@@@std@@@2@XZ 005f6d40 f i MAP.obj
 0002:0007adf0       ?end@?$_Tree@V?$_Tmap_traits@IPAU_OBJECT_EVENT@@U?$less@I@std@@V?$allocator@U?$pair@$$CBIPAU_OBJECT_EVENT@@@std@@@3@$0A@@std@@@std@@QAE?AV?$_Tree_iterator@V?$_Tree_val@U?$_Tree_simple_types@U?$pair@$$CBIPAU_OBJECT_EVENT@@@std@@@std@@@std@@@2@XZ 005f6df0 f i MAP.obj
 0002:0007aea0       ?end@?$_Tree@V?$_Tmap_traits@IPAVCRoomEvent@@U?$less@I@std@@V?$allocator@U?$pair@$$CBIPAVCRoomEvent@@@std@@@3@$0A@@std@@@std@@QAE?AV?$_Tree_iterator@V?$_Tree_val@U?$_Tree_simple_types@U?$pair@$$CBIPAVCRoomEvent@@@std@@@std@@@std@@@2@XZ 005f6ea0 f i MAP.obj
 0002:0007af50       ?eof@?$char_traits@D@std@@SAHXZ 005f6f50 f i MAP.obj
 0002:0007af90       ?epptr@?$basic_streambuf@DU?$char_traits@D@std@@@std@@IBEPADXZ 005f6f90 f i MAP.obj
 0002:0007afe0       ?eq_int_type@?$char_traits@D@std@@SA_NABH0@Z 005f6fe0 f i MAP.obj
 0002:0007b040       ?equivalent@error_category@std@@UBE_NABVerror_code@2@H@Z 005f7040 f i MAP.obj
 0002:0007b0e0       ?equivalent@error_category@std@@UBE_NHABVerror_condition@2@@Z 005f70e0 f i MAP.obj
 0002:0007b160       ?erase@?$_Tree@V?$_Tmap_traits@IPAHU?$less@I@std@@V?$allocator@U?$pair@$$CBIPAH@std@@@2@$0A@@std@@@std@@QAE?AV?$_Tree_iterator@V?$_Tree_val@U?$_Tree_simple_types@U?$pair@$$CBIPAH@std@@@std@@@std@@@2@V?$_Tree_const_iterator@V?$_Tree_val@U?$_Tree_simple_types@U?$pair@$$CBIPAH@std@@@std@@@std@@@2@0@Z 005f7160 f i MAP.obj
 0002:0007b480       ?erase@?$_Tree@V?$_Tmap_traits@IPAHU?$less@I@std@@V?$allocator@U?$pair@$$CBIPAH@std@@@2@$0A@@std@@@std@@QAE?AV?$_Tree_iterator@V?$_Tree_val@U?$_Tree_simple_types@U?$pair@$$CBIPAH@std@@@std@@@std@@@2@V?$_Tree_const_iterator@V?$_Tree_val@U?$_Tree_simple_types@U?$pair@$$CBIPAH@std@@@std@@@std@@@2@@Z 005f7480 f i MAP.obj
 0002:0007bf10       ?erase@?$_Tree@V?$_Tmap_traits@IPAVCRoomEvent@@U?$less@I@std@@V?$allocator@U?$pair@$$CBIPAVCRoomEvent@@@std@@@3@$0A@@std@@@std@@QAE?AV?$_Tree_iterator@V?$_Tree_val@U?$_Tree_simple_types@U?$pair@$$CBIPAVCRoomEvent@@@std@@@std@@@std@@@2@V?$_Tree_const_iterator@V?$_Tree_val@U?$_Tree_simple_types@U?$pair@$$CBIPAVCRoomEvent@@@std@@@std@@@std@@@2@0@Z 005f7f10 f i MAP.obj
 0002:0007c230       ?erase@?$_Tree@V?$_Tmap_traits@IPAVCRoomEvent@@U?$less@I@std@@V?$allocator@U?$pair@$$CBIPAVCRoomEvent@@@std@@@3@$0A@@std@@@std@@QAE?AV?$_Tree_iterator@V?$_Tree_val@U?$_Tree_simple_types@U?$pair@$$CBIPAVCRoomEvent@@@std@@@std@@@std@@@2@V?$_Tree_const_iterator@V?$_Tree_val@U?$_Tree_simple_types@U?$pair@$$CBIPAVCRoomEvent@@@std@@@std@@@std@@@2@@Z 005f8230 f i MAP.obj
 0002:0007ccc0       ?erase@?$basic_string@DU?$char_traits@D@std@@V?$allocator@D@2@@std@@QAEAAV12@I@Z 005f8cc0 f i MAP.obj
 0002:0007cd30       ?erase@?$basic_string@DU?$char_traits@D@std@@V?$allocator@D@2@@std@@QAEAAV12@II@Z 005f8d30 f i MAP.obj
 0002:0007ce10       ?fail@ios_base@std@@QBE_NXZ 005f8e10 f i MAP.obj
 0002:0007ce90       ?find@?$_Tree@V?$_Tmap_traits@IPAHU?$less@I@std@@V?$allocator@U?$pair@$$CBIPAH@std@@@2@$0A@@std@@@std@@QAE?AV?$_Tree_iterator@V?$_Tree_val@U?$_Tree_simple_types@U?$pair@$$CBIPAH@std@@@std@@@std@@@2@ABI@Z 005f8e90 f i MAP.obj
 0002:0007d1a0       ?find@?$_Tree@V?$_Tmap_traits@IPAVCRoomEvent@@U?$less@I@std@@V?$allocator@U?$pair@$$CBIPAVCRoomEvent@@@std@@@3@$0A@@std@@@std@@QAE?AV?$_Tree_iterator@V?$_Tree_val@U?$_Tree_simple_types@U?$pair@$$CBIPAVCRoomEvent@@@std@@@std@@@std@@@2@ABI@Z 005f91a0 f i MAP.obj
 0002:0007d4b0       ?flags@ios_base@std@@QBEHXZ 005f94b0 f i MAP.obj
 0002:0007d4f0       ?flush@?$basic_ostream@DU?$char_traits@D@std@@@std@@QAEAAV12@XZ 005f94f0 f i MAP.obj
 0002:0007d640       ?gbump@?$basic_streambuf@DU?$char_traits@D@std@@@std@@IAEXH@Z 005f9640 f i MAP.obj
 0002:0007d6b0       ?getloc@?$basic_streambuf@DU?$char_traits@D@std@@@std@@QBE?AVlocale@2@XZ 005f96b0 f i MAP.obj
 0002:0007d730       ?getloc@ios_base@std@@QBE?AVlocale@2@XZ 005f9730 f i MAP.obj
 0002:0007d7b0       ?good@ios_base@std@@QBE_NXZ 005f97b0 f i MAP.obj
 0002:0007d830       ?gptr@?$basic_streambuf@DU?$char_traits@D@std@@@std@@IBEPADXZ 005f9830 f i MAP.obj
 0002:0007d870       ?imbue@?$basic_filebuf@DU?$char_traits@D@std@@@std@@MAEXABVlocale@2@@Z 005f9870 f i MAP.obj
 0002:0007d8e0       ?imbue@?$basic_streambuf@DU?$char_traits@D@std@@@std@@MAEXABVlocale@2@@Z 005f98e0 f i MAP.obj
 0002:0007d920       ?in@?$codecvt@DDU_Mbstatet@@@std@@QBEHAAU_Mbstatet@@PBD1AAPBDPAD3AAPAD@Z 005f9920 f i MAP.obj
 0002:0007d9b0       ?init@?$basic_ios@DU?$char_traits@D@std@@@std@@IAEXPAV?$basic_streambuf@DU?$char_traits@D@std@@@2@_N@Z 005f99b0 f i MAP.obj
 0002:0007da60       ?iostream_category@std@@YAABVerror_category@1@XZ 005f9a60 f i MAP.obj
 0002:0007dae0       ?is@?$ctype@D@std@@QBE_NFD@Z 005f9ae0 f i MAP.obj
 0002:0007db60       ?isCleared@CRoomEvent@@QAE_NXZ 005f9b60 f i MAP.obj
 0002:0007dbe0       ?isInitialised@CRoomEvent@@QAE_NXZ 005f9be0 f i MAP.obj
 0002:0007dc60       ?length@?$char_traits@D@std@@SAIPBD@Z 005f9c60 f i MAP.obj
 0002:0007dce0       ?lower_bound@?$_Tree@V?$_Tmap_traits@IPAHU?$less@I@std@@V?$allocator@U?$pair@$$CBIPAH@std@@@2@$0A@@std@@@std@@QAE?AV?$_Tree_iterator@V?$_Tree_val@U?$_Tree_simple_types@U?$pair@$$CBIPAH@std@@@std@@@std@@@2@ABI@Z 005f9ce0 f i MAP.obj
 0002:0007dd70       ?lower_bound@?$_Tree@V?$_Tmap_traits@IPAVCRoomEvent@@U?$less@I@std@@V?$allocator@U?$pair@$$CBIPAVCRoomEvent@@@std@@@3@$0A@@std@@@std@@QAE?AV?$_Tree_iterator@V?$_Tree_val@U?$_Tree_simple_types@U?$pair@$$CBIPAVCRoomEvent@@@std@@@std@@@std@@@2@ABI@Z 005f9d70 f i MAP.obj
 0002:0007de00       ?make_error_code@std@@YA?AVerror_code@1@W4io_errc@1@@Z 005f9e00 f i MAP.obj
 0002:0007de60       ?max_size@?$_Tree@V?$_Tmap_traits@IPAHU?$less@I@std@@V?$allocator@U?$pair@$$CBIPAH@std@@@2@$0A@@std@@@std@@QBEIXZ 005f9e60 f i MAP.obj
 0002:0007ded0       ?max_size@?$_Tree@V?$_Tmap_traits@IPAU_OBJECT_EVENT@@U?$less@I@std@@V?$allocator@U?$pair@$$CBIPAU_OBJECT_EVENT@@@std@@@3@$0A@@std@@@std@@QBEIXZ 005f9ed0 f i MAP.obj
 0002:0007df40       ?max_size@?$_Tree@V?$_Tmap_traits@IPAVCRoomEvent@@U?$less@I@std@@V?$allocator@U?$pair@$$CBIPAVCRoomEvent@@@std@@@3@$0A@@std@@@std@@QBEIXZ 005f9f40 f i MAP.obj
 0002:0007dfb0       ?max_size@?$_Wrap_alloc@V?$allocator@U?$_Tree_node@U?$pair@$$CBIPAH@std@@PAX@std@@@std@@@std@@QBEIU_Nil@2@@Z 005f9fb0 f i MAP.obj
 0002:0007e010       ?max_size@?$_Wrap_alloc@V?$allocator@U?$_Tree_node@U?$pair@$$CBIPAU_OBJECT_EVENT@@@std@@PAX@std@@@std@@@std@@QBEIU_Nil@2@@Z 005fa010 f i MAP.obj
 0002:0007e070       ?max_size@?$_Wrap_alloc@V?$allocator@U?$_Tree_node@U?$pair@$$CBIPAVCRoomEvent@@@std@@PAX@std@@@std@@@std@@QBEIU_Nil@2@@Z 005fa070 f i MAP.obj
 0002:0007e0d0       ?max_size@?$allocator@U?$_Tree_node@U?$pair@$$CBIPAH@std@@PAX@std@@@std@@QBEIXZ 005fa0d0 f i MAP.obj
 0002:0007e110       ?max_size@?$allocator@U?$_Tree_node@U?$pair@$$CBIPAU_OBJECT_EVENT@@@std@@PAX@std@@@std@@QBEIXZ 005fa110 f i MAP.obj
 0002:0007e150       ?max_size@?$allocator@U?$_Tree_node@U?$pair@$$CBIPAVCRoomEvent@@@std@@PAX@std@@@std@@QBEIXZ 005fa150 f i MAP.obj
 0002:0007e190       ?max_size@?$allocator_traits@V?$allocator@U?$_Tree_node@U?$pair@$$CBIPAH@std@@PAX@std@@@std@@@std@@SAIABV?$allocator@U?$_Tree_node@U?$pair@$$CBIPAH@std@@PAX@std@@@2@@Z 005fa190 f i MAP.obj
 0002:0007e1e0       ?max_size@?$allocator_traits@V?$allocator@U?$_Tree_node@U?$pair@$$CBIPAU_OBJECT_EVENT@@@std@@PAX@std@@@std@@@std@@SAIABV?$allocator@U?$_Tree_node@U?$pair@$$CBIPAU_OBJECT_EVENT@@@std@@PAX@std@@@2@@Z 005fa1e0 f i MAP.obj
 0002:0007e230       ?max_size@?$allocator_traits@V?$allocator@U?$_Tree_node@U?$pair@$$CBIPAVCRoomEvent@@@std@@PAX@std@@@std@@@std@@SAIABV?$allocator@U?$_Tree_node@U?$pair@$$CBIPAVCRoomEvent@@@std@@PAX@std@@@2@@Z 005fa230 f i MAP.obj
 0002:0007e280       ?message@_Generic_error_category@std@@UBE?AV?$basic_string@DU?$char_traits@D@std@@V?$allocator@D@2@@2@H@Z 005fa280 f i MAP.obj
 0002:0007e310       ?message@_Iostream_error_category@std@@UBE?AV?$basic_string@DU?$char_traits@D@std@@V?$allocator@D@2@@2@H@Z 005fa310 f i MAP.obj
 0002:0007e3d0       ?message@error_code@std@@QBE?AV?$basic_string@DU?$char_traits@D@std@@V?$allocator@D@2@@2@XZ 005fa3d0 f i MAP.obj
 0002:0007e480       ?move@?$char_traits@D@std@@SAPADPADPBDI@Z 005fa480 f i MAP.obj
 0002:0007e500       ?name@_Generic_error_category@std@@UBEPBDXZ 005fa500 f i MAP.obj
 0002:0007e540       ?name@_Iostream_error_category@std@@UBEPBDXZ 005fa540 f i MAP.obj
 0002:0007e580       ?not_eof@?$char_traits@D@std@@SAHABH@Z 005fa580 f i MAP.obj
 0002:0007e620       ?open@?$basic_filebuf@DU?$char_traits@D@std@@@std@@QAEPAV12@PBDHH@Z 005fa620 f i MAP.obj
 0002:0007e750       ?out@?$codecvt@DDU_Mbstatet@@@std@@QBEHAAU_Mbstatet@@PBD1AAPBDPAD3AAPAD@Z 005fa750 f i MAP.obj
 0002:0007e7e0       ?overflow@?$basic_filebuf@DU?$char_traits@D@std@@@std@@MAEHH@Z 005fa7e0 f i MAP.obj
 0002:0007ee20       ?overflow@?$basic_streambuf@DU?$char_traits@D@std@@@std@@MAEHH@Z 005fae20 f i MAP.obj
 0002:0007ee70       ?pbackfail@?$basic_filebuf@DU?$char_traits@D@std@@@std@@MAEHH@Z 005fae70 f i MAP.obj
 0002:0007f060       ?pbackfail@?$basic_streambuf@DU?$char_traits@D@std@@@std@@MAEHH@Z 005fb060 f i MAP.obj
 0002:0007f0b0       ?pbump@?$basic_streambuf@DU?$char_traits@D@std@@@std@@IAEXH@Z 005fb0b0 f i MAP.obj
 0002:0007f120       ?pointer_to@?$pointer_traits@PAU?$pair@$$CBIPAH@std@@@std@@SAPAU?$pair@$$CBIPAH@2@AAU32@@Z 005fb120 f i MAP.obj
 0002:0007f170       ?pointer_to@?$pointer_traits@PAU?$pair@$$CBIPAU_OBJECT_EVENT@@@std@@@std@@SAPAU?$pair@$$CBIPAU_OBJECT_EVENT@@@2@AAU32@@Z 005fb170 f i MAP.obj
 0002:0007f1c0       ?pointer_to@?$pointer_traits@PAU?$pair@$$CBIPAVCRoomEvent@@@std@@@std@@SAPAU?$pair@$$CBIPAVCRoomEvent@@@2@AAU32@@Z 005fb1c0 f i MAP.obj
 0002:0007f210       ?pptr@?$basic_streambuf@DU?$char_traits@D@std@@@std@@IBEPADXZ 005fb210 f i MAP.obj
 0002:0007f250       ?pubseekoff@?$basic_streambuf@DU?$char_traits@D@std@@@std@@QAE?AV?$fpos@U_Mbstatet@@@2@_JHH@Z 005fb250 f i MAP.obj
 0002:0007f2d0       ?pubsync@?$basic_streambuf@DU?$char_traits@D@std@@@std@@QAEHXZ 005fb2d0 f i MAP.obj
 0002:0007f330       ?rdbuf@?$basic_ios@DU?$char_traits@D@std@@@std@@QBEPAV?$basic_streambuf@DU?$char_traits@D@std@@@2@XZ 005fb330 f i MAP.obj
 0002:0007f370       ?rdstate@ios_base@std@@QBEHXZ 005fb370 f i MAP.obj
 0002:0007f3b0       ?read@?$basic_istream@DU?$char_traits@D@std@@@std@@QAEAAV12@PAD_J@Z 005fb3b0 f i MAP.obj
 0002:0007f610       ?sbumpc@?$basic_streambuf@DU?$char_traits@D@std@@@std@@QAEHXZ 005fb610 f i MAP.obj
 0002:0007f6d0       ?seekg@?$basic_istream@DU?$char_traits@D@std@@@std@@QAEAAV12@_JH@Z 005fb6d0 f i MAP.obj
 0002:0007f8c0       ?seekoff@?$basic_filebuf@DU?$char_traits@D@std@@@std@@MAE?AV?$fpos@U_Mbstatet@@@2@_JHH@Z 005fb8c0 f i MAP.obj
 0002:0007fa50       ?seekoff@?$basic_streambuf@DU?$char_traits@D@std@@@std@@MAE?AV?$fpos@U_Mbstatet@@@2@_JHH@Z 005fba50 f i MAP.obj
 0002:0007fac0       ?seekpos@?$basic_filebuf@DU?$char_traits@D@std@@@std@@MAE?AV?$fpos@U_Mbstatet@@@2@V32@H@Z 005fbac0 f i MAP.obj
 0002:0007fc70       ?seekpos@?$basic_streambuf@DU?$char_traits@D@std@@@std@@MAE?AV?$fpos@U_Mbstatet@@@2@V32@H@Z 005fbc70 f i MAP.obj
 0002:0007fce0       ?seekpos@?$fpos@U_Mbstatet@@@std@@QBE_JXZ 005fbce0 f i MAP.obj
 0002:0007fd20       ?select_on_container_copy_construction@?$_Wrap_alloc@V?$allocator@D@std@@@std@@QBE?AU12@U_Nil@2@@Z 005fbd20 f i MAP.obj
 0002:0007fd90       ?select_on_container_copy_construction@?$allocator_traits@V?$allocator@D@std@@@std@@SA?AV?$allocator@D@2@ABV32@@Z 005fbd90 f i MAP.obj
 0002:0007fdf0       ?setbuf@?$basic_filebuf@DU?$char_traits@D@std@@@std@@MAEPAV?$basic_streambuf@DU?$char_traits@D@std@@@2@PAD_J@Z 005fbdf0 f i MAP.obj
 0002:0007fec0       ?setbuf@?$basic_streambuf@DU?$char_traits@D@std@@@std@@MAEPAV12@PAD_J@Z 005fbec0 f i MAP.obj
 0002:0007ff00       ?setg@?$basic_streambuf@DU?$char_traits@D@std@@@std@@IAEXPAD00@Z 005fbf00 f i MAP.obj
 0002:0007ff70       ?setp@?$basic_streambuf@DU?$char_traits@D@std@@@std@@IAEXPAD0@Z 005fbf70 f i MAP.obj
 0002:0007ffe0       ?setstate@?$basic_ios@DU?$char_traits@D@std@@@std@@QAEXH_N@Z 005fbfe0 f i MAP.obj
 0002:00080050       ?sgetc@?$basic_streambuf@DU?$char_traits@D@std@@@std@@QAEHXZ 005fc050 f i MAP.obj
 0002:00080110       ?sgetn@?$basic_streambuf@DU?$char_traits@D@std@@@std@@QAE_JPAD_J@Z 005fc110 f i MAP.obj
 0002:00080190       ?showmanyc@?$basic_streambuf@DU?$char_traits@D@std@@@std@@MAE_JXZ 005fc190 f i MAP.obj
 0002:000801d0       ?size@?$_Tree@V?$_Tmap_traits@IPAHU?$less@I@std@@V?$allocator@U?$pair@$$CBIPAH@std@@@2@$0A@@std@@@std@@QBEIXZ 005fc1d0 f i MAP.obj
 0002:00080230       ?size@?$_Tree@V?$_Tmap_traits@IPAU_OBJECT_EVENT@@U?$less@I@std@@V?$allocator@U?$pair@$$CBIPAU_OBJECT_EVENT@@@std@@@3@$0A@@std@@@std@@QBEIXZ 005fc230 f i MAP.obj
 0002:00080290       ?size@?$_Tree@V?$_Tmap_traits@IPAVCRoomEvent@@U?$less@I@std@@V?$allocator@U?$pair@$$CBIPAVCRoomEvent@@@std@@@3@$0A@@std@@@std@@QBEIXZ 005fc290 f i MAP.obj
 0002:000802f0       ?size@?$basic_string@DU?$char_traits@D@std@@V?$allocator@D@2@@std@@QBEIXZ 005fc2f0 f i MAP.obj
 0002:00080350       ?snextc@?$basic_streambuf@DU?$char_traits@D@std@@@std@@QAEHXZ 005fc350 f i MAP.obj
 0002:00080470       ?state@?$fpos@U_Mbstatet@@@std@@QBE?AU_Mbstatet@@XZ 005fc470 f i MAP.obj
 0002:000804c0       ?sync@?$basic_filebuf@DU?$char_traits@D@std@@@std@@MAEHXZ 005fc4c0 f i MAP.obj
 0002:000805b0       ?sync@?$basic_streambuf@DU?$char_traits@D@std@@@std@@MAEHXZ 005fc5b0 f i MAP.obj
 0002:000805f0       ?tellg@?$basic_istream@DU?$char_traits@D@std@@@std@@QAE?AV?$fpos@U_Mbstatet@@@2@XZ 005fc5f0 f i MAP.obj
 0002:00080770       ?tie@?$basic_ios@DU?$char_traits@D@std@@@std@@QBEPAV?$basic_ostream@DU?$char_traits@D@std@@@2@XZ 005fc770 f i MAP.obj
 0002:000807b0       ?to_char_type@?$char_traits@D@std@@SADABH@Z 005fc7b0 f i MAP.obj
 0002:000807f0       ?to_int_type@?$char_traits@D@std@@SAHABD@Z 005fc7f0 f i MAP.obj
 0002:00080830       ?uflow@?$basic_filebuf@DU?$char_traits@D@std@@@std@@MAEHXZ 005fc830 f i MAP.obj
 0002:00080e00       ?uflow@?$basic_streambuf@DU?$char_traits@D@std@@@std@@MAEHXZ 005fce00 f i MAP.obj
 0002:00080ed0       ?underflow@?$basic_filebuf@DU?$char_traits@D@std@@@std@@MAEHXZ 005fced0 f i MAP.obj
 0002:00081010       ?underflow@?$basic_streambuf@DU?$char_traits@D@std@@@std@@MAEHXZ 005fd010 f i MAP.obj
 0002:00081060       ?unshift@?$codecvt@DDU_Mbstatet@@@std@@QBEHAAU_Mbstatet@@PAD1AAPAD@Z 005fd060 f i MAP.obj
 0002:000810e0       ?value@error_code@std@@QBEHXZ 005fd0e0 f i MAP.obj
 0002:00081120       ?value@error_condition@std@@QBEHXZ 005fd120 f i MAP.obj
 0002:00081160       ?what@exception@std@@UBEPBDXZ 005fd160 f i MAP.obj
 0002:000811d0       ?widen@?$basic_ios@DU?$char_traits@D@std@@@std@@QBEDD@Z 005fd1d0 f i MAP.obj
 0002:000812c0       ?widen@?$ctype@D@std@@QBEDD@Z 005fd2c0 f i MAP.obj
 0002:00081330       ?xsgetn@?$basic_streambuf@DU?$char_traits@D@std@@@std@@MAE_JPAD_J@Z 005fd330 f i MAP.obj
 0002:00081540       ?xsputn@?$basic_streambuf@DU?$char_traits@D@std@@@std@@MAE_JPBD_J@Z 005fd540 f i MAP.obj
 0002:000818c0       ??$?0$$QAG$$Z$$V@?$pair@$$CBGI@std@@QAE@Upiecewise_construct_t@1@V?$tuple@$$QAG@1@V?$tuple@$$V@1@@Z 005fd8c0 f i Npc.obj
 0002:00081940       ??$?0$$V@?$_Compressed_pair@U?$_Wrap_alloc@V?$allocator@U?$_Tree_node@U?$pair@$$CBGI@std@@PAX@std@@@std@@@std@@V?$_Tree_val@U?$_Tree_simple_types@U?$pair@$$CBGI@std@@@std@@@2@$00@std@@QAE@U_Zero_then_variadic_args_t@1@@Z 005fd940 f i Npc.obj
 0002:000819a0       ??$?0$$V@?$_Compressed_pair@U?$_Wrap_alloc@V?$allocator@U?$_Tree_node@U?$pair@$$CBGPAVCUser@@@std@@PAX@std@@@std@@@std@@V?$_Tree_val@U?$_Tree_simple_types@U?$pair@$$CBGPAVCUser@@@std@@@std@@@2@$00@std@@QAE@U_Zero_then_variadic_args_t@1@@Z 005fd9a0 f i Npc.obj
 0002:00081a00       ??$?0$$V@?$_Compressed_pair@U?$_Wrap_alloc@V?$allocator@U?$_Tree_node@U?$pair@QAVCUser@@I@std@@PAX@std@@@std@@@std@@V?$_Tree_val@U?$_Tree_simple_types@U?$pair@QAVCUser@@I@std@@@std@@@2@$00@std@@QAE@U_Zero_then_variadic_args_t@1@@Z 005fda00 f i Npc.obj
 0002:00081a60       ??$?0AAU?$_Wrap_alloc@V?$allocator@U?$_Tree_node@U?$pair@$$CBGI@std@@PAX@std@@@std@@@std@@@?$_Wrap_alloc@V?$allocator@U_Container_proxy@std@@@std@@@std@@QAE@AAU?$_Wrap_alloc@V?$allocator@U?$_Tree_node@U?$pair@$$CBGI@std@@PAX@std@@@std@@@1@@Z 005fda60 f i Npc.obj
 0002:00081ad0       ??$?0AAU?$_Wrap_alloc@V?$allocator@U?$_Tree_node@U?$pair@$$CBGPAVCUser@@@std@@PAX@std@@@std@@@std@@@?$_Wrap_alloc@V?$allocator@U_Container_proxy@std@@@std@@@std@@QAE@AAU?$_Wrap_alloc@V?$allocator@U?$_Tree_node@U?$pair@$$CBGPAVCUser@@@std@@PAX@std@@@std@@@1@@Z 005fdad0 f i Npc.obj
 0002:00081b40       ??$?0AAU?$_Wrap_alloc@V?$allocator@U?$_Tree_node@U?$pair@QAVCUser@@I@std@@PAX@std@@@std@@@std@@@?$_Wrap_alloc@V?$allocator@U_Container_proxy@std@@@std@@@std@@QAE@AAU?$_Wrap_alloc@V?$allocator@U?$_Tree_node@U?$pair@QAVCUser@@I@std@@PAX@std@@@std@@@1@@Z 005fdb40 f i Npc.obj
 0002:00081bb0       ??$?0AAV?$_Tree_iterator@V?$_Tree_val@U?$_Tree_simple_types@U?$pair@$$CBGI@std@@@std@@@std@@@std@@_NX$0A@@?$pair@V?$_Tree_iterator@V?$_Tree_val@U?$_Tree_simple_types@U?$pair@$$CBGI@std@@@std@@@std@@@std@@_N@std@@QAE@AAV?$_Tree_iterator@V?$_Tree_val@U?$_Tree_simple_types@U?$pair@$$CBGI@std@@@std@@@std@@@1@$$QA_N@Z 005fdbb0 f i Npc.obj
 0002:00081c30       ??$?0AAV?$_Tree_iterator@V?$_Tree_val@U?$_Tree_simple_types@U?$pair@$$CBGPAVCUser@@@std@@@std@@@std@@@std@@_NX$0A@@?$pair@V?$_Tree_iterator@V?$_Tree_val@U?$_Tree_simple_types@U?$pair@$$CBGPAVCUser@@@std@@@std@@@std@@@std@@_N@std@@QAE@AAV?$_Tree_iterator@V?$_Tree_val@U?$_Tree_simple_types@U?$pair@$$CBGPAVCUser@@@std@@@std@@@std@@@1@$$QA_N@Z 005fdc30 f i Npc.obj
 0002:00081cb0       ??$?0AAV?$_Tree_iterator@V?$_Tree_val@U?$_Tree_simple_types@U?$pair@QAVCUser@@I@std@@@std@@@std@@@std@@_NX$0A@@?$pair@V?$_Tree_iterator@V?$_Tree_val@U?$_Tree_simple_types@U?$pair@QAVCUser@@I@std@@@std@@@std@@@std@@_N@std@@QAE@AAV?$_Tree_iterator@V?$_Tree_val@U?$_Tree_simple_types@U?$pair@QAVCUser@@I@std@@@std@@@std@@@1@$$QA_N@Z 005fdcb0 f i Npc.obj
 0002:00081d30       ??$?0ABQAVCUser@@$$Z$$V@?$pair@QAVCUser@@I@std@@QAE@Upiecewise_construct_t@1@V?$tuple@ABQAVCUser@@@1@V?$tuple@$$V@1@@Z 005fdd30 f i Npc.obj
 0002:00081db0       ??$?0ABQAVCUser@@$0A@@?$tuple@ABQAVCUser@@@std@@QAE@ABQAVCUser@@@Z 005fddb0 f i Npc.obj
 0002:00081e30       ??$?0ABQAVCUser@@@?$_Tuple_val@ABQAVCUser@@@std@@QAE@ABQAVCUser@@@Z 005fde30 f i Npc.obj
 0002:00081e90       ??$?0ABU?$less@G@std@@U_Zero_then_variadic_args_t@1@@?$_Compressed_pair@U?$less@G@std@@V?$_Compressed_pair@U?$_Wrap_alloc@V?$allocator@U?$_Tree_node@U?$pair@$$CBGI@std@@PAX@std@@@std@@@std@@V?$_Tree_val@U?$_Tree_simple_types@U?$pair@$$CBGI@std@@@std@@@2@$00@2@$00@std@@QAE@U_One_then_variadic_args_t@1@ABU?$less@G@1@$$QAU_Zero_then_variadic_args_t@1@@Z 005fde90 f i Npc.obj
 0002:00081f10       ??$?0ABU?$less@G@std@@U_Zero_then_variadic_args_t@1@@?$_Compressed_pair@U?$less@G@std@@V?$_Compressed_pair@U?$_Wrap_alloc@V?$allocator@U?$_Tree_node@U?$pair@$$CBGPAVCUser@@@std@@PAX@std@@@std@@@std@@V?$_Tree_val@U?$_Tree_simple_types@U?$pair@$$CBGPAVCUser@@@std@@@std@@@2@$00@2@$00@std@@QAE@U_One_then_variadic_args_t@1@ABU?$less@G@1@$$QAU_Zero_then_variadic_args_t@1@@Z 005fdf10 f i Npc.obj
 0002:00081f90       ??$?0ABU?$less@PAVCUser@@@std@@U_Zero_then_variadic_args_t@1@@?$_Compressed_pair@U?$less@PAVCUser@@@std@@V?$_Compressed_pair@U?$_Wrap_alloc@V?$allocator@U?$_Tree_node@U?$pair@QAVCUser@@I@std@@PAX@std@@@std@@@std@@V?$_Tree_val@U?$_Tree_simple_types@U?$pair@QAVCUser@@I@std@@@std@@@2@$00@2@$00@std@@QAE@U_One_then_variadic_args_t@1@ABU?$less@PAVCUser@@@1@$$QAU_Zero_then_variadic_args_t@1@@Z 005fdf90 f i Npc.obj
 0002:00082010       ??$?0G$$V$0A@@?$tuple@$$QAG@std@@QAE@$$QAG@Z 005fe010 f i Npc.obj
 0002:000820a0       ??$?0G@?$_Tuple_val@$$QAG@std@@QAE@$$QAG@Z 005fe0a0 f i Npc.obj
 0002:00082100       ??$?0GAAPAVCUser@@X$0A@@?$pair@GPAVCUser@@@std@@QAE@$$QAGAAPAVCUser@@@Z 005fe100 f i Npc.obj
 0002:00082180       ??$?0GPAVCUser@@X$0A@@?$pair@$$CBGPAVCUser@@@std@@QAE@$$QAU?$pair@GPAVCUser@@@1@@Z 005fe180 f i Npc.obj
 0002:00082210       ??$?0U?$_Tree_node@U?$pair@$$CBGI@std@@PAX@std@@@?$allocator@U_Container_proxy@std@@@std@@QAE@ABV?$allocator@U?$_Tree_node@U?$pair@$$CBGI@std@@PAX@std@@@1@@Z 005fe210 f i Npc.obj
 0002:00082250       ??$?0U?$_Tree_node@U?$pair@$$CBGPAVCUser@@@std@@PAX@std@@@?$allocator@U_Container_proxy@std@@@std@@QAE@ABV?$allocator@U?$_Tree_node@U?$pair@$$CBGPAVCUser@@@std@@PAX@std@@@1@@Z 005fe250 f i Npc.obj
 0002:00082290       ??$?0U?$_Tree_node@U?$pair@QAVCUser@@I@std@@PAX@std@@@?$allocator@U_Container_proxy@std@@@std@@QAE@ABV?$allocator@U?$_Tree_node@U?$pair@QAVCUser@@I@std@@PAX@std@@@1@@Z 005fe290 f i Npc.obj
 0002:000822d0       ??$?0V?$_Tree_iterator@V?$_Tree_val@U?$_Tree_simple_types@U?$pair@$$CBGI@std@@@std@@@std@@@std@@_NX$0A@@?$pair@V?$_Tree_iterator@V?$_Tree_val@U?$_Tree_simple_types@U?$pair@$$CBGI@std@@@std@@@std@@@std@@_N@std@@QAE@$$QAV?$_Tree_iterator@V?$_Tree_val@U?$_Tree_simple_types@U?$pair@$$CBGI@std@@@std@@@std@@@1@$$QA_N@Z 005fe2d0 f i Npc.obj
 0002:00082350       ??$?0V?$_Tree_iterator@V?$_Tree_val@U?$_Tree_simple_types@U?$pair@$$CBGPAVCUser@@@std@@@std@@@std@@@std@@_NX$0A@@?$pair@V?$_Tree_iterator@V?$_Tree_val@U?$_Tree_simple_types@U?$pair@$$CBGPAVCUser@@@std@@@std@@@std@@@std@@_N@std@@QAE@$$QAV?$_Tree_iterator@V?$_Tree_val@U?$_Tree_simple_types@U?$pair@$$CBGPAVCUser@@@std@@@std@@@std@@@1@$$QA_N@Z 005fe350 f i Npc.obj
 0002:000823d0       ??$?0V?$_Tree_iterator@V?$_Tree_val@U?$_Tree_simple_types@U?$pair@QAVCUser@@I@std@@@std@@@std@@@std@@_NX$0A@@?$pair@V?$_Tree_iterator@V?$_Tree_val@U?$_Tree_simple_types@U?$pair@QAVCUser@@I@std@@@std@@@std@@@std@@_N@std@@QAE@$$QAV?$_Tree_iterator@V?$_Tree_val@U?$_Tree_simple_types@U?$pair@QAVCUser@@I@std@@@std@@@std@@@1@$$QA_N@Z 005fe3d0 f i Npc.obj
 0002:00082450       ??$?0V?$tuple@$$QAG@std@@V?$tuple@$$V@1@$0A@$$Z$S@?$pair@$$CBGI@std@@QAE@AAV?$tuple@$$QAG@1@AAV?$tuple@$$V@1@U?$integer_sequence@I$0A@@1@U?$integer_sequence@I$S@1@@Z 005fe450 f i Npc.obj
 0002:000824d0       ??$?0V?$tuple@ABQAVCUser@@@std@@V?$tuple@$$V@1@$0A@$$Z$S@?$pair@QAVCUser@@I@std@@QAE@AAV?$tuple@ABQAVCUser@@@1@AAV?$tuple@$$V@1@U?$integer_sequence@I$0A@@1@U?$integer_sequence@I$S@1@@Z 005fe4d0 f i Npc.obj
 0002:00082550       ??$?8DD@std@@YA_NABV?$allocator@D@0@0@Z 005fe550 f i Npc.obj
 0002:00082580       ??$?8V?$allocator@D@std@@V01@@std@@YA_NABU?$_Wrap_alloc@V?$allocator@D@std@@@0@0@Z 005fe580 f i Npc.obj
 0002:000825e0       ??$?9V?$allocator@D@std@@V01@@std@@YA_NABU?$_Wrap_alloc@V?$allocator@D@std@@@0@0@Z 005fe5e0 f i Npc.obj
 0002:00082660       ??$_Addressof@PAU?$_Tree_node@U?$pair@$$CBGI@std@@PAX@std@@@std@@YAPAPAU?$_Tree_node@U?$pair@$$CBGI@std@@PAX@0@AAPAU10@U?$integral_constant@_N$0A@@0@@Z 005fe660 f i Npc.obj
 0002:000826a0       ??$_Addressof@PAU?$_Tree_node@U?$pair@$$CBGPAVCUser@@@std@@PAX@std@@@std@@YAPAPAU?$_Tree_node@U?$pair@$$CBGPAVCUser@@@std@@PAX@0@AAPAU10@U?$integral_constant@_N$0A@@0@@Z 005fe6a0 f i Npc.obj
 0002:000826e0       ??$_Addressof@PAU?$_Tree_node@U?$pair@QAVCUser@@I@std@@PAX@std@@@std@@YAPAPAU?$_Tree_node@U?$pair@QAVCUser@@I@std@@PAX@0@AAPAU10@U?$integral_constant@_N$0A@@0@@Z 005fe6e0 f i Npc.obj
 0002:00082720       ??$_Addressof@U?$pair@$$CBGI@std@@@std@@YAPAU?$pair@$$CBGI@0@AAU10@U?$integral_constant@_N$0A@@0@@Z 005fe720 f i Npc.obj
 0002:00082760       ??$_Addressof@U?$pair@$$CBGPAVCUser@@@std@@@std@@YAPAU?$pair@$$CBGPAVCUser@@@0@AAU10@U?$integral_constant@_N$0A@@0@@Z 005fe760 f i Npc.obj
 0002:000827a0       ??$_Addressof@U?$pair@$$CBIPAU_K_MONSTER_ITEM@@@std@@@std@@YAPAU?$pair@$$CBIPAU_K_MONSTER_ITEM@@@0@AAU10@U?$integral_constant@_N$0A@@0@@Z 005fe7a0 f i Npc.obj
 0002:000827e0       ??$_Addressof@U?$pair@$$CBIPAU_MAKE_ITEM_GRADE_CODE@@@std@@@std@@YAPAU?$pair@$$CBIPAU_MAKE_ITEM_GRADE_CODE@@@0@AAU10@U?$integral_constant@_N$0A@@0@@Z 005fe7e0 f i Npc.obj
 0002:00082820       ??$_Addressof@U?$pair@$$CBIPAU_MAKE_ITEM_GROUP@@@std@@@std@@YAPAU?$pair@$$CBIPAU_MAKE_ITEM_GROUP@@@0@AAU10@U?$integral_constant@_N$0A@@0@@Z 005fe820 f i Npc.obj
 0002:00082860       ??$_Addressof@U?$pair@$$CBIPAU_MAKE_ITEM_LARE_CODE@@@std@@@std@@YAPAU?$pair@$$CBIPAU_MAKE_ITEM_LARE_CODE@@@0@AAU10@U?$integral_constant@_N$0A@@0@@Z 005fe860 f i Npc.obj
 0002:000828a0       ??$_Addressof@U?$pair@$$CBIPAU_MAKE_WEAPON@@@std@@@std@@YAPAU?$pair@$$CBIPAU_MAKE_WEAPON@@@0@AAU10@U?$integral_constant@_N$0A@@0@@Z 005fe8a0 f i Npc.obj
 0002:000828e0       ??$_Addressof@U?$pair@QAVCUser@@I@std@@@std@@YAPAU?$pair@QAVCUser@@I@0@AAU10@U?$integral_constant@_N$0A@@0@@Z 005fe8e0 f i Npc.obj
 0002:00082920       ??$_Buynode@ABUpiecewise_construct_t@std@@V?$tuple@$$QAG@2@V?$tuple@$$V@2@@?$_Tree_comp_alloc@V?$_Tmap_traits@GIU?$less@G@std@@V?$allocator@U?$pair@$$CBGI@std@@@2@$0A@@std@@@std@@QAEPAU?$_Tree_node@U?$pair@$$CBGI@std@@PAX@1@ABUpiecewise_construct_t@1@$$QAV?$tuple@$$QAG@1@$$QAV?$tuple@$$V@1@@Z 005fe920 f i Npc.obj
 0002:00082a90       ??$_Buynode@ABUpiecewise_construct_t@std@@V?$tuple@ABQAVCUser@@@2@V?$tuple@$$V@2@@?$_Tree_comp_alloc@V?$_Tmap_traits@PAVCUser@@IU?$less@PAVCUser@@@std@@V?$allocator@U?$pair@QAVCUser@@I@std@@@3@$0A@@std@@@std@@QAEPAU?$_Tree_node@U?$pair@QAVCUser@@I@std@@PAX@1@ABUpiecewise_construct_t@1@$$QAV?$tuple@ABQAVCUser@@@1@$$QAV?$tuple@$$V@1@@Z 005fea90 f i Npc.obj
 0002:00082c00       ??$_Buynode@U?$pair@GPAVCUser@@@std@@@?$_Tree_comp_alloc@V?$_Tmap_traits@GPAVCUser@@U?$less@G@std@@V?$allocator@U?$pair@$$CBGPAVCUser@@@std@@@3@$0A@@std@@@std@@QAEPAU?$_Tree_node@U?$pair@$$CBGPAVCUser@@@std@@PAX@1@$$QAU?$pair@GPAVCUser@@@1@@Z 005fec00 f i Npc.obj
 0002:00082d50       ??$_Buynode_if_nil@AAU?$pair@$$CBGI@std@@@?$_Tree@V?$_Tmap_traits@GIU?$less@G@std@@V?$allocator@U?$pair@$$CBGI@std@@@2@$0A@@std@@@std@@IAEPAU?$_Tree_node@U?$pair@$$CBGI@std@@PAX@1@PAU21@AAU?$pair@$$CBGI@1@@Z 005fed50 f i Npc.obj
 0002:00082d90       ??$_Buynode_if_nil@AAU?$pair@$$CBGPAVCUser@@@std@@@?$_Tree@V?$_Tmap_traits@GPAVCUser@@U?$less@G@std@@V?$allocator@U?$pair@$$CBGPAVCUser@@@std@@@3@$0A@@std@@@std@@IAEPAU?$_Tree_node@U?$pair@$$CBGPAVCUser@@@std@@PAX@1@PAU21@AAU?$pair@$$CBGPAVCUser@@@1@@Z 005fed90 f i Npc.obj
 0002:00082dd0       ??$_Buynode_if_nil@AAU?$pair@QAVCUser@@I@std@@@?$_Tree@V?$_Tmap_traits@PAVCUser@@IU?$less@PAVCUser@@@std@@V?$allocator@U?$pair@QAVCUser@@I@std@@@3@$0A@@std@@@std@@IAEPAU?$_Tree_node@U?$pair@QAVCUser@@I@std@@PAX@1@PAU21@AAU?$pair@QAVCUser@@I@1@@Z 005fedd0 f i Npc.obj
 0002:00082e10       ??$_Debug_lt_pred@U?$less@G@std@@AAGABG@std@@YA_NU?$less@G@0@AAGABGPB_WI@Z 005fee10 f i Npc.obj
 0002:00082ee0       ??$_Debug_lt_pred@U?$less@G@std@@ABGABG@std@@YA_NU?$less@G@0@ABG1PB_WI@Z 005feee0 f i Npc.obj
 0002:00082fb0       ??$_Debug_lt_pred@U?$less@PAVCUser@@@std@@ABQAVCUser@@ABQAV3@@std@@YA_NU?$less@PAVCUser@@@0@ABQAVCUser@@1PB_WI@Z 005fefb0 f i Npc.obj
 0002:00083080       ??$_Insert_at@AAU?$pair@$$CBGI@std@@PAU?$_Tree_node@U?$pair@$$CBGI@std@@PAX@2@@?$_Tree@V?$_Tmap_traits@GIU?$less@G@std@@V?$allocator@U?$pair@$$CBGI@std@@@2@$0A@@std@@@std@@IAE?AV?$_Tree_iterator@V?$_Tree_val@U?$_Tree_simple_types@U?$pair@$$CBGI@std@@@std@@@std@@@1@_NPAU?$_Tree_node@U?$pair@$$CBGI@std@@PAX@1@AAU?$pair@$$CBGI@1@1@Z 005ff080 f i Npc.obj
 0002:00083630       ??$_Insert_at@AAU?$pair@$$CBGPAVCUser@@@std@@PAU?$_Tree_node@U?$pair@$$CBGPAVCUser@@@std@@PAX@2@@?$_Tree@V?$_Tmap_traits@GPAVCUser@@U?$less@G@std@@V?$allocator@U?$pair@$$CBGPAVCUser@@@std@@@3@$0A@@std@@@std@@IAE?AV?$_Tree_iterator@V?$_Tree_val@U?$_Tree_simple_types@U?$pair@$$CBGPAVCUser@@@std@@@std@@@std@@@1@_NPAU?$_Tree_node@U?$pair@$$CBGPAVCUser@@@std@@PAX@1@AAU?$pair@$$CBGPAVCUser@@@1@1@Z 005ff630 f i Npc.obj
 0002:00083be0       ??$_Insert_at@AAU?$pair@QAVCUser@@I@std@@PAU?$_Tree_node@U?$pair@QAVCUser@@I@std@@PAX@2@@?$_Tree@V?$_Tmap_traits@PAVCUser@@IU?$less@PAVCUser@@@std@@V?$allocator@U?$pair@QAVCUser@@I@std@@@3@$0A@@std@@@std@@IAE?AV?$_Tree_iterator@V?$_Tree_val@U?$_Tree_simple_types@U?$pair@QAVCUser@@I@std@@@std@@@std@@@1@_NPAU?$_Tree_node@U?$pair@QAVCUser@@I@std@@PAX@1@AAU?$pair@QAVCUser@@I@1@1@Z 005ffbe0 f i Npc.obj
 0002:00084190       ??$_Insert_hint@AAU?$pair@$$CBGI@std@@PAU?$_Tree_node@U?$pair@$$CBGI@std@@PAX@2@@?$_Tree@V?$_Tmap_traits@GIU?$less@G@std@@V?$allocator@U?$pair@$$CBGI@std@@@2@$0A@@std@@@std@@IAE?AV?$_Tree_iterator@V?$_Tree_val@U?$_Tree_simple_types@U?$pair@$$CBGI@std@@@std@@@std@@@1@V?$_Tree_const_iterator@V?$_Tree_val@U?$_Tree_simple_types@U?$pair@$$CBGI@std@@@std@@@std@@@1@AAU?$pair@$$CBGI@1@PAU?$_Tree_node@U?$pair@$$CBGI@std@@PAX@1@@Z 00600190 f i Npc.obj
 0002:00085720       ??$_Insert_hint@AAU?$pair@QAVCUser@@I@std@@PAU?$_Tree_node@U?$pair@QAVCUser@@I@std@@PAX@2@@?$_Tree@V?$_Tmap_traits@PAVCUser@@IU?$less@PAVCUser@@@std@@V?$allocator@U?$pair@QAVCUser@@I@std@@@3@$0A@@std@@@std@@IAE?AV?$_Tree_iterator@V?$_Tree_val@U?$_Tree_simple_types@U?$pair@QAVCUser@@I@std@@@std@@@std@@@1@V?$_Tree_const_iterator@V?$_Tree_val@U?$_Tree_simple_types@U?$pair@QAVCUser@@I@std@@@std@@@std@@@1@AAU?$pair@QAVCUser@@I@1@PAU?$_Tree_node@U?$pair@QAVCUser@@I@std@@PAX@1@@Z 00601720 f i Npc.obj
 0002:00086cb0       ??$_Insert_nohint@AAU?$pair@$$CBGI@std@@PAU?$_Tree_node@U?$pair@$$CBGI@std@@PAX@2@@?$_Tree@V?$_Tmap_traits@GIU?$less@G@std@@V?$allocator@U?$pair@$$CBGI@std@@@2@$0A@@std@@@std@@IAE?AU?$pair@V?$_Tree_iterator@V?$_Tree_val@U?$_Tree_simple_types@U?$pair@$$CBGI@std@@@std@@@std@@@std@@_N@1@_NAAU?$pair@$$CBGI@1@PAU?$_Tree_node@U?$pair@$$CBGI@std@@PAX@1@@Z 00602cb0 f i Npc.obj
 0002:00087390       ??$_Insert_nohint@AAU?$pair@$$CBGPAVCUser@@@std@@PAU?$_Tree_node@U?$pair@$$CBGPAVCUser@@@std@@PAX@2@@?$_Tree@V?$_Tmap_traits@GPAVCUser@@U?$less@G@std@@V?$allocator@U?$pair@$$CBGPAVCUser@@@std@@@3@$0A@@std@@@std@@IAE?AU?$pair@V?$_Tree_iterator@V?$_Tree_val@U?$_Tree_simple_types@U?$pair@$$CBGPAVCUser@@@std@@@std@@@std@@@std@@_N@1@_NAAU?$pair@$$CBGPAVCUser@@@1@PAU?$_Tree_node@U?$pair@$$CBGPAVCUser@@@std@@PAX@1@@Z 00603390 f i Npc.obj
 0002:00087a70       ??$_Insert_nohint@AAU?$pair@QAVCUser@@I@std@@PAU?$_Tree_node@U?$pair@QAVCUser@@I@std@@PAX@2@@?$_Tree@V?$_Tmap_traits@PAVCUser@@IU?$less@PAVCUser@@@std@@V?$allocator@U?$pair@QAVCUser@@I@std@@@3@$0A@@std@@@std@@IAE?AU?$pair@V?$_Tree_iterator@V?$_Tree_val@U?$_Tree_simple_types@U?$pair@QAVCUser@@I@std@@@std@@@std@@@std@@_N@1@_NAAU?$pair@QAVCUser@@I@1@PAU?$_Tree_node@U?$pair@QAVCUser@@I@std@@PAX@1@@Z 00603a70 f i Npc.obj
 0002:00088150       ??$_Kfn@$$CBGI@?$_Tmap_traits@GIU?$less@G@std@@V?$allocator@U?$pair@$$CBGI@std@@@2@$0A@@std@@SAABGABU?$pair@$$CBGI@1@@Z 00604150 f i Npc.obj
 0002:00088190       ??$_Kfn@$$CBGPAVCUser@@@?$_Tmap_traits@GPAVCUser@@U?$less@G@std@@V?$allocator@U?$pair@$$CBGPAVCUser@@@std@@@3@$0A@@std@@SAABGABU?$pair@$$CBGPAVCUser@@@1@@Z 00604190 f i Npc.obj
 0002:000881d0       ??$_Kfn@$$CBIPAU_K_MONSTER_ITEM@@@?$_Tmap_traits@IPAU_K_MONSTER_ITEM@@U?$less@I@std@@V?$allocator@U?$pair@$$CBIPAU_K_MONSTER_ITEM@@@std@@@3@$0A@@std@@SAABIABU?$pair@$$CBIPAU_K_MONSTER_ITEM@@@1@@Z 006041d0 f i Npc.obj
 0002:00088210       ??$_Kfn@$$CBIPAU_MAKE_ITEM_GRADE_CODE@@@?$_Tmap_traits@IPAU_MAKE_ITEM_GRADE_CODE@@U?$less@I@std@@V?$allocator@U?$pair@$$CBIPAU_MAKE_ITEM_GRADE_CODE@@@std@@@3@$0A@@std@@SAABIABU?$pair@$$CBIPAU_MAKE_ITEM_GRADE_CODE@@@1@@Z 00604210 f i Npc.obj
 0002:00088250       ??$_Kfn@$$CBIPAU_MAKE_ITEM_GROUP@@@?$_Tmap_traits@IPAU_MAKE_ITEM_GROUP@@U?$less@I@std@@V?$allocator@U?$pair@$$CBIPAU_MAKE_ITEM_GROUP@@@std@@@3@$0A@@std@@SAABIABU?$pair@$$CBIPAU_MAKE_ITEM_GROUP@@@1@@Z 00604250 f i Npc.obj
 0002:00088290       ??$_Kfn@$$CBIPAU_MAKE_ITEM_LARE_CODE@@@?$_Tmap_traits@IPAU_MAKE_ITEM_LARE_CODE@@U?$less@I@std@@V?$allocator@U?$pair@$$CBIPAU_MAKE_ITEM_LARE_CODE@@@std@@@3@$0A@@std@@SAABIABU?$pair@$$CBIPAU_MAKE_ITEM_LARE_CODE@@@1@@Z 00604290 f i Npc.obj
 0002:000882d0       ??$_Kfn@$$CBIPAU_MAKE_WEAPON@@@?$_Tmap_traits@IPAU_MAKE_WEAPON@@U?$less@I@std@@V?$allocator@U?$pair@$$CBIPAU_MAKE_WEAPON@@@std@@@3@$0A@@std@@SAABIABU?$pair@$$CBIPAU_MAKE_WEAPON@@@1@@Z 006042d0 f i Npc.obj
 0002:00088310       ??$_Kfn@QAVCUser@@I@?$_Tmap_traits@PAVCUser@@IU?$less@PAVCUser@@@std@@V?$allocator@U?$pair@QAVCUser@@I@std@@@3@$0A@@std@@SAABQAVCUser@@ABU?$pair@QAVCUser@@I@1@@Z 00604310 f i Npc.obj
 0002:00088350       ??$_Lbound@G@?$_Tree@V?$_Tmap_traits@GIU?$less@G@std@@V?$allocator@U?$pair@$$CBGI@std@@@2@$0A@@std@@@std@@IBEPAU?$_Tree_node@U?$pair@$$CBGI@std@@PAX@1@ABG@Z 00604350 f i Npc.obj
 0002:00088440       ??$_Lbound@G@?$_Tree@V?$_Tmap_traits@GPAVCUser@@U?$less@G@std@@V?$allocator@U?$pair@$$CBGPAVCUser@@@std@@@3@$0A@@std@@@std@@IBEPAU?$_Tree_node@U?$pair@$$CBGPAVCUser@@@std@@PAX@1@ABG@Z 00604440 f i Npc.obj
 0002:00088530       ??$_Lbound@I@?$_Tree@V?$_Tmap_traits@IPAU_K_MONSTER_ITEM@@U?$less@I@std@@V?$allocator@U?$pair@$$CBIPAU_K_MONSTER_ITEM@@@std@@@3@$0A@@std@@@std@@IBEPAU?$_Tree_node@U?$pair@$$CBIPAU_K_MONSTER_ITEM@@@std@@PAX@1@ABI@Z 00604530 f i Npc.obj
 0002:00088620       ??$_Lbound@I@?$_Tree@V?$_Tmap_traits@IPAU_MAKE_ITEM_GRADE_CODE@@U?$less@I@std@@V?$allocator@U?$pair@$$CBIPAU_MAKE_ITEM_GRADE_CODE@@@std@@@3@$0A@@std@@@std@@IBEPAU?$_Tree_node@U?$pair@$$CBIPAU_MAKE_ITEM_GRADE_CODE@@@std@@PAX@1@ABI@Z 00604620 f i Npc.obj
 0002:00088710       ??$_Lbound@I@?$_Tree@V?$_Tmap_traits@IPAU_MAKE_ITEM_GROUP@@U?$less@I@std@@V?$allocator@U?$pair@$$CBIPAU_MAKE_ITEM_GROUP@@@std@@@3@$0A@@std@@@std@@IBEPAU?$_Tree_node@U?$pair@$$CBIPAU_MAKE_ITEM_GROUP@@@std@@PAX@1@ABI@Z 00604710 f i Npc.obj
 0002:00088800       ??$_Lbound@I@?$_Tree@V?$_Tmap_traits@IPAU_MAKE_ITEM_LARE_CODE@@U?$less@I@std@@V?$allocator@U?$pair@$$CBIPAU_MAKE_ITEM_LARE_CODE@@@std@@@3@$0A@@std@@@std@@IBEPAU?$_Tree_node@U?$pair@$$CBIPAU_MAKE_ITEM_LARE_CODE@@@std@@PAX@1@ABI@Z 00604800 f i Npc.obj
 0002:000888f0       ??$_Lbound@I@?$_Tree@V?$_Tmap_traits@IPAU_MAKE_WEAPON@@U?$less@I@std@@V?$allocator@U?$pair@$$CBIPAU_MAKE_WEAPON@@@std@@@3@$0A@@std@@@std@@IBEPAU?$_Tree_node@U?$pair@$$CBIPAU_MAKE_WEAPON@@@std@@PAX@1@ABI@Z 006048f0 f i Npc.obj
 0002:000889e0       ??$_Lbound@PAVCUser@@@?$_Tree@V?$_Tmap_traits@PAVCUser@@IU?$less@PAVCUser@@@std@@V?$allocator@U?$pair@QAVCUser@@I@std@@@3@$0A@@std@@@std@@IBEPAU?$_Tree_node@U?$pair@QAVCUser@@I@std@@PAX@1@ABQAVCUser@@@Z 006049e0 f i Npc.obj
 0002:00088ad0       ??$_Pocca@U?$_Wrap_alloc@V?$allocator@D@std@@@std@@@std@@YAXAAU?$_Wrap_alloc@V?$allocator@D@std@@@0@ABU10@@Z 00604ad0 f i Npc.obj
 0002:00088b60       ??$_Pocca@U?$_Wrap_alloc@V?$allocator@D@std@@@std@@@std@@YAXAAU?$_Wrap_alloc@V?$allocator@D@std@@@0@ABU10@U?$integral_constant@_N$0A@@0@@Z 00604b60 f i Npc.obj
 0002:00088b90       ??$_Try_emplace@ABQAVCUser@@$$V@?$map@PAVCUser@@IU?$less@PAVCUser@@@std@@V?$allocator@U?$pair@QAVCUser@@I@std@@@3@@std@@QAE?AU?$pair@V?$_Tree_iterator@V?$_Tree_val@U?$_Tree_simple_types@U?$pair@QAVCUser@@I@std@@@std@@@std@@@std@@_N@1@ABQAVCUser@@@Z 00604b90 f i Npc.obj
 0002:00088ee0       ??$_Try_emplace@G$$V@?$map@GIU?$less@G@std@@V?$allocator@U?$pair@$$CBGI@std@@@2@@std@@QAE?AU?$pair@V?$_Tree_iterator@V?$_Tree_val@U?$_Tree_simple_types@U?$pair@$$CBGI@std@@@std@@@std@@@std@@_N@1@$$QAG@Z 00604ee0 f i Npc.obj
 0002:00089230       ??$addressof@PAU?$_Tree_node@U?$pair@$$CBGI@std@@PAX@std@@@std@@YAPAPAU?$_Tree_node@U?$pair@$$CBGI@std@@PAX@0@AAPAU10@@Z 00605230 f i Npc.obj
 0002:00089290       ??$addressof@PAU?$_Tree_node@U?$pair@$$CBGPAVCUser@@@std@@PAX@std@@@std@@YAPAPAU?$_Tree_node@U?$pair@$$CBGPAVCUser@@@std@@PAX@0@AAPAU10@@Z 00605290 f i Npc.obj
 0002:000892f0       ??$addressof@PAU?$_Tree_node@U?$pair@QAVCUser@@I@std@@PAX@std@@@std@@YAPAPAU?$_Tree_node@U?$pair@QAVCUser@@I@std@@PAX@0@AAPAU10@@Z 006052f0 f i Npc.obj
 0002:00089350       ??$addressof@U?$pair@$$CBGI@std@@@std@@YAPAU?$pair@$$CBGI@0@AAU10@@Z 00605350 f i Npc.obj
 0002:000893b0       ??$addressof@U?$pair@$$CBGPAVCUser@@@std@@@std@@YAPAU?$pair@$$CBGPAVCUser@@@0@AAU10@@Z 006053b0 f i Npc.obj
 0002:00089410       ??$addressof@U?$pair@$$CBIPAU_K_MONSTER_ITEM@@@std@@@std@@YAPAU?$pair@$$CBIPAU_K_MONSTER_ITEM@@@0@AAU10@@Z 00605410 f i Npc.obj
 0002:00089470       ??$addressof@U?$pair@$$CBIPAU_MAKE_ITEM_GRADE_CODE@@@std@@@std@@YAPAU?$pair@$$CBIPAU_MAKE_ITEM_GRADE_CODE@@@0@AAU10@@Z 00605470 f i Npc.obj
 0002:000894d0       ??$addressof@U?$pair@$$CBIPAU_MAKE_ITEM_GROUP@@@std@@@std@@YAPAU?$pair@$$CBIPAU_MAKE_ITEM_GROUP@@@0@AAU10@@Z 006054d0 f i Npc.obj
 0002:00089530       ??$addressof@U?$pair@$$CBIPAU_MAKE_ITEM_LARE_CODE@@@std@@@std@@YAPAU?$pair@$$CBIPAU_MAKE_ITEM_LARE_CODE@@@0@AAU10@@Z 00605530 f i Npc.obj
 0002:00089590       ??$addressof@U?$pair@$$CBIPAU_MAKE_WEAPON@@@std@@@std@@YAPAU?$pair@$$CBIPAU_MAKE_WEAPON@@@0@AAU10@@Z 00605590 f i Npc.obj
 0002:000895f0       ??$addressof@U?$pair@QAVCUser@@I@std@@@std@@YAPAU?$pair@QAVCUser@@I@0@AAU10@@Z 006055f0 f i Npc.obj
 0002:00089650       ??$append@D@ByteBuffer@@QAEXD@Z 00605650 f i Npc.obj
 0002:000896b0       ??$append@H@ByteBuffer@@QAEXH@Z 006056b0 f i Npc.obj
 0002:00089710       ??$append@I@ByteBuffer@@QAEXI@Z 00605710 f i Npc.obj
 0002:00089770       ??$append@M@ByteBuffer@@QAEXM@Z 00605770 f i Npc.obj
 0002:000897d0       ??$construct@PAU?$_Tree_node@U?$pair@$$CBGI@std@@PAX@std@@AAPAU12@@?$_Wrap_alloc@V?$allocator@U?$_Tree_node@U?$pair@$$CBGI@std@@PAX@std@@@std@@@std@@QAEXPAPAU?$_Tree_node@U?$pair@$$CBGI@std@@PAX@1@AAPAU21@@Z 006057d0 f i Npc.obj
 0002:00089840       ??$construct@PAU?$_Tree_node@U?$pair@$$CBGI@std@@PAX@std@@AAPAU12@@?$allocator@U?$_Tree_node@U?$pair@$$CBGI@std@@PAX@std@@@std@@QAEXPAPAU?$_Tree_node@U?$pair@$$CBGI@std@@PAX@1@AAPAU21@@Z 00605840 f i Npc.obj
 0002:000898f0       ??$construct@PAU?$_Tree_node@U?$pair@$$CBGI@std@@PAX@std@@AAPAU12@@?$allocator_traits@V?$allocator@U?$_Tree_node@U?$pair@$$CBGI@std@@PAX@std@@@std@@@std@@SAXAAV?$allocator@U?$_Tree_node@U?$pair@$$CBGI@std@@PAX@std@@@1@PAPAU?$_Tree_node@U?$pair@$$CBGI@std@@PAX@1@AAPAU31@@Z 006058f0 f i Npc.obj
 0002:00089950       ??$construct@PAU?$_Tree_node@U?$pair@$$CBGPAVCUser@@@std@@PAX@std@@AAPAU12@@?$_Wrap_alloc@V?$allocator@U?$_Tree_node@U?$pair@$$CBGPAVCUser@@@std@@PAX@std@@@std@@@std@@QAEXPAPAU?$_Tree_node@U?$pair@$$CBGPAVCUser@@@std@@PAX@1@AAPAU21@@Z 00605950 f i Npc.obj
 0002:000899c0       ??$construct@PAU?$_Tree_node@U?$pair@$$CBGPAVCUser@@@std@@PAX@std@@AAPAU12@@?$allocator@U?$_Tree_node@U?$pair@$$CBGPAVCUser@@@std@@PAX@std@@@std@@QAEXPAPAU?$_Tree_node@U?$pair@$$CBGPAVCUser@@@std@@PAX@1@AAPAU21@@Z 006059c0 f i Npc.obj
 0002:00089a70       ??$construct@PAU?$_Tree_node@U?$pair@$$CBGPAVCUser@@@std@@PAX@std@@AAPAU12@@?$allocator_traits@V?$allocator@U?$_Tree_node@U?$pair@$$CBGPAVCUser@@@std@@PAX@std@@@std@@@std@@SAXAAV?$allocator@U?$_Tree_node@U?$pair@$$CBGPAVCUser@@@std@@PAX@std@@@1@PAPAU?$_Tree_node@U?$pair@$$CBGPAVCUser@@@std@@PAX@1@AAPAU31@@Z 00605a70 f i Npc.obj
 0002:00089ad0       ??$construct@PAU?$_Tree_node@U?$pair@QAVCUser@@I@std@@PAX@std@@AAPAU12@@?$_Wrap_alloc@V?$allocator@U?$_Tree_node@U?$pair@QAVCUser@@I@std@@PAX@std@@@std@@@std@@QAEXPAPAU?$_Tree_node@U?$pair@QAVCUser@@I@std@@PAX@1@AAPAU21@@Z 00605ad0 f i Npc.obj
 0002:00089b40       ??$construct@PAU?$_Tree_node@U?$pair@QAVCUser@@I@std@@PAX@std@@AAPAU12@@?$allocator@U?$_Tree_node@U?$pair@QAVCUser@@I@std@@PAX@std@@@std@@QAEXPAPAU?$_Tree_node@U?$pair@QAVCUser@@I@std@@PAX@1@AAPAU21@@Z 00605b40 f i Npc.obj
 0002:00089bf0       ??$construct@PAU?$_Tree_node@U?$pair@QAVCUser@@I@std@@PAX@std@@AAPAU12@@?$allocator_traits@V?$allocator@U?$_Tree_node@U?$pair@QAVCUser@@I@std@@PAX@std@@@std@@@std@@SAXAAV?$allocator@U?$_Tree_node@U?$pair@QAVCUser@@I@std@@PAX@std@@@1@PAPAU?$_Tree_node@U?$pair@QAVCUser@@I@std@@PAX@1@AAPAU31@@Z 00605bf0 f i Npc.obj
 0002:00089c50       ??$construct@U?$pair@$$CBGI@std@@ABUpiecewise_construct_t@2@V?$tuple@$$QAG@2@V?$tuple@$$V@2@@?$_Wrap_alloc@V?$allocator@U?$_Tree_node@U?$pair@$$CBGI@std@@PAX@std@@@std@@@std@@QAEXPAU?$pair@$$CBGI@1@ABUpiecewise_construct_t@1@$$QAV?$tuple@$$QAG@1@$$QAV?$tuple@$$V@1@@Z 00605c50 f i Npc.obj
 0002:00089ce0       ??$construct@U?$pair@$$CBGI@std@@ABUpiecewise_construct_t@2@V?$tuple@$$QAG@2@V?$tuple@$$V@2@@?$allocator@U?$_Tree_node@U?$pair@$$CBGI@std@@PAX@std@@@std@@QAEXPAU?$pair@$$CBGI@1@ABUpiecewise_construct_t@1@$$QAV?$tuple@$$QAG@1@$$QAV?$tuple@$$V@1@@Z 00605ce0 f i Npc.obj
 0002:00089e20       ??$construct@U?$pair@$$CBGI@std@@ABUpiecewise_construct_t@2@V?$tuple@$$QAG@2@V?$tuple@$$V@2@@?$allocator_traits@V?$allocator@U?$_Tree_node@U?$pair@$$CBGI@std@@PAX@std@@@std@@@std@@SAXAAV?$allocator@U?$_Tree_node@U?$pair@$$CBGI@std@@PAX@std@@@1@PAU?$pair@$$CBGI@1@ABUpiecewise_construct_t@1@$$QAV?$tuple@$$QAG@1@$$QAV?$tuple@$$V@1@@Z 00605e20 f i Npc.obj
 0002:00089ea0       ??$construct@U?$pair@$$CBGPAVCUser@@@std@@U?$pair@GPAVCUser@@@2@@?$_Wrap_alloc@V?$allocator@U?$_Tree_node@U?$pair@$$CBGPAVCUser@@@std@@PAX@std@@@std@@@std@@QAEXPAU?$pair@$$CBGPAVCUser@@@1@$$QAU?$pair@GPAVCUser@@@1@@Z 00605ea0 f i Npc.obj
 0002:00089f10       ??$construct@U?$pair@$$CBGPAVCUser@@@std@@U?$pair@GPAVCUser@@@2@@?$allocator@U?$_Tree_node@U?$pair@$$CBGPAVCUser@@@std@@PAX@std@@@std@@QAEXPAU?$pair@$$CBGPAVCUser@@@1@$$QAU?$pair@GPAVCUser@@@1@@Z 00605f10 f i Npc.obj
 0002:00089fb0       ??$construct@U?$pair@$$CBGPAVCUser@@@std@@U?$pair@GPAVCUser@@@2@@?$allocator_traits@V?$allocator@U?$_Tree_node@U?$pair@$$CBGPAVCUser@@@std@@PAX@std@@@std@@@std@@SAXAAV?$allocator@U?$_Tree_node@U?$pair@$$CBGPAVCUser@@@std@@PAX@std@@@1@PAU?$pair@$$CBGPAVCUser@@@1@$$QAU?$pair@GPAVCUser@@@1@@Z 00605fb0 f i Npc.obj
 0002:0008a010       ??$construct@U?$pair@QAVCUser@@I@std@@ABUpiecewise_construct_t@2@V?$tuple@ABQAVCUser@@@2@V?$tuple@$$V@2@@?$_Wrap_alloc@V?$allocator@U?$_Tree_node@U?$pair@QAVCUser@@I@std@@PAX@std@@@std@@@std@@QAEXPAU?$pair@QAVCUser@@I@1@ABUpiecewise_construct_t@1@$$QAV?$tuple@ABQAVCUser@@@1@$$QAV?$tuple@$$V@1@@Z 00606010 f i Npc.obj
 0002:0008a0a0       ??$construct@U?$pair@QAVCUser@@I@std@@ABUpiecewise_construct_t@2@V?$tuple@ABQAVCUser@@@2@V?$tuple@$$V@2@@?$allocator@U?$_Tree_node@U?$pair@QAVCUser@@I@std@@PAX@std@@@std@@QAEXPAU?$pair@QAVCUser@@I@1@ABUpiecewise_construct_t@1@$$QAV?$tuple@ABQAVCUser@@@1@$$QAV?$tuple@$$V@1@@Z 006060a0 f i Npc.obj
 0002:0008a1e0       ??$construct@U?$pair@QAVCUser@@I@std@@ABUpiecewise_construct_t@2@V?$tuple@ABQAVCUser@@@2@V?$tuple@$$V@2@@?$allocator_traits@V?$allocator@U?$_Tree_node@U?$pair@QAVCUser@@I@std@@PAX@std@@@std@@@std@@SAXAAV?$allocator@U?$_Tree_node@U?$pair@QAVCUser@@I@std@@PAX@std@@@1@PAU?$pair@QAVCUser@@I@1@ABUpiecewise_construct_t@1@$$QAV?$tuple@ABQAVCUser@@@1@$$QAV?$tuple@$$V@1@@Z 006061e0 f i Npc.obj
 0002:0008a260       ??$destroy@PAU?$_Tree_node@U?$pair@$$CBGI@std@@PAX@std@@@?$_Wrap_alloc@V?$allocator@U?$_Tree_node@U?$pair@$$CBGI@std@@PAX@std@@@std@@@std@@QAEXPAPAU?$_Tree_node@U?$pair@$$CBGI@std@@PAX@1@@Z 00606260 f i Npc.obj
 0002:0008a2c0       ??$destroy@PAU?$_Tree_node@U?$pair@$$CBGI@std@@PAX@std@@@?$allocator@U?$_Tree_node@U?$pair@$$CBGI@std@@PAX@std@@@std@@QAEXPAPAU?$_Tree_node@U?$pair@$$CBGI@std@@PAX@1@@Z 006062c0 f i Npc.obj
 0002:0008a300       ??$destroy@PAU?$_Tree_node@U?$pair@$$CBGI@std@@PAX@std@@@?$allocator_traits@V?$allocator@U?$_Tree_node@U?$pair@$$CBGI@std@@PAX@std@@@std@@@std@@SAXAAV?$allocator@U?$_Tree_node@U?$pair@$$CBGI@std@@PAX@std@@@1@PAPAU?$_Tree_node@U?$pair@$$CBGI@std@@PAX@1@@Z 00606300 f i Npc.obj
 0002:0008a350       ??$destroy@PAU?$_Tree_node@U?$pair@$$CBGPAVCUser@@@std@@PAX@std@@@?$_Wrap_alloc@V?$allocator@U?$_Tree_node@U?$pair@$$CBGPAVCUser@@@std@@PAX@std@@@std@@@std@@QAEXPAPAU?$_Tree_node@U?$pair@$$CBGPAVCUser@@@std@@PAX@1@@Z 00606350 f i Npc.obj
 0002:0008a3b0       ??$destroy@PAU?$_Tree_node@U?$pair@$$CBGPAVCUser@@@std@@PAX@std@@@?$allocator@U?$_Tree_node@U?$pair@$$CBGPAVCUser@@@std@@PAX@std@@@std@@QAEXPAPAU?$_Tree_node@U?$pair@$$CBGPAVCUser@@@std@@PAX@1@@Z 006063b0 f i Npc.obj
 0002:0008a3f0       ??$destroy@PAU?$_Tree_node@U?$pair@$$CBGPAVCUser@@@std@@PAX@std@@@?$allocator_traits@V?$allocator@U?$_Tree_node@U?$pair@$$CBGPAVCUser@@@std@@PAX@std@@@std@@@std@@SAXAAV?$allocator@U?$_Tree_node@U?$pair@$$CBGPAVCUser@@@std@@PAX@std@@@1@PAPAU?$_Tree_node@U?$pair@$$CBGPAVCUser@@@std@@PAX@1@@Z 006063f0 f i Npc.obj
 0002:0008a440       ??$destroy@PAU?$_Tree_node@U?$pair@QAVCUser@@I@std@@PAX@std@@@?$_Wrap_alloc@V?$allocator@U?$_Tree_node@U?$pair@QAVCUser@@I@std@@PAX@std@@@std@@@std@@QAEXPAPAU?$_Tree_node@U?$pair@QAVCUser@@I@std@@PAX@1@@Z 00606440 f i Npc.obj
 0002:0008a4a0       ??$destroy@PAU?$_Tree_node@U?$pair@QAVCUser@@I@std@@PAX@std@@@?$allocator@U?$_Tree_node@U?$pair@QAVCUser@@I@std@@PAX@std@@@std@@QAEXPAPAU?$_Tree_node@U?$pair@QAVCUser@@I@std@@PAX@1@@Z 006064a0 f i Npc.obj
 0002:0008a4e0       ??$destroy@PAU?$_Tree_node@U?$pair@QAVCUser@@I@std@@PAX@std@@@?$allocator_traits@V?$allocator@U?$_Tree_node@U?$pair@QAVCUser@@I@std@@PAX@std@@@std@@@std@@SAXAAV?$allocator@U?$_Tree_node@U?$pair@QAVCUser@@I@std@@PAX@std@@@1@PAPAU?$_Tree_node@U?$pair@QAVCUser@@I@std@@PAX@1@@Z 006064e0 f i Npc.obj
 0002:0008a530       ??$destroy@U?$pair@$$CBGI@std@@@?$_Wrap_alloc@V?$allocator@U?$_Tree_node@U?$pair@$$CBGI@std@@PAX@std@@@std@@@std@@QAEXPAU?$pair@$$CBGI@1@@Z 00606530 f i Npc.obj
 0002:0008a590       ??$destroy@U?$pair@$$CBGI@std@@@?$allocator@U?$_Tree_node@U?$pair@$$CBGI@std@@PAX@std@@@std@@QAEXPAU?$pair@$$CBGI@1@@Z 00606590 f i Npc.obj
 0002:0008a5d0       ??$destroy@U?$pair@$$CBGI@std@@@?$allocator_traits@V?$allocator@U?$_Tree_node@U?$pair@$$CBGI@std@@PAX@std@@@std@@@std@@SAXAAV?$allocator@U?$_Tree_node@U?$pair@$$CBGI@std@@PAX@std@@@1@PAU?$pair@$$CBGI@1@@Z 006065d0 f i Npc.obj
 0002:0008a620       ??$destroy@U?$pair@$$CBGPAVCUser@@@std@@@?$_Wrap_alloc@V?$allocator@U?$_Tree_node@U?$pair@$$CBGPAVCUser@@@std@@PAX@std@@@std@@@std@@QAEXPAU?$pair@$$CBGPAVCUser@@@1@@Z 00606620 f i Npc.obj
 0002:0008a680       ??$destroy@U?$pair@$$CBGPAVCUser@@@std@@@?$allocator@U?$_Tree_node@U?$pair@$$CBGPAVCUser@@@std@@PAX@std@@@std@@QAEXPAU?$pair@$$CBGPAVCUser@@@1@@Z 00606680 f i Npc.obj
 0002:0008a6c0       ??$destroy@U?$pair@$$CBGPAVCUser@@@std@@@?$allocator_traits@V?$allocator@U?$_Tree_node@U?$pair@$$CBGPAVCUser@@@std@@PAX@std@@@std@@@std@@SAXAAV?$allocator@U?$_Tree_node@U?$pair@$$CBGPAVCUser@@@std@@PAX@std@@@1@PAU?$pair@$$CBGPAVCUser@@@1@@Z 006066c0 f i Npc.obj
 0002:0008a710       ??$destroy@U?$pair@QAVCUser@@I@std@@@?$_Wrap_alloc@V?$allocator@U?$_Tree_node@U?$pair@QAVCUser@@I@std@@PAX@std@@@std@@@std@@QAEXPAU?$pair@QAVCUser@@I@1@@Z 00606710 f i Npc.obj
 0002:0008a770       ??$destroy@U?$pair@QAVCUser@@I@std@@@?$allocator@U?$_Tree_node@U?$pair@QAVCUser@@I@std@@PAX@std@@@std@@QAEXPAU?$pair@QAVCUser@@I@1@@Z 00606770 f i Npc.obj
 0002:0008a7b0       ??$destroy@U?$pair@QAVCUser@@I@std@@@?$allocator_traits@V?$allocator@U?$_Tree_node@U?$pair@QAVCUser@@I@std@@PAX@std@@@std@@@std@@SAXAAV?$allocator@U?$_Tree_node@U?$pair@QAVCUser@@I@std@@PAX@std@@@1@PAU?$pair@QAVCUser@@I@1@@Z 006067b0 f i Npc.obj
 0002:0008a800       ??$emplace@U?$pair@GPAVCUser@@@std@@@?$_Tree@V?$_Tmap_traits@GPAVCUser@@U?$less@G@std@@V?$allocator@U?$pair@$$CBGPAVCUser@@@std@@@3@$0A@@std@@@std@@QAE?AU?$pair@V?$_Tree_iterator@V?$_Tree_val@U?$_Tree_simple_types@U?$pair@$$CBGPAVCUser@@@std@@@std@@@std@@@std@@_N@1@$$QAU?$pair@GPAVCUser@@@1@@Z 00606800 f i Npc.obj
 0002:0008a8b0       ??$emplace_hint@ABUpiecewise_construct_t@std@@V?$tuple@$$QAG@2@V?$tuple@$$V@2@@?$_Tree@V?$_Tmap_traits@GIU?$less@G@std@@V?$allocator@U?$pair@$$CBGI@std@@@2@$0A@@std@@@std@@QAE?AV?$_Tree_iterator@V?$_Tree_val@U?$_Tree_simple_types@U?$pair@$$CBGI@std@@@std@@@std@@@1@V?$_Tree_const_iterator@V?$_Tree_val@U?$_Tree_simple_types@U?$pair@$$CBGI@std@@@std@@@std@@@1@ABUpiecewise_construct_t@1@$$QAV?$tuple@$$QAG@1@$$QAV?$tuple@$$V@1@@Z 006068b0 f i Npc.obj
 0002:0008aa00       ??$emplace_hint@ABUpiecewise_construct_t@std@@V?$tuple@ABQAVCUser@@@2@V?$tuple@$$V@2@@?$_Tree@V?$_Tmap_traits@PAVCUser@@IU?$less@PAVCUser@@@std@@V?$allocator@U?$pair@QAVCUser@@I@std@@@3@$0A@@std@@@std@@QAE?AV?$_Tree_iterator@V?$_Tree_val@U?$_Tree_simple_types@U?$pair@QAVCUser@@I@std@@@std@@@std@@@1@V?$_Tree_const_iterator@V?$_Tree_val@U?$_Tree_simple_types@U?$pair@QAVCUser@@I@std@@@std@@@std@@@1@ABUpiecewise_construct_t@1@$$QAV?$tuple@ABQAVCUser@@@1@$$QAV?$tuple@$$V@1@@Z 00606a00 f i Npc.obj
 0002:0008ab50       ??$forward@$$QAG@std@@YA$$QAGAAG@Z 00606b50 f i Npc.obj
 0002:0008ab90       ??$forward@AAPAU?$_Tree_node@U?$pair@$$CBGI@std@@PAX@std@@@std@@YAAAPAU?$_Tree_node@U?$pair@$$CBGI@std@@PAX@0@AAPAU10@@Z 00606b90 f i Npc.obj
 0002:0008abd0       ??$forward@AAPAU?$_Tree_node@U?$pair@$$CBGPAVCUser@@@std@@PAX@std@@@std@@YAAAPAU?$_Tree_node@U?$pair@$$CBGPAVCUser@@@std@@PAX@0@AAPAU10@@Z 00606bd0 f i Npc.obj
 0002:0008ac10       ??$forward@AAPAU?$_Tree_node@U?$pair@QAVCUser@@I@std@@PAX@std@@@std@@YAAAPAU?$_Tree_node@U?$pair@QAVCUser@@I@std@@PAX@0@AAPAU10@@Z 00606c10 f i Npc.obj
 0002:0008ac50       ??$forward@AAPAVCUser@@@std@@YAAAPAVCUser@@AAPAV1@@Z 00606c50 f i Npc.obj
 0002:0008ac90       ??$forward@AAU?$_Wrap_alloc@V?$allocator@U?$_Tree_node@U?$pair@$$CBGI@std@@PAX@std@@@std@@@std@@@std@@YAAAU?$_Wrap_alloc@V?$allocator@U?$_Tree_node@U?$pair@$$CBGI@std@@PAX@std@@@std@@@0@AAU10@@Z 00606c90 f i Npc.obj
 0002:0008acd0       ??$forward@AAU?$_Wrap_alloc@V?$allocator@U?$_Tree_node@U?$pair@$$CBGPAVCUser@@@std@@PAX@std@@@std@@@std@@@std@@YAAAU?$_Wrap_alloc@V?$allocator@U?$_Tree_node@U?$pair@$$CBGPAVCUser@@@std@@PAX@std@@@std@@@0@AAU10@@Z 00606cd0 f i Npc.obj
 0002:0008ad10       ??$forward@AAU?$_Wrap_alloc@V?$allocator@U?$_Tree_node@U?$pair@QAVCUser@@I@std@@PAX@std@@@std@@@std@@@std@@YAAAU?$_Wrap_alloc@V?$allocator@U?$_Tree_node@U?$pair@QAVCUser@@I@std@@PAX@std@@@std@@@0@AAU10@@Z 00606d10 f i Npc.obj
 0002:0008ad50       ??$forward@AAU?$pair@$$CBGI@std@@@std@@YAAAU?$pair@$$CBGI@0@AAU10@@Z 00606d50 f i Npc.obj
 0002:0008ad90       ??$forward@AAU?$pair@$$CBGPAVCUser@@@std@@@std@@YAAAU?$pair@$$CBGPAVCUser@@@0@AAU10@@Z 00606d90 f i Npc.obj
 0002:0008add0       ??$forward@AAU?$pair@QAVCUser@@I@std@@@std@@YAAAU?$pair@QAVCUser@@I@0@AAU10@@Z 00606dd0 f i Npc.obj
 0002:0008ae10       ??$forward@AAV?$_Tree_iterator@V?$_Tree_val@U?$_Tree_simple_types@U?$pair@$$CBGI@std@@@std@@@std@@@std@@@std@@YAAAV?$_Tree_iterator@V?$_Tree_val@U?$_Tree_simple_types@U?$pair@$$CBGI@std@@@std@@@std@@@0@AAV10@@Z 00606e10 f i Npc.obj
 0002:0008ae50       ??$forward@AAV?$_Tree_iterator@V?$_Tree_val@U?$_Tree_simple_types@U?$pair@$$CBGPAVCUser@@@std@@@std@@@std@@@std@@@std@@YAAAV?$_Tree_iterator@V?$_Tree_val@U?$_Tree_simple_types@U?$pair@$$CBGPAVCUser@@@std@@@std@@@std@@@0@AAV10@@Z 00606e50 f i Npc.obj
 0002:0008ae90       ??$forward@AAV?$_Tree_iterator@V?$_Tree_val@U?$_Tree_simple_types@U?$pair@QAVCUser@@I@std@@@std@@@std@@@std@@@std@@YAAAV?$_Tree_iterator@V?$_Tree_val@U?$_Tree_simple_types@U?$pair@QAVCUser@@I@std@@@std@@@std@@@0@AAV10@@Z 00606e90 f i Npc.obj
 0002:0008aed0       ??$forward@ABQAVCUser@@@std@@YAABQAVCUser@@ABQAV1@@Z 00606ed0 f i Npc.obj
 0002:0008af10       ??$forward@ABU?$less@G@std@@@std@@YAABU?$less@G@0@ABU10@@Z 00606f10 f i Npc.obj
 0002:0008af50       ??$forward@ABU?$less@PAVCUser@@@std@@@std@@YAABU?$less@PAVCUser@@@0@ABU10@@Z 00606f50 f i Npc.obj
 0002:0008af90       ??$forward@G@std@@YA$$QAGAAG@Z 00606f90 f i Npc.obj
 0002:0008afd0       ??$forward@PAVCUser@@@std@@YA$$QAPAVCUser@@AAPAV1@@Z 00606fd0 f i Npc.obj
 0002:0008b010       ??$forward@U?$pair@GPAVCUser@@@std@@@std@@YA$$QAU?$pair@GPAVCUser@@@0@AAU10@@Z 00607010 f i Npc.obj
 0002:0008b050       ??$forward@V?$_Tree_iterator@V?$_Tree_val@U?$_Tree_simple_types@U?$pair@$$CBGI@std@@@std@@@std@@@std@@@std@@YA$$QAV?$_Tree_iterator@V?$_Tree_val@U?$_Tree_simple_types@U?$pair@$$CBGI@std@@@std@@@std@@@0@AAV10@@Z 00607050 f i Npc.obj
 0002:0008b090       ??$forward@V?$_Tree_iterator@V?$_Tree_val@U?$_Tree_simple_types@U?$pair@$$CBGPAVCUser@@@std@@@std@@@std@@@std@@@std@@YA$$QAV?$_Tree_iterator@V?$_Tree_val@U?$_Tree_simple_types@U?$pair@$$CBGPAVCUser@@@std@@@std@@@std@@@0@AAV10@@Z 00607090 f i Npc.obj
 0002:0008b0d0       ??$forward@V?$_Tree_iterator@V?$_Tree_val@U?$_Tree_simple_types@U?$pair@QAVCUser@@I@std@@@std@@@std@@@std@@@std@@YA$$QAV?$_Tree_iterator@V?$_Tree_val@U?$_Tree_simple_types@U?$pair@QAVCUser@@I@std@@@std@@@std@@@0@AAV10@@Z 006070d0 f i Npc.obj
 0002:0008b110       ??$forward@V?$tuple@$$QAG@std@@@std@@YA$$QAV?$tuple@$$QAG@0@AAV10@@Z 00607110 f i Npc.obj
 0002:0008b150       ??$forward@V?$tuple@ABQAVCUser@@@std@@@std@@YA$$QAV?$tuple@ABQAVCUser@@@0@AAV10@@Z 00607150 f i Npc.obj
 0002:0008b190       ??$forward_as_tuple@ABQAVCUser@@@std@@YA?AV?$tuple@ABQAVCUser@@@0@ABQAVCUser@@@Z 00607190 f i Npc.obj
 0002:0008b230       ??$forward_as_tuple@G@std@@YA?AV?$tuple@$$QAG@0@$$QAG@Z 00607230 f i Npc.obj
 0002:0008b2d0       ??$get@$0A@$$QAG@std@@YA$$QAG$$QAV?$tuple@$$QAG@0@@Z 006072d0 f i Npc.obj
 0002:0008b320       ??$get@$0A@ABQAVCUser@@@std@@YAABQAVCUser@@$$QAV?$tuple@ABQAVCUser@@@0@@Z 00607320 f i Npc.obj
 0002:0008b370       ??$insert@U?$pair@GPAVCUser@@@std@@X@?$map@GPAVCUser@@U?$less@G@std@@V?$allocator@U?$pair@$$CBGPAVCUser@@@std@@@3@@std@@QAE?AU?$pair@V?$_Tree_iterator@V?$_Tree_val@U?$_Tree_simple_types@U?$pair@$$CBGPAVCUser@@@std@@@std@@@std@@@std@@_N@1@$$QAU?$pair@GPAVCUser@@@1@@Z 00607370 f i Npc.obj
 0002:0008b400       ??$make_pair@GAAPAVCUser@@@std@@YA?AU?$pair@GPAVCUser@@@0@$$QAGAAPAVCUser@@@Z 00607400 f i Npc.obj
 0002:0008b470       ??$move@AAG@std@@YA$$QAGAAG@Z 00607470 f i Npc.obj
 0002:0008b4b0       ??$move@AAV?$tuple@$$QAG@std@@@std@@YA$$QAV?$tuple@$$QAG@0@AAV10@@Z 006074b0 f i Npc.obj
 0002:0008b4f0       ??$move@AAV?$tuple@ABQAVCUser@@@std@@@std@@YA$$QAV?$tuple@ABQAVCUser@@@0@AAV10@@Z 006074f0 f i Npc.obj
 0002:0008b530       ??$try_emplace@$$V@?$map@GIU?$less@G@std@@V?$allocator@U?$pair@$$CBGI@std@@@2@@std@@QAE?AU?$pair@V?$_Tree_iterator@V?$_Tree_val@U?$_Tree_simple_types@U?$pair@$$CBGI@std@@@std@@@std@@@std@@_N@1@$$QAG@Z 00607530 f i Npc.obj
 0002:0008b5c0       ??$try_emplace@$$V@?$map@PAVCUser@@IU?$less@PAVCUser@@@std@@V?$allocator@U?$pair@QAVCUser@@I@std@@@3@@std@@QAE?AU?$pair@V?$_Tree_iterator@V?$_Tree_val@U?$_Tree_simple_types@U?$pair@QAVCUser@@I@std@@@std@@@std@@@std@@_N@1@ABQAVCUser@@@Z 006075c0 f i Npc.obj
 0002:0008b640       ??0?$_Iterator012@Ubidirectional_iterator_tag@std@@U?$pair@$$CBGI@2@HPBU32@ABU32@U_Iterator_base12@2@@std@@QAE@$$QAU01@@Z 00607640 f i Npc.obj
 0002:0008b6a0       ??0?$_Iterator012@Ubidirectional_iterator_tag@std@@U?$pair@$$CBGI@2@HPBU32@ABU32@U_Iterator_base12@2@@std@@QAE@ABU01@@Z 006076a0 f i Npc.obj
 0002:0008b700       ??0?$_Iterator012@Ubidirectional_iterator_tag@std@@U?$pair@$$CBGI@2@HPBU32@ABU32@U_Iterator_base12@2@@std@@QAE@XZ 00607700 f i Npc.obj
 0002:0008b760       ??0?$_Iterator012@Ubidirectional_iterator_tag@std@@U?$pair@$$CBGPAVCUser@@@2@HPBU32@ABU32@U_Iterator_base12@2@@std@@QAE@$$QAU01@@Z 00607760 f i Npc.obj
 0002:0008b7c0       ??0?$_Iterator012@Ubidirectional_iterator_tag@std@@U?$pair@$$CBGPAVCUser@@@2@HPBU32@ABU32@U_Iterator_base12@2@@std@@QAE@ABU01@@Z 006077c0 f i Npc.obj
 0002:0008b820       ??0?$_Iterator012@Ubidirectional_iterator_tag@std@@U?$pair@$$CBGPAVCUser@@@2@HPBU32@ABU32@U_Iterator_base12@2@@std@@QAE@XZ 00607820 f i Npc.obj
 0002:0008b880       ??0?$_Iterator012@Ubidirectional_iterator_tag@std@@U?$pair@$$CBIPAU_K_MONSTER_ITEM@@@2@HPBU32@ABU32@U_Iterator_base12@2@@std@@QAE@$$QAU01@@Z 00607880 f i Npc.obj
 0002:0008b8e0       ??0?$_Iterator012@Ubidirectional_iterator_tag@std@@U?$pair@$$CBIPAU_K_MONSTER_ITEM@@@2@HPBU32@ABU32@U_Iterator_base12@2@@std@@QAE@ABU01@@Z 006078e0 f i Npc.obj
 0002:0008b940       ??0?$_Iterator012@Ubidirectional_iterator_tag@std@@U?$pair@$$CBIPAU_K_MONSTER_ITEM@@@2@HPBU32@ABU32@U_Iterator_base12@2@@std@@QAE@XZ 00607940 f i Npc.obj
 0002:0008b9a0       ??0?$_Iterator012@Ubidirectional_iterator_tag@std@@U?$pair@$$CBIPAU_MAKE_ITEM_GRADE_CODE@@@2@HPBU32@ABU32@U_Iterator_base12@2@@std@@QAE@$$QAU01@@Z 006079a0 f i Npc.obj
 0002:0008ba00       ??0?$_Iterator012@Ubidirectional_iterator_tag@std@@U?$pair@$$CBIPAU_MAKE_ITEM_GRADE_CODE@@@2@HPBU32@ABU32@U_Iterator_base12@2@@std@@QAE@ABU01@@Z 00607a00 f i Npc.obj
 0002:0008ba60       ??0?$_Iterator012@Ubidirectional_iterator_tag@std@@U?$pair@$$CBIPAU_MAKE_ITEM_GRADE_CODE@@@2@HPBU32@ABU32@U_Iterator_base12@2@@std@@QAE@XZ 00607a60 f i Npc.obj
 0002:0008bac0       ??0?$_Iterator012@Ubidirectional_iterator_tag@std@@U?$pair@$$CBIPAU_MAKE_ITEM_GROUP@@@2@HPBU32@ABU32@U_Iterator_base12@2@@std@@QAE@$$QAU01@@Z 00607ac0 f i Npc.obj
 0002:0008bb20       ??0?$_Iterator012@Ubidirectional_iterator_tag@std@@U?$pair@$$CBIPAU_MAKE_ITEM_GROUP@@@2@HPBU32@ABU32@U_Iterator_base12@2@@std@@QAE@ABU01@@Z 00607b20 f i Npc.obj
 0002:0008bb80       ??0?$_Iterator012@Ubidirectional_iterator_tag@std@@U?$pair@$$CBIPAU_MAKE_ITEM_GROUP@@@2@HPBU32@ABU32@U_Iterator_base12@2@@std@@QAE@XZ 00607b80 f i Npc.obj
 0002:0008bbe0       ??0?$_Iterator012@Ubidirectional_iterator_tag@std@@U?$pair@$$CBIPAU_MAKE_ITEM_LARE_CODE@@@2@HPBU32@ABU32@U_Iterator_base12@2@@std@@QAE@$$QAU01@@Z 00607be0 f i Npc.obj
 0002:0008bc40       ??0?$_Iterator012@Ubidirectional_iterator_tag@std@@U?$pair@$$CBIPAU_MAKE_ITEM_LARE_CODE@@@2@HPBU32@ABU32@U_Iterator_base12@2@@std@@QAE@ABU01@@Z 00607c40 f i Npc.obj
 0002:0008bca0       ??0?$_Iterator012@Ubidirectional_iterator_tag@std@@U?$pair@$$CBIPAU_MAKE_ITEM_LARE_CODE@@@2@HPBU32@ABU32@U_Iterator_base12@2@@std@@QAE@XZ 00607ca0 f i Npc.obj
 0002:0008bd00       ??0?$_Iterator012@Ubidirectional_iterator_tag@std@@U?$pair@$$CBIPAU_MAKE_WEAPON@@@2@HPBU32@ABU32@U_Iterator_base12@2@@std@@QAE@$$QAU01@@Z 00607d00 f i Npc.obj
 0002:0008bd60       ??0?$_Iterator012@Ubidirectional_iterator_tag@std@@U?$pair@$$CBIPAU_MAKE_WEAPON@@@2@HPBU32@ABU32@U_Iterator_base12@2@@std@@QAE@ABU01@@Z 00607d60 f i Npc.obj
 0002:0008bdc0       ??0?$_Iterator012@Ubidirectional_iterator_tag@std@@U?$pair@$$CBIPAU_MAKE_WEAPON@@@2@HPBU32@ABU32@U_Iterator_base12@2@@std@@QAE@XZ 00607dc0 f i Npc.obj
 0002:0008be20       ??0?$_Iterator012@Ubidirectional_iterator_tag@std@@U?$pair@QAVCUser@@I@2@HPBU32@ABU32@U_Iterator_base12@2@@std@@QAE@$$QAU01@@Z 00607e20 f i Npc.obj
 0002:0008be80       ??0?$_Iterator012@Ubidirectional_iterator_tag@std@@U?$pair@QAVCUser@@I@2@HPBU32@ABU32@U_Iterator_base12@2@@std@@QAE@ABU01@@Z 00607e80 f i Npc.obj
 0002:0008bee0       ??0?$_Iterator012@Ubidirectional_iterator_tag@std@@U?$pair@QAVCUser@@I@2@HPBU32@ABU32@U_Iterator_base12@2@@std@@QAE@XZ 00607ee0 f i Npc.obj
 0002:0008bf40       ??0?$_Tree@V?$_Tmap_traits@GIU?$less@G@std@@V?$allocator@U?$pair@$$CBGI@std@@@2@$0A@@std@@@std@@QAE@ABU?$less@G@1@@Z 00607f40 f i Npc.obj
 0002:0008bfa0       ??0?$_Tree@V?$_Tmap_traits@GPAVCUser@@U?$less@G@std@@V?$allocator@U?$pair@$$CBGPAVCUser@@@std@@@3@$0A@@std@@@std@@QAE@ABU?$less@G@1@@Z 00607fa0 f i Npc.obj
 0002:0008c000       ??0?$_Tree@V?$_Tmap_traits@PAVCUser@@IU?$less@PAVCUser@@@std@@V?$allocator@U?$pair@QAVCUser@@I@std@@@3@$0A@@std@@@std@@QAE@ABU?$less@PAVCUser@@@1@@Z 00608000 f i Npc.obj
 0002:0008c060       ??0?$_Tree_comp_alloc@V?$_Tmap_traits@GIU?$less@G@std@@V?$allocator@U?$pair@$$CBGI@std@@@2@$0A@@std@@@std@@QAE@ABU?$less@G@1@@Z 00608060 f i Npc.obj
 0002:0008c120       ??0?$_Tree_comp_alloc@V?$_Tmap_traits@GPAVCUser@@U?$less@G@std@@V?$allocator@U?$pair@$$CBGPAVCUser@@@std@@@3@$0A@@std@@@std@@QAE@ABU?$less@G@1@@Z 00608120 f i Npc.obj
 0002:0008c1e0       ??0?$_Tree_comp_alloc@V?$_Tmap_traits@PAVCUser@@IU?$less@PAVCUser@@@std@@V?$allocator@U?$pair@QAVCUser@@I@std@@@3@$0A@@std@@@std@@QAE@ABU?$less@PAVCUser@@@1@@Z 006081e0 f i Npc.obj
 0002:0008c2a0       ??0?$_Tree_const_iterator@V?$_Tree_val@U?$_Tree_simple_types@U?$pair@$$CBGI@std@@@std@@@std@@@std@@QAE@$$QAV01@@Z 006082a0 f i Npc.obj
 0002:0008c300       ??0?$_Tree_const_iterator@V?$_Tree_val@U?$_Tree_simple_types@U?$pair@$$CBGI@std@@@std@@@std@@@std@@QAE@ABV01@@Z 00608300 f i Npc.obj
 0002:0008c360       ??0?$_Tree_const_iterator@V?$_Tree_val@U?$_Tree_simple_types@U?$pair@$$CBGI@std@@@std@@@std@@@std@@QAE@PAU?$_Tree_node@U?$pair@$$CBGI@std@@PAX@1@PBV?$_Tree_val@U?$_Tree_simple_types@U?$pair@$$CBGI@std@@@std@@@1@@Z 00608360 f i Npc.obj
 0002:0008c3c0       ??0?$_Tree_const_iterator@V?$_Tree_val@U?$_Tree_simple_types@U?$pair@$$CBGI@std@@@std@@@std@@@std@@QAE@XZ 006083c0 f i Npc.obj
 0002:0008c420       ??0?$_Tree_const_iterator@V?$_Tree_val@U?$_Tree_simple_types@U?$pair@$$CBGPAVCUser@@@std@@@std@@@std@@@std@@QAE@$$QAV01@@Z 00608420 f i Npc.obj
 0002:0008c480       ??0?$_Tree_const_iterator@V?$_Tree_val@U?$_Tree_simple_types@U?$pair@$$CBGPAVCUser@@@std@@@std@@@std@@@std@@QAE@ABV01@@Z 00608480 f i Npc.obj
 0002:0008c4e0       ??0?$_Tree_const_iterator@V?$_Tree_val@U?$_Tree_simple_types@U?$pair@$$CBGPAVCUser@@@std@@@std@@@std@@@std@@QAE@PAU?$_Tree_node@U?$pair@$$CBGPAVCUser@@@std@@PAX@1@PBV?$_Tree_val@U?$_Tree_simple_types@U?$pair@$$CBGPAVCUser@@@std@@@std@@@1@@Z 006084e0 f i Npc.obj
 0002:0008c540       ??0?$_Tree_const_iterator@V?$_Tree_val@U?$_Tree_simple_types@U?$pair@$$CBIPAU_K_MONSTER_ITEM@@@std@@@std@@@std@@@std@@QAE@$$QAV01@@Z 00608540 f i Npc.obj
 0002:0008c5a0       ??0?$_Tree_const_iterator@V?$_Tree_val@U?$_Tree_simple_types@U?$pair@$$CBIPAU_K_MONSTER_ITEM@@@std@@@std@@@std@@@std@@QAE@ABV01@@Z 006085a0 f i Npc.obj
 0002:0008c600       ??0?$_Tree_const_iterator@V?$_Tree_val@U?$_Tree_simple_types@U?$pair@$$CBIPAU_K_MONSTER_ITEM@@@std@@@std@@@std@@@std@@QAE@PAU?$_Tree_node@U?$pair@$$CBIPAU_K_MONSTER_ITEM@@@std@@PAX@1@PBV?$_Tree_val@U?$_Tree_simple_types@U?$pair@$$CBIPAU_K_MONSTER_ITEM@@@std@@@std@@@1@@Z 00608600 f i Npc.obj
 0002:0008c660       ??0?$_Tree_const_iterator@V?$_Tree_val@U?$_Tree_simple_types@U?$pair@$$CBIPAU_MAKE_ITEM_GRADE_CODE@@@std@@@std@@@std@@@std@@QAE@$$QAV01@@Z 00608660 f i Npc.obj
 0002:0008c6c0       ??0?$_Tree_const_iterator@V?$_Tree_val@U?$_Tree_simple_types@U?$pair@$$CBIPAU_MAKE_ITEM_GRADE_CODE@@@std@@@std@@@std@@@std@@QAE@ABV01@@Z 006086c0 f i Npc.obj
 0002:0008c720       ??0?$_Tree_const_iterator@V?$_Tree_val@U?$_Tree_simple_types@U?$pair@$$CBIPAU_MAKE_ITEM_GRADE_CODE@@@std@@@std@@@std@@@std@@QAE@PAU?$_Tree_node@U?$pair@$$CBIPAU_MAKE_ITEM_GRADE_CODE@@@std@@PAX@1@PBV?$_Tree_val@U?$_Tree_simple_types@U?$pair@$$CBIPAU_MAKE_ITEM_GRADE_CODE@@@std@@@std@@@1@@Z 00608720 f i Npc.obj
 0002:0008c780       ??0?$_Tree_const_iterator@V?$_Tree_val@U?$_Tree_simple_types@U?$pair@$$CBIPAU_MAKE_ITEM_GROUP@@@std@@@std@@@std@@@std@@QAE@$$QAV01@@Z 00608780 f i Npc.obj
 0002:0008c7e0       ??0?$_Tree_const_iterator@V?$_Tree_val@U?$_Tree_simple_types@U?$pair@$$CBIPAU_MAKE_ITEM_GROUP@@@std@@@std@@@std@@@std@@QAE@ABV01@@Z 006087e0 f i Npc.obj
 0002:0008c840       ??0?$_Tree_const_iterator@V?$_Tree_val@U?$_Tree_simple_types@U?$pair@$$CBIPAU_MAKE_ITEM_GROUP@@@std@@@std@@@std@@@std@@QAE@PAU?$_Tree_node@U?$pair@$$CBIPAU_MAKE_ITEM_GROUP@@@std@@PAX@1@PBV?$_Tree_val@U?$_Tree_simple_types@U?$pair@$$CBIPAU_MAKE_ITEM_GROUP@@@std@@@std@@@1@@Z 00608840 f i Npc.obj
 0002:0008c8a0       ??0?$_Tree_const_iterator@V?$_Tree_val@U?$_Tree_simple_types@U?$pair@$$CBIPAU_MAKE_ITEM_LARE_CODE@@@std@@@std@@@std@@@std@@QAE@$$QAV01@@Z 006088a0 f i Npc.obj
 0002:0008c900       ??0?$_Tree_const_iterator@V?$_Tree_val@U?$_Tree_simple_types@U?$pair@$$CBIPAU_MAKE_ITEM_LARE_CODE@@@std@@@std@@@std@@@std@@QAE@ABV01@@Z 00608900 f i Npc.obj
 0002:0008c960       ??0?$_Tree_const_iterator@V?$_Tree_val@U?$_Tree_simple_types@U?$pair@$$CBIPAU_MAKE_ITEM_LARE_CODE@@@std@@@std@@@std@@@std@@QAE@PAU?$_Tree_node@U?$pair@$$CBIPAU_MAKE_ITEM_LARE_CODE@@@std@@PAX@1@PBV?$_Tree_val@U?$_Tree_simple_types@U?$pair@$$CBIPAU_MAKE_ITEM_LARE_CODE@@@std@@@std@@@1@@Z 00608960 f i Npc.obj
 0002:0008c9c0       ??0?$_Tree_const_iterator@V?$_Tree_val@U?$_Tree_simple_types@U?$pair@$$CBIPAU_MAKE_WEAPON@@@std@@@std@@@std@@@std@@QAE@$$QAV01@@Z 006089c0 f i Npc.obj
 0002:0008ca20       ??0?$_Tree_const_iterator@V?$_Tree_val@U?$_Tree_simple_types@U?$pair@$$CBIPAU_MAKE_WEAPON@@@std@@@std@@@std@@@std@@QAE@ABV01@@Z 00608a20 f i Npc.obj
 0002:0008ca80       ??0?$_Tree_const_iterator@V?$_Tree_val@U?$_Tree_simple_types@U?$pair@$$CBIPAU_MAKE_WEAPON@@@std@@@std@@@std@@@std@@QAE@PAU?$_Tree_node@U?$pair@$$CBIPAU_MAKE_WEAPON@@@std@@PAX@1@PBV?$_Tree_val@U?$_Tree_simple_types@U?$pair@$$CBIPAU_MAKE_WEAPON@@@std@@@std@@@1@@Z 00608a80 f i Npc.obj
 0002:0008cae0       ??0?$_Tree_const_iterator@V?$_Tree_val@U?$_Tree_simple_types@U?$pair@QAVCUser@@I@std@@@std@@@std@@@std@@QAE@$$QAV01@@Z 00608ae0 f i Npc.obj
 0002:0008cb40       ??0?$_Tree_const_iterator@V?$_Tree_val@U?$_Tree_simple_types@U?$pair@QAVCUser@@I@std@@@std@@@std@@@std@@QAE@ABV01@@Z 00608b40 f i Npc.obj
 0002:0008cba0       ??0?$_Tree_const_iterator@V?$_Tree_val@U?$_Tree_simple_types@U?$pair@QAVCUser@@I@std@@@std@@@std@@@std@@QAE@PAU?$_Tree_node@U?$pair@QAVCUser@@I@std@@PAX@1@PBV?$_Tree_val@U?$_Tree_simple_types@U?$pair@QAVCUser@@I@std@@@std@@@1@@Z 00608ba0 f i Npc.obj
 0002:0008cc00       ??0?$_Tree_const_iterator@V?$_Tree_val@U?$_Tree_simple_types@U?$pair@QAVCUser@@I@std@@@std@@@std@@@std@@QAE@XZ 00608c00 f i Npc.obj
 0002:0008cc60       ??0?$_Tree_iterator@V?$_Tree_val@U?$_Tree_simple_types@U?$pair@$$CBGI@std@@@std@@@std@@@std@@QAE@$$QAV01@@Z 00608c60 f i Npc.obj
 0002:0008ccc0       ??0?$_Tree_iterator@V?$_Tree_val@U?$_Tree_simple_types@U?$pair@$$CBGI@std@@@std@@@std@@@std@@QAE@ABV01@@Z 00608cc0 f i Npc.obj
 0002:0008cd20       ??0?$_Tree_iterator@V?$_Tree_val@U?$_Tree_simple_types@U?$pair@$$CBGI@std@@@std@@@std@@@std@@QAE@PAU?$_Tree_node@U?$pair@$$CBGI@std@@PAX@1@PBV?$_Tree_val@U?$_Tree_simple_types@U?$pair@$$CBGI@std@@@std@@@1@@Z 00608d20 f i Npc.obj
 0002:0008cd80       ??0?$_Tree_iterator@V?$_Tree_val@U?$_Tree_simple_types@U?$pair@$$CBGPAVCUser@@@std@@@std@@@std@@@std@@QAE@$$QAV01@@Z 00608d80 f i Npc.obj
 0002:0008cde0       ??0?$_Tree_iterator@V?$_Tree_val@U?$_Tree_simple_types@U?$pair@$$CBGPAVCUser@@@std@@@std@@@std@@@std@@QAE@ABV01@@Z 00608de0 f i Npc.obj
 0002:0008ce40       ??0?$_Tree_iterator@V?$_Tree_val@U?$_Tree_simple_types@U?$pair@$$CBGPAVCUser@@@std@@@std@@@std@@@std@@QAE@PAU?$_Tree_node@U?$pair@$$CBGPAVCUser@@@std@@PAX@1@PBV?$_Tree_val@U?$_Tree_simple_types@U?$pair@$$CBGPAVCUser@@@std@@@std@@@1@@Z 00608e40 f i Npc.obj
 0002:0008cea0       ??0?$_Tree_iterator@V?$_Tree_val@U?$_Tree_simple_types@U?$pair@$$CBIPAU_K_MONSTER_ITEM@@@std@@@std@@@std@@@std@@QAE@$$QAV01@@Z 00608ea0 f i Npc.obj
 0002:0008cf00       ??0?$_Tree_iterator@V?$_Tree_val@U?$_Tree_simple_types@U?$pair@$$CBIPAU_K_MONSTER_ITEM@@@std@@@std@@@std@@@std@@QAE@ABV01@@Z 00608f00 f i Npc.obj
 0002:0008cf60       ??0?$_Tree_iterator@V?$_Tree_val@U?$_Tree_simple_types@U?$pair@$$CBIPAU_K_MONSTER_ITEM@@@std@@@std@@@std@@@std@@QAE@PAU?$_Tree_node@U?$pair@$$CBIPAU_K_MONSTER_ITEM@@@std@@PAX@1@PBV?$_Tree_val@U?$_Tree_simple_types@U?$pair@$$CBIPAU_K_MONSTER_ITEM@@@std@@@std@@@1@@Z 00608f60 f i Npc.obj
 0002:0008cfc0       ??0?$_Tree_iterator@V?$_Tree_val@U?$_Tree_simple_types@U?$pair@$$CBIPAU_MAKE_ITEM_GRADE_CODE@@@std@@@std@@@std@@@std@@QAE@$$QAV01@@Z 00608fc0 f i Npc.obj
 0002:0008d020       ??0?$_Tree_iterator@V?$_Tree_val@U?$_Tree_simple_types@U?$pair@$$CBIPAU_MAKE_ITEM_GRADE_CODE@@@std@@@std@@@std@@@std@@QAE@ABV01@@Z 00609020 f i Npc.obj
 0002:0008d080       ??0?$_Tree_iterator@V?$_Tree_val@U?$_Tree_simple_types@U?$pair@$$CBIPAU_MAKE_ITEM_GRADE_CODE@@@std@@@std@@@std@@@std@@QAE@PAU?$_Tree_node@U?$pair@$$CBIPAU_MAKE_ITEM_GRADE_CODE@@@std@@PAX@1@PBV?$_Tree_val@U?$_Tree_simple_types@U?$pair@$$CBIPAU_MAKE_ITEM_GRADE_CODE@@@std@@@std@@@1@@Z 00609080 f i Npc.obj
 0002:0008d0e0       ??0?$_Tree_iterator@V?$_Tree_val@U?$_Tree_simple_types@U?$pair@$$CBIPAU_MAKE_ITEM_GROUP@@@std@@@std@@@std@@@std@@QAE@$$QAV01@@Z 006090e0 f i Npc.obj
 0002:0008d140       ??0?$_Tree_iterator@V?$_Tree_val@U?$_Tree_simple_types@U?$pair@$$CBIPAU_MAKE_ITEM_GROUP@@@std@@@std@@@std@@@std@@QAE@ABV01@@Z 00609140 f i Npc.obj
 0002:0008d1a0       ??0?$_Tree_iterator@V?$_Tree_val@U?$_Tree_simple_types@U?$pair@$$CBIPAU_MAKE_ITEM_GROUP@@@std@@@std@@@std@@@std@@QAE@PAU?$_Tree_node@U?$pair@$$CBIPAU_MAKE_ITEM_GROUP@@@std@@PAX@1@PBV?$_Tree_val@U?$_Tree_simple_types@U?$pair@$$CBIPAU_MAKE_ITEM_GROUP@@@std@@@std@@@1@@Z 006091a0 f i Npc.obj
 0002:0008d200       ??0?$_Tree_iterator@V?$_Tree_val@U?$_Tree_simple_types@U?$pair@$$CBIPAU_MAKE_ITEM_LARE_CODE@@@std@@@std@@@std@@@std@@QAE@$$QAV01@@Z 00609200 f i Npc.obj
 0002:0008d260       ??0?$_Tree_iterator@V?$_Tree_val@U?$_Tree_simple_types@U?$pair@$$CBIPAU_MAKE_ITEM_LARE_CODE@@@std@@@std@@@std@@@std@@QAE@ABV01@@Z 00609260 f i Npc.obj
 0002:0008d2c0       ??0?$_Tree_iterator@V?$_Tree_val@U?$_Tree_simple_types@U?$pair@$$CBIPAU_MAKE_ITEM_LARE_CODE@@@std@@@std@@@std@@@std@@QAE@PAU?$_Tree_node@U?$pair@$$CBIPAU_MAKE_ITEM_LARE_CODE@@@std@@PAX@1@PBV?$_Tree_val@U?$_Tree_simple_types@U?$pair@$$CBIPAU_MAKE_ITEM_LARE_CODE@@@std@@@std@@@1@@Z 006092c0 f i Npc.obj
 0002:0008d320       ??0?$_Tree_iterator@V?$_Tree_val@U?$_Tree_simple_types@U?$pair@$$CBIPAU_MAKE_WEAPON@@@std@@@std@@@std@@@std@@QAE@$$QAV01@@Z 00609320 f i Npc.obj
 0002:0008d380       ??0?$_Tree_iterator@V?$_Tree_val@U?$_Tree_simple_types@U?$pair@$$CBIPAU_MAKE_WEAPON@@@std@@@std@@@std@@@std@@QAE@ABV01@@Z 00609380 f i Npc.obj
 0002:0008d3e0       ??0?$_Tree_iterator@V?$_Tree_val@U?$_Tree_simple_types@U?$pair@$$CBIPAU_MAKE_WEAPON@@@std@@@std@@@std@@@std@@QAE@PAU?$_Tree_node@U?$pair@$$CBIPAU_MAKE_WEAPON@@@std@@PAX@1@PBV?$_Tree_val@U?$_Tree_simple_types@U?$pair@$$CBIPAU_MAKE_WEAPON@@@std@@@std@@@1@@Z 006093e0 f i Npc.obj
 0002:0008d440       ??0?$_Tree_iterator@V?$_Tree_val@U?$_Tree_simple_types@U?$pair@QAVCUser@@I@std@@@std@@@std@@@std@@QAE@$$QAV01@@Z 00609440 f i Npc.obj
 0002:0008d4a0       ??0?$_Tree_iterator@V?$_Tree_val@U?$_Tree_simple_types@U?$pair@QAVCUser@@I@std@@@std@@@std@@@std@@QAE@ABV01@@Z 006094a0 f i Npc.obj
 0002:0008d500       ??0?$_Tree_iterator@V?$_Tree_val@U?$_Tree_simple_types@U?$pair@QAVCUser@@I@std@@@std@@@std@@@std@@QAE@PAU?$_Tree_node@U?$pair@QAVCUser@@I@std@@PAX@1@PBV?$_Tree_val@U?$_Tree_simple_types@U?$pair@QAVCUser@@I@std@@@std@@@1@@Z 00609500 f i Npc.obj
 0002:0008d560       ??0?$_Tree_unchecked_const_iterator@V?$_Tree_val@U?$_Tree_simple_types@U?$pair@$$CBGI@std@@@std@@@std@@U_Iterator_base12@2@@std@@QAE@$$QAV01@@Z 00609560 f i Npc.obj
 0002:0008d5d0       ??0?$_Tree_unchecked_const_iterator@V?$_Tree_val@U?$_Tree_simple_types@U?$pair@$$CBGI@std@@@std@@@std@@U_Iterator_base12@2@@std@@QAE@ABV01@@Z 006095d0 f i Npc.obj
 0002:0008d640       ??0?$_Tree_unchecked_const_iterator@V?$_Tree_val@U?$_Tree_simple_types@U?$pair@$$CBGI@std@@@std@@@std@@U_Iterator_base12@2@@std@@QAE@PAU?$_Tree_node@U?$pair@$$CBGI@std@@PAX@1@PBV?$_Tree_val@U?$_Tree_simple_types@U?$pair@$$CBGI@std@@@std@@@1@@Z 00609640 f i Npc.obj
 0002:0008d700       ??0?$_Tree_unchecked_const_iterator@V?$_Tree_val@U?$_Tree_simple_types@U?$pair@$$CBGI@std@@@std@@@std@@U_Iterator_base12@2@@std@@QAE@XZ 00609700 f i Npc.obj
 0002:0008d760       ??0?$_Tree_unchecked_const_iterator@V?$_Tree_val@U?$_Tree_simple_types@U?$pair@$$CBGPAVCUser@@@std@@@std@@@std@@U_Iterator_base12@2@@std@@QAE@$$QAV01@@Z 00609760 f i Npc.obj
 0002:0008d7d0       ??0?$_Tree_unchecked_const_iterator@V?$_Tree_val@U?$_Tree_simple_types@U?$pair@$$CBGPAVCUser@@@std@@@std@@@std@@U_Iterator_base12@2@@std@@QAE@ABV01@@Z 006097d0 f i Npc.obj
 0002:0008d840       ??0?$_Tree_unchecked_const_iterator@V?$_Tree_val@U?$_Tree_simple_types@U?$pair@$$CBGPAVCUser@@@std@@@std@@@std@@U_Iterator_base12@2@@std@@QAE@PAU?$_Tree_node@U?$pair@$$CBGPAVCUser@@@std@@PAX@1@PBV?$_Tree_val@U?$_Tree_simple_types@U?$pair@$$CBGPAVCUser@@@std@@@std@@@1@@Z 00609840 f i Npc.obj
 0002:0008d900       ??0?$_Tree_unchecked_const_iterator@V?$_Tree_val@U?$_Tree_simple_types@U?$pair@$$CBIPAU_K_MONSTER_ITEM@@@std@@@std@@@std@@U_Iterator_base12@2@@std@@QAE@$$QAV01@@Z 00609900 f i Npc.obj
 0002:0008d970       ??0?$_Tree_unchecked_const_iterator@V?$_Tree_val@U?$_Tree_simple_types@U?$pair@$$CBIPAU_K_MONSTER_ITEM@@@std@@@std@@@std@@U_Iterator_base12@2@@std@@QAE@ABV01@@Z 00609970 f i Npc.obj
 0002:0008d9e0       ??0?$_Tree_unchecked_const_iterator@V?$_Tree_val@U?$_Tree_simple_types@U?$pair@$$CBIPAU_K_MONSTER_ITEM@@@std@@@std@@@std@@U_Iterator_base12@2@@std@@QAE@PAU?$_Tree_node@U?$pair@$$CBIPAU_K_MONSTER_ITEM@@@std@@PAX@1@PBV?$_Tree_val@U?$_Tree_simple_types@U?$pair@$$CBIPAU_K_MONSTER_ITEM@@@std@@@std@@@1@@Z 006099e0 f i Npc.obj
 0002:0008daa0       ??0?$_Tree_unchecked_const_iterator@V?$_Tree_val@U?$_Tree_simple_types@U?$pair@$$CBIPAU_MAKE_ITEM_GRADE_CODE@@@std@@@std@@@std@@U_Iterator_base12@2@@std@@QAE@$$QAV01@@Z 00609aa0 f i Npc.obj
 0002:0008db10       ??0?$_Tree_unchecked_const_iterator@V?$_Tree_val@U?$_Tree_simple_types@U?$pair@$$CBIPAU_MAKE_ITEM_GRADE_CODE@@@std@@@std@@@std@@U_Iterator_base12@2@@std@@QAE@ABV01@@Z 00609b10 f i Npc.obj
 0002:0008db80       ??0?$_Tree_unchecked_const_iterator@V?$_Tree_val@U?$_Tree_simple_types@U?$pair@$$CBIPAU_MAKE_ITEM_GRADE_CODE@@@std@@@std@@@std@@U_Iterator_base12@2@@std@@QAE@PAU?$_Tree_node@U?$pair@$$CBIPAU_MAKE_ITEM_GRADE_CODE@@@std@@PAX@1@PBV?$_Tree_val@U?$_Tree_simple_types@U?$pair@$$CBIPAU_MAKE_ITEM_GRADE_CODE@@@std@@@std@@@1@@Z 00609b80 f i Npc.obj
 0002:0008dc40       ??0?$_Tree_unchecked_const_iterator@V?$_Tree_val@U?$_Tree_simple_types@U?$pair@$$CBIPAU_MAKE_ITEM_GROUP@@@std@@@std@@@std@@U_Iterator_base12@2@@std@@QAE@$$QAV01@@Z 00609c40 f i Npc.obj
 0002:0008dcb0       ??0?$_Tree_unchecked_const_iterator@V?$_Tree_val@U?$_Tree_simple_types@U?$pair@$$CBIPAU_MAKE_ITEM_GROUP@@@std@@@std@@@std@@U_Iterator_base12@2@@std@@QAE@ABV01@@Z 00609cb0 f i Npc.obj
 0002:0008dd20       ??0?$_Tree_unchecked_const_iterator@V?$_Tree_val@U?$_Tree_simple_types@U?$pair@$$CBIPAU_MAKE_ITEM_GROUP@@@std@@@std@@@std@@U_Iterator_base12@2@@std@@QAE@PAU?$_Tree_node@U?$pair@$$CBIPAU_MAKE_ITEM_GROUP@@@std@@PAX@1@PBV?$_Tree_val@U?$_Tree_simple_types@U?$pair@$$CBIPAU_MAKE_ITEM_GROUP@@@std@@@std@@@1@@Z 00609d20 f i Npc.obj
 0002:0008dde0       ??0?$_Tree_unchecked_const_iterator@V?$_Tree_val@U?$_Tree_simple_types@U?$pair@$$CBIPAU_MAKE_ITEM_LARE_CODE@@@std@@@std@@@std@@U_Iterator_base12@2@@std@@QAE@$$QAV01@@Z 00609de0 f i Npc.obj
 0002:0008de50       ??0?$_Tree_unchecked_const_iterator@V?$_Tree_val@U?$_Tree_simple_types@U?$pair@$$CBIPAU_MAKE_ITEM_LARE_CODE@@@std@@@std@@@std@@U_Iterator_base12@2@@std@@QAE@ABV01@@Z 00609e50 f i Npc.obj
 0002:0008dec0       ??0?$_Tree_unchecked_const_iterator@V?$_Tree_val@U?$_Tree_simple_types@U?$pair@$$CBIPAU_MAKE_ITEM_LARE_CODE@@@std@@@std@@@std@@U_Iterator_base12@2@@std@@QAE@PAU?$_Tree_node@U?$pair@$$CBIPAU_MAKE_ITEM_LARE_CODE@@@std@@PAX@1@PBV?$_Tree_val@U?$_Tree_simple_types@U?$pair@$$CBIPAU_MAKE_ITEM_LARE_CODE@@@std@@@std@@@1@@Z 00609ec0 f i Npc.obj
 0002:0008df80       ??0?$_Tree_unchecked_const_iterator@V?$_Tree_val@U?$_Tree_simple_types@U?$pair@$$CBIPAU_MAKE_WEAPON@@@std@@@std@@@std@@U_Iterator_base12@2@@std@@QAE@$$QAV01@@Z 00609f80 f i Npc.obj
 0002:0008dff0       ??0?$_Tree_unchecked_const_iterator@V?$_Tree_val@U?$_Tree_simple_types@U?$pair@$$CBIPAU_MAKE_WEAPON@@@std@@@std@@@std@@U_Iterator_base12@2@@std@@QAE@ABV01@@Z 00609ff0 f i Npc.obj
 0002:0008e060       ??0?$_Tree_unchecked_const_iterator@V?$_Tree_val@U?$_Tree_simple_types@U?$pair@$$CBIPAU_MAKE_WEAPON@@@std@@@std@@@std@@U_Iterator_base12@2@@std@@QAE@PAU?$_Tree_node@U?$pair@$$CBIPAU_MAKE_WEAPON@@@std@@PAX@1@PBV?$_Tree_val@U?$_Tree_simple_types@U?$pair@$$CBIPAU_MAKE_WEAPON@@@std@@@std@@@1@@Z 0060a060 f i Npc.obj
 0002:0008e120       ??0?$_Tree_unchecked_const_iterator@V?$_Tree_val@U?$_Tree_simple_types@U?$pair@QAVCUser@@I@std@@@std@@@std@@U_Iterator_base12@2@@std@@QAE@$$QAV01@@Z 0060a120 f i Npc.obj
 0002:0008e190       ??0?$_Tree_unchecked_const_iterator@V?$_Tree_val@U?$_Tree_simple_types@U?$pair@QAVCUser@@I@std@@@std@@@std@@U_Iterator_base12@2@@std@@QAE@ABV01@@Z 0060a190 f i Npc.obj
 0002:0008e200       ??0?$_Tree_unchecked_const_iterator@V?$_Tree_val@U?$_Tree_simple_types@U?$pair@QAVCUser@@I@std@@@std@@@std@@U_Iterator_base12@2@@std@@QAE@PAU?$_Tree_node@U?$pair@QAVCUser@@I@std@@PAX@1@PBV?$_Tree_val@U?$_Tree_simple_types@U?$pair@QAVCUser@@I@std@@@std@@@1@@Z 0060a200 f i Npc.obj
 0002:0008e2c0       ??0?$_Tree_unchecked_const_iterator@V?$_Tree_val@U?$_Tree_simple_types@U?$pair@QAVCUser@@I@std@@@std@@@std@@U_Iterator_base12@2@@std@@QAE@XZ 0060a2c0 f i Npc.obj
 0002:0008e320       ??0?$_Tree_val@U?$_Tree_simple_types@U?$pair@$$CBGI@std@@@std@@@std@@QAE@XZ 0060a320 f i Npc.obj
 0002:0008e390       ??0?$_Tree_val@U?$_Tree_simple_types@U?$pair@$$CBGPAVCUser@@@std@@@std@@@std@@QAE@XZ 0060a390 f i Npc.obj
 0002:0008e400       ??0?$_Tree_val@U?$_Tree_simple_types@U?$pair@QAVCUser@@I@std@@@std@@@std@@QAE@XZ 0060a400 f i Npc.obj
 0002:0008e470       ??0?$_Wrap_alloc@V?$allocator@U?$_Tree_node@U?$pair@$$CBGI@std@@PAX@std@@@std@@@std@@QAE@XZ 0060a470 f i Npc.obj
 0002:0008e4d0       ??0?$_Wrap_alloc@V?$allocator@U?$_Tree_node@U?$pair@$$CBGPAVCUser@@@std@@PAX@std@@@std@@@std@@QAE@XZ 0060a4d0 f i Npc.obj
 0002:0008e530       ??0?$_Wrap_alloc@V?$allocator@U?$_Tree_node@U?$pair@QAVCUser@@I@std@@PAX@std@@@std@@@std@@QAE@XZ 0060a530 f i Npc.obj
 0002:0008e590       ??0?$allocator@U?$_Tree_node@U?$pair@$$CBGI@std@@PAX@std@@@std@@QAE@XZ 0060a590 f i Npc.obj
 0002:0008e5d0       ??0?$allocator@U?$_Tree_node@U?$pair@$$CBGPAVCUser@@@std@@PAX@std@@@std@@QAE@XZ 0060a5d0 f i Npc.obj
 0002:0008e610       ??0?$allocator@U?$_Tree_node@U?$pair@QAVCUser@@I@std@@PAX@std@@@std@@QAE@XZ 0060a610 f i Npc.obj
 0002:0008e650       ??0?$map@GIU?$less@G@std@@V?$allocator@U?$pair@$$CBGI@std@@@2@@std@@QAE@XZ 0060a650 f i Npc.obj
 0002:0008e6b0       ??0?$map@GPAVCUser@@U?$less@G@std@@V?$allocator@U?$pair@$$CBGPAVCUser@@@std@@@3@@std@@QAE@XZ 0060a6b0 f i Npc.obj
 0002:0008e710       ??0?$map@PAVCUser@@IU?$less@PAVCUser@@@std@@V?$allocator@U?$pair@QAVCUser@@I@std@@@3@@std@@QAE@XZ 0060a710 f i Npc.obj
 0002:0008e770       ??0?$tuple@$$QAG@std@@QAE@$$QAV01@@Z 0060a770 f i Npc.obj
 0002:0008e7e0       ??0?$tuple@ABQAVCUser@@@std@@QAE@$$QAV01@@Z 0060a7e0 f i Npc.obj
 0002:0008e850       ??0CNpc@@QAE@XZ            0060a850 f   Npc.obj
 0002:0008ec90       ??0CPoint@@QAE@XZ          0060ac90 f i Npc.obj
 0002:0008ecd0       ??0__Matrix44@@QAE@XZ      0060acd0 f i Npc.obj
 0002:0008ed10       ??1?$_Compressed_pair@U?$_Wrap_alloc@V?$allocator@U?$_Tree_node@U?$pair@$$CBGI@std@@PAX@std@@@std@@@std@@V?$_Tree_val@U?$_Tree_simple_types@U?$pair@$$CBGI@std@@@std@@@2@$00@std@@QAE@XZ 0060ad10 f i Npc.obj
 0002:0008ed60       ??1?$_Compressed_pair@U?$_Wrap_alloc@V?$allocator@U?$_Tree_node@U?$pair@$$CBGPAVCUser@@@std@@PAX@std@@@std@@@std@@V?$_Tree_val@U?$_Tree_simple_types@U?$pair@$$CBGPAVCUser@@@std@@@std@@@2@$00@std@@QAE@XZ 0060ad60 f i Npc.obj
 0002:0008edb0       ??1?$_Compressed_pair@U?$_Wrap_alloc@V?$allocator@U?$_Tree_node@U?$pair@QAVCUser@@I@std@@PAX@std@@@std@@@std@@V?$_Tree_val@U?$_Tree_simple_types@U?$pair@QAVCUser@@I@std@@@std@@@2@$00@std@@QAE@XZ 0060adb0 f i Npc.obj
 0002:0008ee00       ??1?$_Compressed_pair@U?$less@G@std@@V?$_Compressed_pair@U?$_Wrap_alloc@V?$allocator@U?$_Tree_node@U?$pair@$$CBGI@std@@PAX@std@@@std@@@std@@V?$_Tree_val@U?$_Tree_simple_types@U?$pair@$$CBGI@std@@@std@@@2@$00@2@$00@std@@QAE@XZ 0060ae00 f i Npc.obj
 0002:0008ee50       ??1?$_Compressed_pair@U?$less@G@std@@V?$_Compressed_pair@U?$_Wrap_alloc@V?$allocator@U?$_Tree_node@U?$pair@$$CBGPAVCUser@@@std@@PAX@std@@@std@@@std@@V?$_Tree_val@U?$_Tree_simple_types@U?$pair@$$CBGPAVCUser@@@std@@@std@@@2@$00@2@$00@std@@QAE@XZ 0060ae50 f i Npc.obj
 0002:0008eea0       ??1?$_Compressed_pair@U?$less@PAVCUser@@@std@@V?$_Compressed_pair@U?$_Wrap_alloc@V?$allocator@U?$_Tree_node@U?$pair@QAVCUser@@I@std@@PAX@std@@@std@@@std@@V?$_Tree_val@U?$_Tree_simple_types@U?$pair@QAVCUser@@I@std@@@std@@@2@$00@2@$00@std@@QAE@XZ 0060aea0 f i Npc.obj
 0002:0008eef0       ??1?$_Iterator012@Ubidirectional_iterator_tag@std@@U?$pair@$$CBGI@2@HPBU32@ABU32@U_Iterator_base12@2@@std@@QAE@XZ 0060aef0 f i Npc.obj
 0002:0008ef40       ??1?$_Iterator012@Ubidirectional_iterator_tag@std@@U?$pair@$$CBGPAVCUser@@@2@HPBU32@ABU32@U_Iterator_base12@2@@std@@QAE@XZ 0060af40 f i Npc.obj
 0002:0008ef90       ??1?$_Iterator012@Ubidirectional_iterator_tag@std@@U?$pair@$$CBIPAU_K_MONSTER_ITEM@@@2@HPBU32@ABU32@U_Iterator_base12@2@@std@@QAE@XZ 0060af90 f i Npc.obj
 0002:0008efe0       ??1?$_Iterator012@Ubidirectional_iterator_tag@std@@U?$pair@$$CBIPAU_MAKE_ITEM_GRADE_CODE@@@2@HPBU32@ABU32@U_Iterator_base12@2@@std@@QAE@XZ 0060afe0 f i Npc.obj
